L251 LINKER/LOCATER V4.66.93.0                                                          03/20/2026  13:53:16  PAGE 1


L251 LINKER/LOCATER V4.66.93.0, INVOKED BY:
D:\KEIL MDK\C251\BIN\L251.EXE .\Objects\main.obj, .\Objects\oled.obj, .\Objects\spi.obj, .\Objects\uart.obj, .\Objects\t
>> imer.obj, .\Objects\rs485.obj, .\Objects\isr.obj, .\Objects\key.obj, .\Objects\pid.obj TO .\Objects\STC32G_Test_06_SP
>> IĶØŠÅOLEDĘĮ PRINT (.\Listings\STC32G_Test_06_SPIĶØŠÅOLEDĘĮ.map) CASE CLASSES (EDATA (0X0-0XFFF), HDATA (0X0-0XFFF))


CPU MODE:     251 SOURCE MODE
INTR FRAME:   2 BYTES SAVED ON INTERRUPT
MEMORY MODEL: XSMALL WITH FLOATING POINT ARITHMETIC


INPUT MODULES INCLUDED:
  .\Objects\main.obj (main)
         COMMENT TYPE 0: C251 V5.60.0
  .\Objects\oled.obj (oled)
         COMMENT TYPE 0: C251 V5.60.0
  .\Objects\spi.obj (spi)
         COMMENT TYPE 0: C251 V5.60.0
  .\Objects\uart.obj (uart)
         COMMENT TYPE 0: C251 V5.60.0
  .\Objects\timer.obj (timer)
         COMMENT TYPE 0: C251 V5.60.0
  .\Objects\rs485.obj (rs485)
         COMMENT TYPE 0: C251 V5.60.0
  .\Objects\isr.obj (isr)
         COMMENT TYPE 0: A251 V4.69.13.0
  .\Objects\key.obj (key)
         COMMENT TYPE 0: C251 V5.60.0
  .\Objects\pid.obj (pid)
         COMMENT TYPE 0: C251 V5.60.0
  D:\KEIL MDK\C251\LIB\C2SFPXS.LIB (SPRINTF)
         COMMENT TYPE 0: A251 V4.69.6.0
  D:\KEIL MDK\C251\LIB\C2SFPXS.LIB (VSPRINTF)
         COMMENT TYPE 0: A251 V4.69.6.0
  D:\KEIL MDK\C251\LIB\C2SFPXS.LIB (?C?PRNFMT)
         COMMENT TYPE 0: A251 V4.69.6.0
  D:\KEIL MDK\C251\LIB\C2SFPXS.LIB (?C?FPCONVERT)
         COMMENT TYPE 0: A251 V4.69.6.0
  D:\KEIL MDK\C251\LIB\C2SFPXS.LIB (?C?FPMUL)
         COMMENT TYPE 0: A251 V4.69.6.0
  D:\KEIL MDK\C251\LIB\C2SFPXS.LIB (?C?FPDIV)
         COMMENT TYPE 0: A251 V4.69.6.0
  D:\KEIL MDK\C251\LIB\C2SFPXS.LIB (?C?FTNPWR)
         COMMENT TYPE 0: A251 V4.69.6.0
  D:\KEIL MDK\C251\LIB\C2SFPXS.LIB (?C?FPGETOPN)
         COMMENT TYPE 0: A251 V4.69.6.0
  D:\KEIL MDK\C251\LIB\C2SXS.LIB (?C_START)
         COMMENT TYPE 0: A251 V4.69.6.0
  D:\KEIL MDK\C251\LIB\C2SXS.LIB (?C?INITEDATA)
         COMMENT TYPE 0: A251 V4.69.6.0
  D:\KEIL MDK\C251\LIB\C2SXS.LIB (?C?SIDIV)
         COMMENT TYPE 0: A251 V4.69.6.0
  D:\KEIL MDK\C251\LIB\C2SXS.LIB (?C?LMUL)
         COMMENT TYPE 0: A251 V4.69.6.0
  D:\KEIL MDK\C251\LIB\C2SXS.LIB (?C?LIMUL)
         COMMENT TYPE 0: A251 V4.69.6.0
  D:\KEIL MDK\C251\LIB\C2SXS.LIB (?C?SLDIV)
         COMMENT TYPE 0: A251 V4.69.6.0
  D:\KEIL MDK\C251\LIB\C2SXS.LIB (STRLEN)
         COMMENT TYPE 0: C251 V5.58.7
  D:\KEIL MDK\C251\LIB\C2SXS.LIB (memset)
         COMMENT TYPE 0: C251 V5.58.7
  D:\KEIL MDK\C251\LIB\C2SXS.LIB (?C?INITEDATA_END)
         COMMENT TYPE 0: A251 V4.69.6.0
  D:\KEIL MDK\C251\LIB\C2SXS.LIB (?C?ULDIV)
         COMMENT TYPE 0: A251 V4.69.6.0
L251 LINKER/LOCATER V4.66.93.0                                                        03/20/2026  13:53:16  PAGE 2




ACTIVE MEMORY CLASSES OF MODULE:  .\Objects\STC32G_Test_06_SPIĶØŠÅOLEDĘĮ (main)

BASE        START       END         USED      MEMORY CLASS
==========================================================
000000H     000000H     000FFFH     000363H   EDATA
000000H     000000H     000FFFH               HDATA
000000H     FF0000H     FFFFFFH     0002C8H   HCONST
FF0000H     FF0000H     FFFFFFH     003F32H   CODE
000020H.0   000020H.0   00002FH.7   000000H.4 BIT
010000H     010000H     01FFFFH     000417H   XDATA
FF0000H     FF0000H     FFFFFFH     000004H   CONST
000000H     000000H     00007FH     000008H   DATA


MEMORY MAP OF MODULE:  .\Objects\STC32G_Test_06_SPIĶØŠÅOLEDĘĮ (main)


START     STOP      LENGTH    ALIGN  RELOC    MEMORY CLASS   SEGMENT NAME
=========================================================================
000000H   000007H   000008H   ---    AT..     DATA           "REG BANK 0"
000008H   000013H   00000CH   BYTE   UNIT     EDATA          ?ED?OLED_BUFFSHOWCIRCLE?OLED
000014H   000018H   000005H   BYTE   UNIT     EDATA          ?ED?OLED_DRAWBMP?OLED
000019H   00001CH   000004H   BYTE   UNIT     EDATA          ?ED?OLED_BUFFSHOWNUM?OLED
00001DH.0 00001FH.7 000003H.0 ---    ---      **GAP**
000020H.0 000020H.2 000000H.3 BIT    UNIT     BIT            ?BI?MAIN
000020H.3 000020H.3 000000H.1 BIT    UNIT     BIT            ?BI?UART
000020H.4 000020H   000000H.4 ---    ---      **GAP**
000021H   0000C6H   0000A6H   BYTE   UNIT     EDATA          ?ED?RS485
0000C7H   000160H   00009AH   BYTE   UNIT     EDATA          _EDATA_GROUP_
000161H   0001E4H   000084H   BYTE   UNIT     EDATA          ?ED?UART
0001E5H   00023DH   000059H   BYTE   UNIT     EDATA          ?ED?MAIN
00023EH   00026AH   00002DH   BYTE   UNIT     EDATA          ?ED?KEY
00026BH   00026EH   000004H   BYTE   UNIT     EDATA          ?ED?OLED_BUFFSHOWNUM02F?OLED
00026FH   00036EH   000100H   BYTE   UNIT     EDATA          ?STACK
00036FH   00FFFFH   00FC91H   ---    ---      **GAP**
010000H   0103FFH   000400H   BYTE   INSEG    XDATA          ?XD?OLED
010400H   010409H   00000AH   BYTE   UNIT     XDATA          ?XD?OLED_BUFFSHOWNUM?OLED
01040AH   010413H   00000AH   BYTE   UNIT     XDATA          ?XD?OLED_BUFFSHOWNUM02F?OLED
010414H   010416H   000003H   BYTE   UNIT     XDATA          ?XD?OLED_DRAWBMP?OLED
010417H   FEFFFFH   FDFBE9H   ---    ---      **GAP**
FF0000H   FF0002H   000003H   ---    OFFS..   CODE           ?CO?start251?4
FF0003H   FF0003H   000001H   BYTE   INSEG    CODE           ?PR?SPI_DMA_WAIT?SPI
FF0004H   FF0007H   000004H   BYTE   UNIT     CONST          ?CO?PRINTF
FF0008H   FF000AH   000003H   ---    ---      **GAP**
FF000BH   FF000DH   000003H   ---    OFFS..   CODE           ?PR?IV?1
FF000EH   FF0022H   000015H   BYTE   INSEG    CODE           ?PR?UART1_ISR?MAIN
FF0023H   FF0025H   000003H   ---    OFFS..   CODE           ?PR?IV?4
FF0026H   FF0042H   00001DH   BYTE   INSEG    CODE           ?PR?OLED_WR_BYTE?OLED
FF0043H   FF0045H   000003H   ---    OFFS..   CODE           ?PR?IV?8
FF0046H   FF0181H   00013CH   BYTE   INSEG    CODE           ?PR?KEY_SCANSINGLE?KEY
FF0182H   FF018AH   000009H   BYTE   INSEG    CODE           ?PR?UART1_SENDBYTE?UART
FF018BH   FF018DH   000003H   ---    OFFS..   CODE           ?CO?isr?1
FF018EH   FF0E35H   000CA8H   BYTE   UNIT     CODE           ?CO?OLED
FF0E36H   FF1A35H   000C00H   BYTE   UNIT     CODE           ?CO?MAIN
FF1A36H   FF2262H   00082DH   BYTE   UNIT     CODE           ?C?LIB_CODE
FF2263H   FF2502H   0002A0H   BYTE   INSEG    CODE           ?PR?PROCESSFRAME?RS485
FF2503H   FF279BH   000299H   BYTE   INSEG    CODE           ?PR?OLED_UPDATE?MAIN
FF279CH   FF2980H   0001E5H   BYTE   INSEG    CODE           ?PR?_M?MAIN
FF2981H   FF2ADAH   00015AH   BYTE   INSEG    CODE           ?PR?KEY_HANDLEEVENT?KEY
FF2ADBH   FF2C2EH   000154H   BYTE   INSEG    CODE           ?PR?MOTOR_CONTROLUPDATE?MAIN
FF2C2FH   FF2D5EH   000130H   BYTE   INSEG    CODE           ?PR?TIMER0_ISR?MAIN
FF2D5FH   FF2E70H   000112H   BYTE   INSEG    CODE           ?PR?PID_CALC?PID
FF2E71H   FF2F73H   000103H   BYTE   INSEG    CODE           ?PR?OLED_BUFFSHOWCIRCLE?OLED
L251 LINKER/LOCATER V4.66.93.0                                                        03/20/2026  13:53:16  PAGE 3


FF2F74H   FF3055H   0000E2H   BYTE   INSEG    CODE           ?PR?OLED_INIT?OLED
FF3056H   FF3118H   0000C3H   BYTE   INSEG    CODE           ?PR?OLED_BUFFSHOWLINE?OLED
FF3119H   FF31D6H   0000BEH   BYTE   INSEG    CODE           ?PR?OLED_BUFFSHOWGBK?OLED
FF31D7H   FF328BH   0000B5H   BYTE   INSEG    CODE           ?PR?MODBUS_SYNCREGS?MAIN
FF328CH   FF332CH   0000A1H   BYTE   INSEG    CODE           ?PR?PWM_INIT?TIMER
FF332DH   FF33BEH   000092H   BYTE   INSEG    CODE           ?PR?BUZZER_UPDATE?KEY
FF33BFH   FF3449H   00008BH   BYTE   INSEG    CODE           ?PR?OLED_BUFFSHOWCHAR?OLED
FF344AH   FF34D1H   000088H   BYTE   INSEG    CODE           ?PR?OLED_BUFFSHOWSTRING?OLED
FF34D2H   FF3558H   000087H   BYTE   INSEG    CODE           ?PR?PWMB_ENCODER_INIT?TIMER
FF3559H   FF35DCH   000084H   BYTE   INSEG    CODE           ?PR?OLED_DRAWBMP?OLED
FF35DDH   FF365DH   000081H   BYTE   INSEG    CODE           ?PR?OLED_BUFFSHOWCHAR32?OLED
FF365EH   FF36D9H   00007CH   BYTE   INSEG    CODE           ?PR?KEY_INIT?KEY
FF36DAH   FF3741H   000068H   BYTE   INSEG    CODE           ?PR?KEY_ADJUSTTARGET?KEY
FF3742H   FF37A6H   000065H   BYTE   INSEG    CODE           ?PR?UART2_ISR?MAIN
FF37A7H   FF37FDH   000057H   BYTE   INSEG    CODE           ?PR?OLED_BUFFSHOWBMP?OLED
FF37FEH   FF384CH   00004FH   BYTE   INSEG    CODE           ?PR?OLED_BUFFSHOWNUM02F?OLED
FF384DH   FF389BH   00004FH   BYTE   INSEG    CODE           ?PR?OLED_BUFFSHOWNUM?OLED
FF389CH   FF38E6H   00004BH   BYTE   INSEG    CODE           ?PR?OLED_BUFFSHOW?OLED
FF38E7H   FF392FH   000049H   BYTE   INSEG    CODE           ?PR?OLED_BUFFSHOWPOINT?OLED
FF3930H   FF3942H   000013H   BYTE   UNIT     CODE           ?C_C51STARTUP
FF3943H   FF3948H   000006H   BYTE   UNIT     CODE           ?C_C51STARTUP?1
FF3949H   FF3971H   000029H   BYTE   UNIT     CODE           ?C_C51STARTUP?2
FF3972H   FF3974H   000003H   BYTE   UNIT     CODE           ?C_C51STARTUP?3
FF3975H   FF39B4H   000040H   BYTE   INSEG    CODE           ?PR?SYS_INIT?MAIN
FF39B5H   FF39F4H   000040H   BYTE   INSEG    CODE           ?PR?UART2_SENDBYTE?UART
FF39F5H   FF3A34H   000040H   BYTE   INSEG    CODE           ?PR?BUZZER_PLAYTONE?KEY
FF3A35H   FF3A73H   00003FH   BYTE   INSEG    CODE           ?PR?ENCODER_READ?TIMER
FF3A74H   FF3AAFH   00003CH   BYTE   INSEG    CODE           ?PR?PID_INIT?PID
FF3AB0H   FF3AE9H   00003AH   BYTE   INSEG    CODE           ?PR?CRC16?RS485
FF3AEAH   FF3B20H   000037H   BYTE   INSEG    CODE           ?PR?SENDRESPONSE?RS485
FF3B21H   FF3B54H   000034H   BYTE   INSEG    CODE           ?PR?KEY_ISPRESSED?KEY
FF3B55H   FF3B87H   000033H   BYTE   INSEG    CODE           ?PR?OLED_BUFFSHOWRECTANGLE?OLED
FF3B88H   FF3BB9H   000032H   BYTE   INSEG    CODE           ?PR?CLK_INIT?MAIN
FF3BBAH   FF3BEAH   000031H   BYTE   INSEG    CODE           ?PR?MODBUS_TIMERTICK?RS485
FF3BEBH   FF3C17H   00002DH   BYTE   INSEG    CODE           ?PR?SPI_INIT?SPI
FF3C18H   FF3C41H   00002AH   BYTE   INSEG    CODE           ?PR?UART2_READBYTE?UART
FF3C42H   FF3C6BH   00002AH   BYTE   INSEG    CODE           ?PR?UART2_INIT?UART
FF3C6CH   FF3C94H   000029H   BYTE   INSEG    CODE           ?PR?OLED_SET_POS?OLED
FF3C95H   FF3CBCH   000028H   BYTE   INSEG    CODE           ?PR?MODBUS_RXBYTE?RS485
FF3CBDH   FF3CE1H   000025H   BYTE   INSEG    CODE           ?PR?UART1_INIT?UART
FF3CE2H   FF3D06H   000025H   BYTE   INSEG    CODE           ?PR?PWM_SETDUTY?TIMER
FF3D07H   FF3D29H   000023H   BYTE   INSEG    CODE           ?PR?SPI_TRANSMIT?SPI
FF3D2AH   FF3D4BH   000022H   BYTE   INSEG    CODE           ?PR?PRINTF?UART
FF3D4CH   FF3D6CH   000021H   BYTE   INSEG    CODE           ?PR?KEY_SCAN?KEY
FF3D6DH   FF3D8CH   000020H   BYTE   INSEG    CODE           ?PR?KEY_CLEAREVENT?KEY
FF3D8DH   FF3DABH   00001FH   BYTE   INSEG    CODE           ?PR?KEY_GETEVENT?KEY
FF3DACH   FF3DC6H   00001BH   BYTE   INSEG    CODE           ?PR?MAIN?MAIN
FF3DC7H   FF3DE1H   00001BH   BYTE   INSEG    CODE           ?PR?OLED_BUFFCLEAR?OLED
FF3DE2H   FF3DFCH   00001BH   BYTE   INSEG    CODE           ?PR?SENDEXCEPTION?RS485
FF3DFDH   FF3E17H   00001BH   BYTE   INSEG    CODE           ?PR?PID_RESET?PID
FF3E18H   FF3E31H   00001AH   BYTE   INSEG    CODE           ?PR?MEMSET?_?MEMSET
FF3E32H   FF3E48H   000017H   BYTE   INSEG    CODE           ?PR?DELAY_MS?OLED
FF3E49H   FF3E5EH   000016H   BYTE   INSEG    CODE           ?PR?UART1_SENDSTR?UART
FF3E5FH   FF3E74H   000016H   BYTE   INSEG    CODE           ?PR?UART2_SENDSTRING?UART
FF3E75H   FF3E89H   000015H   BYTE   INSEG    CODE           ?PR?OLED_DISPLAYON?OLED
FF3E8AH   FF3E9EH   000015H   BYTE   INSEG    CODE           ?PR?OLED_DISPLAYOFF?OLED
FF3E9FH   FF3EB3H   000015H   BYTE   INSEG    CODE           ?PR?TIMER0_INIT?TIMER
FF3EB4H   FF3EC7H   000014H   BYTE   INSEG    CODE           ?PR?SPI_WRITEBYTE?SPI
FF3EC8H   FF3EDBH   000014H   BYTE   INSEG    CODE           ?PR?PWM_OUTPUTENABLE?TIMER
FF3EDCH   FF3EEFH   000014H   BYTE   INSEG    CODE           ?PR?MODBUS_POLL?RS485
FF3EF0H   FF3F02H   000013H   BYTE   INSEG    CODE           ?PR?PWM_OUTPUTDISABLE?TIMER
FF3F03H   FF3F14H   000012H   BYTE   INSEG    CODE           ?PR?MODBUS_INIT?RS485
FF3F15H   FF3F22H   00000EH   BYTE   INSEG    CODE           ?PR?STRLEN?_?STRLEN
FF3F23H   FF3F2DH   00000BH   BYTE   INSEG    CODE           ?PR?DELAY?OLED
FF3F2EH   FF3F38H   00000BH   BYTE   INSEG    CODE           ?PR?BUZZER_ISBUSY?KEY
L251 LINKER/LOCATER V4.66.93.0                                                        03/20/2026  13:53:16  PAGE 4


FF3F39H   FF40ABH   000173H   BYTE   UNIT     HCONST         ?HC?MAIN
FF40ACH   FF4158H   0000ADH   BYTE   UNIT     HCONST         ?HC?KEY
FF4159H   FF41F7H   00009FH   BYTE   UNIT     HCONST         ?C_INITEDATA
FF41F8H   FF4200H   000009H   BYTE   UNIT     HCONST         ?HC?OLED



OVERLAY MAP OF MODULE:   .\Objects\STC32G_Test_06_SPIĶØŠÅOLEDĘĮ (main)


FUNCTION/MODULE                  EDATA_GROUP
--> CALLED FUNCTION/MODULE       START  STOP
============================================
Timer0_ISR/main                  ----- -----
  +--> Modbus_TimerTick/rs485
  +--> Key_Scan/key
  +--> Buzzer_Update/key
  +--> Encoder_Read/timer
  +--> ?C?SLDIV/?C?SLDIV
  +--> Motor_ControlUpdate/main

Modbus_TimerTick/rs485           ----- -----

Key_Scan/key                     ----- -----
  +--> Key_ScanSingle/key

Key_ScanSingle/key               ----- -----

Buzzer_Update/key                ----- -----

Encoder_Read/timer               ----- -----

?C?SLDIV/?C?SLDIV                ----- -----
  +--> ?C?ULIDIV/?C?ULDIV

?C?ULIDIV/?C?ULDIV               ----- -----

Motor_ControlUpdate/main         00C7H 00CCH
  +--> PWM_SetDuty/timer
  +--> PWM_OutputDisable/timer
  +--> PID_Reset/pid
  +--> PWM_OutputEnable/timer
  +--> PID_Calc/pid

PWM_SetDuty/timer                ----- -----

PWM_OutputDisable/timer          ----- -----

PID_Reset/pid                    ----- -----

PWM_OutputEnable/timer           ----- -----

PID_Calc/pid                     ----- -----
  +--> ?C?SLDIV/?C?SLDIV

*** NEW ROOT *******************

UART1_ISR/main                   ----- -----

*** NEW ROOT *******************

UART2_ISR/main                   ----- -----
  +--> Modbus_RxByte/rs485

Modbus_RxByte/rs485              ----- -----
L251 LINKER/LOCATER V4.66.93.0                                                        03/20/2026  13:53:16  PAGE 5



*** NEW ROOT *******************

?C_C51STARTUP?1                  ----- -----

*** NEW ROOT *******************

?C_C51STARTUP                    ----- -----

*** NEW ROOT *******************

?C_C51STARTUP?3                  ----- -----
  +--> main/main

main/main                        ----- -----
  +--> _m/main
  +--> SPRINTF/SPRINTF
  +--> strlen?_/STRLEN

_m/main                          ----- -----
  +--> Sys_init/main
  +--> CLK_Init/main
  +--> SPI_Init/spi
  +--> UART1_Init/uart
  +--> UART2_Init/uart
  +--> Timer0_Init/timer
  +--> PWM_Init/timer
  +--> PWMB_Encoder_Init/timer
  +--> Modbus_Init/rs485
  +--> PWM_SetDuty/timer
  +--> Key_Init/key
  +--> Buzzer_PlayTone/key
  +--> PID_Init/pid
  +--> Printf/uart
  +--> OLED_Init/oled
  +--> OLED_BuffClear/oled
  +--> OLED_BuffShow/oled
  +--> Modbus_SyncRegs/main
  +--> Modbus_Poll/rs485
  +--> Key_HandleEvent/key
  +--> OLED_Update/main

Sys_init/main                    ----- -----

CLK_Init/main                    ----- -----

SPI_Init/spi                     ----- -----

UART1_Init/uart                  ----- -----

UART2_Init/uart                  ----- -----

Timer0_Init/timer                ----- -----

PWM_Init/timer                   ----- -----

PWMB_Encoder_Init/timer          ----- -----

Modbus_Init/rs485                ----- -----

Key_Init/key                     ----- -----
  +--> Printf/uart

Printf/uart                      00CDH 015CH
  +--> VSPRINTF/VSPRINTF
L251 LINKER/LOCATER V4.66.93.0                                                        03/20/2026  13:53:16  PAGE 6


  +--> UART1_SendStr/uart

VSPRINTF/VSPRINTF                015DH 0160H
  +--> OUT/VSPRINTF

OUT/VSPRINTF                     ----- -----
  +--> PUTCH/VSPRINTF

PUTCH/VSPRINTF                   ----- -----

UART1_SendStr/uart               ----- -----
  +--> UART1_SendByte/uart

UART1_SendByte/uart              ----- -----

Buzzer_PlayTone/key              ----- -----

PID_Init/pid                     00CDH 00D8H
  +--> PID_Reset/pid

OLED_Init/oled                   ----- -----
  +--> SPI_Init/spi
  +--> delay_ms/oled
  +--> OLED_WR_Byte/oled
  +--> OLED_DisplayOn/oled

delay_ms/oled                    ----- -----

OLED_WR_Byte/oled                ----- -----
  +--> SPI_WriteByte/spi
  +--> delay/oled

SPI_WriteByte/spi                ----- -----

delay/oled                       ----- -----

OLED_DisplayOn/oled              ----- -----
  +--> OLED_WR_Byte/oled

OLED_BuffClear/oled              ----- -----

OLED_BuffShow/oled               ----- -----
  +--> SPI_WriteByte/spi
  +--> SPI_Transmit/spi
  +--> SPI_DMA_Wait/spi

SPI_Transmit/spi                 ----- -----

SPI_DMA_Wait/spi                 ----- -----

Modbus_SyncRegs/main             ----- -----

Modbus_Poll/rs485                ----- -----
  +--> ProcessFrame/rs485

ProcessFrame/rs485               00CDH 00CEH
  +--> CRC16/rs485
  +--> SendResponse/rs485
  +--> SendException/rs485

CRC16/rs485                      ----- -----

SendResponse/rs485               ----- -----
  +--> CRC16/rs485
  +--> UART2_SendByte/uart
L251 LINKER/LOCATER V4.66.93.0                                                        03/20/2026  13:53:16  PAGE 7



UART2_SendByte/uart              ----- -----

SendException/rs485              ----- -----
  +--> SendResponse/rs485

Key_HandleEvent/key              ----- -----
  +--> Key_GetEvent/key
  +--> Buzzer_PlayTone/key
  +--> Printf/uart
  +--> Key_ClearEvent/key
  +--> Key_AdjustTarget/key

Key_GetEvent/key                 ----- -----

Key_ClearEvent/key               ----- -----

Key_AdjustTarget/key             ----- -----
  +--> Printf/uart

OLED_Update/main                 00CDH 00DDH
  +--> OLED_BuffClear/oled
  +--> OLED_BuffShowString/oled
  +--> SPRINTF/SPRINTF
  +--> OLED_BuffShowLine/oled
  +--> OLED_BuffShow/oled

OLED_BuffShowString/oled         00DEH 00E2H
  +--> OLED_BuffShowChar/oled
  +--> OLED_BuffShowGBK/oled

OLED_BuffShowChar/oled           ----- -----

OLED_BuffShowGBK/oled            ----- -----

SPRINTF/SPRINTF                  00DEH 0105H
  +--> OUT/SPRINTF

OUT/SPRINTF                      ----- -----
  +--> PUTCH/SPRINTF

PUTCH/SPRINTF                    ----- -----

OLED_BuffShowLine/oled           00DEH 00DFH
  +--> OLED_BuffShowPoint/oled

OLED_BuffShowPoint/oled          ----- -----

strlen?_/STRLEN                  ----- -----

*** NEW ROOT *******************

?C_C51STARTUP?2                  ----- -----



PUBLIC SYMBOLS OF MODULE:  .\Objects\STC32G_Test_06_SPIĶØŠÅOLEDĘĮ (main)


      VALUE       CLASS    TYPE      PUBLIC SYMBOL NAME
      =================================================
      000000FFH   NUMBER   ---       ?C?CODESEG
      00FF1EBCH   CODE     ---       ?C?FPCONVERT
      00FF2057H   CODE     ---       ?C?FPDIV
      00FF213FH   CODE     ---       ?C?FPGETOPN2
L251 LINKER/LOCATER V4.66.93.0                                                        03/20/2026  13:53:16  PAGE 8


      00FF1FB7H   CODE     ---       ?C?FPMUL
      00FF217CH   CODE     ---       ?C?FPNANRESULT
      00FF2184H   CODE     ---       ?C?FPOVERFLOW
      00FF2158H   CODE     ---       ?C?FPRESULT
      00FF216EH   CODE     ---       ?C?FPRESULT2
      00FF1F74H   CODE     ---       ?C?FPROUND
      00FF2181H   CODE     ---       ?C?FPUNDERFLOW
      00FF2108H   CODE     ---       ?C?FTNPWR
      00FF3949H   CODE     ---       ?C?INITEDATA
      00FF41F6H   HCONST   WORD      ?C?INITEDATA_END
      00FF21D3H   CODE     ---       ?C?LIMUL
      00FF21C2H   CODE     ---       ?C?LMUL
      00FF1A9FH   CODE     ---       ?C?PRNFMT
      00FF2190H   CODE     ---       ?C?SIDIV
      00FF21DCH   CODE     NEAR LAB  ?C?SLDIV
      00FF0000H   CODE     ---       ?C?STARTUP
      00FF2212H   CODE     NEAR LAB  ?C?ULDIV
      00FF2210H   CODE     NEAR LAB  ?C?ULIDIV
      00000001H   NUMBER   ---       ?C?XDATASEG
      00FF0000H   CODE     ---       ?C_STARTUP
      000000C5H   EDATA    ---       ?PID_Init?BYTE
      000000F5H   EDATA    BYTE      ?Printf?BYTE
      00000106H   EDATA    ---       ?sprintf?BYTE
      00000155H   EDATA    ---       ?vsprintf?BYTE
      00FF279CH   CODE     ---       _m
*SFR* 000000E0H   DATA     BYTE      ACC
*SFR* 000000BCH   DATA     BYTE      ADC_CONTR
*SFR* 000000DEH   DATA     BYTE      ADCCFG
      00FF048EH   CODE     ---       Ascll_16
*SFR* 000000EFH   DATA     BYTE      AUXINTIF
*SFR* 0000008EH   DATA     BYTE      AUXR
*SFR* 00000097H   DATA     BYTE      AUXR2
*SFR* 000000F0H   DATA     BYTE      B
      00000020H.2 BIT      BIT       B_Change
*SFR* 00000090H.3 DATA     BIT       BUZZER
      00FF3F2EH   CODE     ---       Buzzer_IsBusy
      00FF39F5H   CODE     ---       Buzzer_PlayTone
      00FF332DH   CODE     ---       Buzzer_Update
*SFR* 000000F1H   DATA     BYTE      CANICR
*SFR* 000000EAH   DATA     BYTE      CKCON
      00FF3B88H   CODE     ---       CLK_Init
*SFR* 000000E6H   DATA     BYTE      CMPCR1
*SFR* 000000E7H   DATA     BYTE      CMPCR2
*SFR* 000000CEH.2 DATA     BIT       CPHA
*SFR* 000000CEH.3 DATA     BIT       CPOL
      00000020H.0 BIT      BIT       debug_flag
      00FF3E32H   CODE     ---       delay_ms
      00000020H.1 BIT      BIT       disp_flag
*SFR* 000000CEH.5 DATA     BIT       DORD
*SFR* 000000A8H.7 DATA     BIT       EA
*SFR* 000000BAH.7 DATA     BIT       EAXFR
      00FF3A35H   CODE     ---       Encoder_Read
*SFR* 000000A8H.4 DATA     BIT       ES
*SFR* 000000A8H.1 DATA     BIT       ET0
      000001E8H   EDATA    BYTE      g_ctrl_mode
      000001F2H   EDATA    INT       g_enc_cnt
      00000200H   EDATA    INT       g_enc_delta
      000001E9H   EDATA    LONG      g_enc_total
      000001EFH   EDATA    BYTE      g_key_adj_target
      000001FEH   EDATA    INT       g_motor_angle
      00000220H   EDATA    INT       g_motor_speed
      00000204H   EDATA    ---       g_pid_angle
      00000222H   EDATA    ---       g_pid_speed
      000001F4H   EDATA    WORD      g_pwm_duty
      000001E5H   EDATA    INT       g_set_angle
L251 LINKER/LOCATER V4.66.93.0                                                        03/20/2026  13:53:16  PAGE 9


      000001EDH   EDATA    INT       g_set_speed
      000001F8H   EDATA    WORD      g_status_flags
      00FF0A7EH   CODE     ---       GBK16
*SFR* 000000C7H   DATA     BYTE      IAP_CONTR
*SFR* 000000A8H   DATA     BYTE      IE
*SFR* 000000AFH   DATA     BYTE      IE2
*SFR* 0000008FH   DATA     BYTE      INTCLKO
*SFR* 000000B8H   DATA     BYTE      IP
*SFR* 000000B5H   DATA     BYTE      IP2
*SFR* 000000B6H   DATA     BYTE      IP2H
*SFR* 000000DFH   DATA     BYTE      IP3
*SFR* 000000EEH   DATA     BYTE      IP3H
*SFR* 000000B7H   DATA     BYTE      IPH
*SFR* 0000009DH   DATA     BYTE      IRCBAND
      00000244H   EDATA    ---       key1
*SFR* 000000C0H.4 DATA     BIT       KEY1_PIN
      00000251H   EDATA    ---       key2
*SFR* 000000C0H.3 DATA     BIT       KEY2_PIN
      0000025EH   EDATA    ---       key3
*SFR* 000000C0H.2 DATA     BIT       KEY3_PIN
      00FF3D6DH   CODE     ---       Key_ClearEvent
      00FF3D8DH   CODE     ---       Key_GetEvent
      00FF2981H   CODE     ---       Key_HandleEvent
      00FF365EH   CODE     ---       Key_Init
      00FF3B21H   CODE     ---       Key_IsPressed
      00FF3D4CH   CODE     ---       Key_Scan
      00FF0E36H   CODE     ---       LCD12864_IMG
      00FF018EH   CODE     ---       lib_num1632
*SFR* 000000F9H   DATA     BYTE      LINICR
      00FF3DACH   CODE     ---       main
      00FF3E18H   CODE     ---       memset?_
      000000A2H   EDATA    BYTE      modbus_coils
      00FF3F03H   CODE     ---       Modbus_Init
      00FF3EDCH   CODE     ---       Modbus_Poll
      000000A4H   EDATA    ---       modbus_regs
      00FF3C95H   CODE     ---       Modbus_RxByte
      00FF3BBAH   CODE     ---       Modbus_TimerTick
      00000202H   EDATA    WORD      ms_tick
*SFR* 000000CEH.4 DATA     BIT       MSTR
      00FF1636H   CODE     ---       OLED12864_IMG
      00FF1236H   CODE     ---       OLED12864_ZWU_LOGO
      00FF3DC7H   CODE     ---       OLED_BuffClear
      00FF389CH   CODE     ---       OLED_BuffShow
      00FF37A7H   CODE     ---       OLED_BuffShowBMP
      00FF33BFH   CODE     ---       OLED_BuffShowChar
      00FF35DDH   CODE     ---       OLED_BuffShowChar32
      00FF2E71H   CODE     ---       OLED_BuffShowCircle
      00FF3119H   CODE     ---       OLED_BuffShowGBK
      00FF3056H   CODE     ---       OLED_BuffShowLine
      00FF384DH   CODE     ---       OLED_BuffShowNum
      00FF37FEH   CODE     ---       OLED_BuffShowNum02F
      00FF38E7H   CODE     ---       OLED_BuffShowPoint
      00FF3B55H   CODE     ---       OLED_BuffShowRectangle
      00FF344AH   CODE     ---       OLED_BuffShowString
*SFR* 000000C0H.5 DATA     BIT       OLED_CS
*SFR* 000000A0H.7 DATA     BIT       OLED_DC
      00FF3E8AH   CODE     ---       OLED_DisplayOff
      00FF3E75H   CODE     ---       OLED_DisplayOn
      00FF3559H   CODE     ---       OLED_DrawBMP
      00FF2F74H   CODE     ---       OLED_Init
*SFR* 000000A0H.6 DATA     BIT       OLED_REST
      00FF3C6CH   CODE     ---       OLED_Set_Pos
      00FF0026H   CODE     ---       OLED_WR_Byte
*SFR* 00000080H   DATA     BYTE      P0
*SFR* 00000094H   DATA     BYTE      P0M0
L251 LINKER/LOCATER V4.66.93.0                                                        03/20/2026  13:53:16  PAGE 10


*SFR* 00000093H   DATA     BYTE      P0M1
*SFR* 00000090H   DATA     BYTE      P1
*SFR* 00000092H   DATA     BYTE      P1M0
*SFR* 00000091H   DATA     BYTE      P1M1
*SFR* 000000A0H   DATA     BYTE      P2
*SFR* 00000096H   DATA     BYTE      P2M0
*SFR* 00000095H   DATA     BYTE      P2M1
*SFR* 000000B0H   DATA     BYTE      P3
*SFR* 000000B2H   DATA     BYTE      P3M0
*SFR* 000000B1H   DATA     BYTE      P3M1
*SFR* 000000C0H   DATA     BYTE      P4
*SFR* 000000B4H   DATA     BYTE      P4M0
*SFR* 000000B3H   DATA     BYTE      P4M1
*SFR* 000000C8H   DATA     BYTE      P5
*SFR* 000000CAH   DATA     BYTE      P5M0
*SFR* 000000C9H   DATA     BYTE      P5M1
*SFR* 000000E8H   DATA     BYTE      P6
*SFR* 000000CCH   DATA     BYTE      P6M0
*SFR* 000000CBH   DATA     BYTE      P6M1
*SFR* 000000F8H   DATA     BYTE      P7
*SFR* 000000E2H   DATA     BYTE      P7M0
*SFR* 000000E1H   DATA     BYTE      P7M1
*SFR* 000000A2H   DATA     BYTE      P_SW1
*SFR* 000000BAH   DATA     BYTE      P_SW2
*SFR* 000000BBH   DATA     BYTE      P_SW3
*SFR* 00000087H   DATA     BYTE      PCON
      00FF2D5FH   CODE     ---       PID_Calc
      00FF3A74H   CODE     ---       PID_Init
      00FF3DFDH   CODE     ---       PID_Reset
      00FF3D2AH   CODE     ---       Printf
*SFR* 000000D0H   DATA     BYTE      PSW
      00FF328CH   CODE     ---       PWM_Init
      00FF3EF0H   CODE     ---       PWM_OutputDisable
      00FF3EC8H   CODE     ---       PWM_OutputEnable
      00FF3CE2H   CODE     ---       PWM_SetDuty
      00FF34D2H   CODE     ---       PWMB_Encoder_Init
*SFR* 00000098H.0 DATA     BIT       RI
*SFR* 000000FFH   DATA     BYTE      RSTCFG
*SFR* 000000BAH.0 DATA     BIT       S2_S
*SFR* 0000009BH   DATA     BYTE      S2BUF
*SFR* 0000009AH   DATA     BYTE      S2CON
*SFR* 000000ACH   DATA     BYTE      S3CON
*SFR* 000000FDH   DATA     BYTE      S4CON
*SFR* 00000099H   DATA     BYTE      SBUF
*SFR* 00000098H   DATA     BYTE      SCON
      00010000H   XDATA    ---       ShowBUFF
*SFR* 000000CEH   DATA     BYTE      SPCTL
*SFR* 000000CFH   DATA     BYTE      SPDAT
*SFR* 000000CEH.6 DATA     BIT       SPEN
      00FF0003H   CODE     ---       SPI_DMA_Wait
      00FF3BEBH   CODE     ---       SPI_Init
*SFR* 000000A0H.3 DATA     BIT       SPI_MOSI
*SFR* 000000A0H.5 DATA     BIT       SPI_SCK
      00FF3D07H   CODE     ---       SPI_Transmit
      00FF3EB4H   CODE     ---       SPI_WriteByte
*SFR* 000000CDH.7 DATA     BIT       SPIF
      00FF1A36H   CODE     NEAR LAB  sprintf
*SFR* 000000CDH   DATA     BYTE      SPSTAT
*SFR* 000000CEH.7 DATA     BIT       SSIG
      00FF3F15H   CODE     ---       strlen?_
      00FF3975H   CODE     ---       Sys_init
*SFR* 000000D6H   DATA     BYTE      T2H
*SFR* 000000D7H   DATA     BYTE      T2L
*SFR* 000000DDH   DATA     BYTE      T4T3M
*SFR* 00000088H   DATA     BYTE      TCON
L251 LINKER/LOCATER V4.66.93.0                                                        03/20/2026  13:53:16  PAGE 11


      000001F6H   EDATA    WORD      test_pwmb
*SFR* 00000088H.5 DATA     BIT       TF0
*SFR* 0000008CH   DATA     BYTE      TH0
*SFR* 0000008DH   DATA     BYTE      TH1
*SFR* 00000098H.1 DATA     BIT       TI
      00FF3E9FH   CODE     ---       Timer0_Init
      00FF2C2FH   CODE     ---       Timer0_ISR
*SFR* 0000008AH   DATA     BYTE      TL0
*SFR* 0000008BH   DATA     BYTE      TL1
*SFR* 00000089H   DATA     BYTE      TMOD
*SFR* 00000088H.4 DATA     BIT       TR0
*SFR* 00000088H.6 DATA     BIT       TR1
      00FF3CBDH   CODE     ---       UART1_Init
      00FF000EH   CODE     ---       UART1_ISR
      00FF0182H   CODE     ---       UART1_SendByte
      00FF3E49H   CODE     ---       UART1_SendStr
      00FF3C42H   CODE     ---       UART2_Init
      00FF3742H   CODE     ---       UART2_ISR
      00FF3C18H   CODE     ---       UART2_ReadByte
      00000165H   EDATA    ---       uart2_rx_buf
      00000161H   EDATA    BYTE      uart2_rx_head
      00000163H   EDATA    BYTE      uart2_rx_tail
      00FF39B5H   CODE     ---       UART2_SendByte
      00FF3E5FH   CODE     ---       UART2_SendString
      000001A5H   EDATA    ---       uart2_tx_buf
      00000020H.3 BIT      BIT       uart2_tx_busy
      00000162H   EDATA    BYTE      uart2_tx_head
      00000164H   EDATA    BYTE      uart2_tx_tail
*SFR* 000000F4H   DATA     BYTE      USBCON
      00FF1A56H   CODE     NEAR LAB  vsprintf
*SFR* 000000CDH.6 DATA     BIT       WCOL
*SFR* 000000C1H   DATA     BYTE      WDT_CONTR
*SFR* 000000E9H   DATA     BYTE      WTST



SYMBOL TABLE OF MODULE:  .\Objects\STC32G_Test_06_SPIĶØŠÅOLEDĘĮ (main)

      VALUE       REP       CLASS    TYPE      SYMBOL NAME
      ====================================================
      ---         MODULE    ---      ---       main
      00FF2C2FH   PUBLIC    CODE     ---       Timer0_ISR
      00FF3DACH   PUBLIC    CODE     ---       main
      00FF000EH   PUBLIC    CODE     ---       UART1_ISR
      00FF3742H   PUBLIC    CODE     ---       UART2_ISR
      00FF279CH   PUBLIC    CODE     ---       _m
      00FF3B88H   PUBLIC    CODE     ---       CLK_Init
      00FF3975H   PUBLIC    CODE     ---       Sys_init
      000001E5H   PUBLIC    EDATA    INT       g_set_angle
      000001E8H   PUBLIC    EDATA    BYTE      g_ctrl_mode
      000001E9H   PUBLIC    EDATA    LONG      g_enc_total
      000001EDH   PUBLIC    EDATA    INT       g_set_speed
      000001EFH   PUBLIC    EDATA    BYTE      g_key_adj_target
      000001F2H   PUBLIC    EDATA    INT       g_enc_cnt
      000001F4H   PUBLIC    EDATA    WORD      g_pwm_duty
      000001F6H   PUBLIC    EDATA    WORD      test_pwmb
      000001F8H   PUBLIC    EDATA    WORD      g_status_flags
      000001FEH   PUBLIC    EDATA    INT       g_motor_angle
      00000200H   PUBLIC    EDATA    INT       g_enc_delta
      00000202H   PUBLIC    EDATA    WORD      ms_tick
      00000204H   PUBLIC    EDATA    ---       g_pid_angle
      00000220H   PUBLIC    EDATA    INT       g_motor_speed
      00000222H   PUBLIC    EDATA    ---       g_pid_speed
      00000020H.0 PUBLIC    BIT      BIT       debug_flag
      00000020H.1 PUBLIC    BIT      BIT       disp_flag
L251 LINKER/LOCATER V4.66.93.0                                                        03/20/2026  13:53:16  PAGE 12


      00000020H.2 PUBLIC    BIT      BIT       B_Change
      00FF0E36H   PUBLIC    CODE     ---       LCD12864_IMG
      00FF1236H   PUBLIC    CODE     ---       OLED12864_ZWU_LOGO
      00FF1636H   PUBLIC    CODE     ---       OLED12864_IMG
      00000094H   SFRSYM    DATA     BYTE      P0M0
      000000D0H   SFRSYM    DATA     BYTE      PSW
      000000BAH.7 SFRSYM    DATA     BIT       EAXFR
      0000009DH   SFRSYM    DATA     BYTE      IRCBAND
      00000097H   SFRSYM    DATA     BYTE      AUXR2
      000000EAH   SFRSYM    DATA     BYTE      CKCON
      000000EFH   SFRSYM    DATA     BYTE      AUXINTIF
      000000FDH   SFRSYM    DATA     BYTE      S4CON
      000000ACH   SFRSYM    DATA     BYTE      S3CON
      0000009AH   SFRSYM    DATA     BYTE      S2CON
      0000009BH   SFRSYM    DATA     BYTE      S2BUF
      000000B7H   SFRSYM    DATA     BYTE      IPH
      000000CDH   SFRSYM    DATA     BYTE      SPSTAT
      000000DDH   SFRSYM    DATA     BYTE      T4T3M
      000000C1H   SFRSYM    DATA     BYTE      WDT_CONTR
      000000E9H   SFRSYM    DATA     BYTE      WTST
      000000DFH   SFRSYM    DATA     BYTE      IP3
      000000F4H   SFRSYM    DATA     BYTE      USBCON
      000000B5H   SFRSYM    DATA     BYTE      IP2
      000000FFH   SFRSYM    DATA     BYTE      RSTCFG
      000000E0H   SFRSYM    DATA     BYTE      ACC
      000000C7H   SFRSYM    DATA     BYTE      IAP_CONTR
      000000F9H   SFRSYM    DATA     BYTE      LINICR
      0000008EH   SFRSYM    DATA     BYTE      AUXR
      000000F0H   SFRSYM    DATA     BYTE      B
      000000AFH   SFRSYM    DATA     BYTE      IE2
      00000088H   SFRSYM    DATA     BYTE      TCON
      00000089H   SFRSYM    DATA     BYTE      TMOD
      00000098H   SFRSYM    DATA     BYTE      SCON
      000000F1H   SFRSYM    DATA     BYTE      CANICR
      00000087H   SFRSYM    DATA     BYTE      PCON
      00000099H   SFRSYM    DATA     BYTE      SBUF
      000000BCH   SFRSYM    DATA     BYTE      ADC_CONTR
      000000E7H   SFRSYM    DATA     BYTE      CMPCR2
      000000E6H   SFRSYM    DATA     BYTE      CMPCR1
      00000098H.1 SFRSYM    DATA     BIT       TI
      00000098H.0 SFRSYM    DATA     BIT       RI
      000000DEH   SFRSYM    DATA     BYTE      ADCCFG
      000000B8H   SFRSYM    DATA     BYTE      IP
      0000008FH   SFRSYM    DATA     BYTE      INTCLKO
      000000EEH   SFRSYM    DATA     BYTE      IP3H
      000000B6H   SFRSYM    DATA     BYTE      IP2H
      000000A8H   SFRSYM    DATA     BYTE      IE
      000000BBH   SFRSYM    DATA     BYTE      P_SW3
      000000BAH   SFRSYM    DATA     BYTE      P_SW2
      000000A2H   SFRSYM    DATA     BYTE      P_SW1
      000000CEH   SFRSYM    DATA     BYTE      SPCTL
      000000F8H   SFRSYM    DATA     BYTE      P7
      000000E1H   SFRSYM    DATA     BYTE      P7M1
      000000E8H   SFRSYM    DATA     BYTE      P6
      000000C8H   SFRSYM    DATA     BYTE      P5
      000000CBH   SFRSYM    DATA     BYTE      P6M1
      000000E2H   SFRSYM    DATA     BYTE      P7M0
      000000C0H   SFRSYM    DATA     BYTE      P4
      000000C9H   SFRSYM    DATA     BYTE      P5M1
      000000CCH   SFRSYM    DATA     BYTE      P6M0
      000000B0H   SFRSYM    DATA     BYTE      P3
      000000B3H   SFRSYM    DATA     BYTE      P4M1
      000000CAH   SFRSYM    DATA     BYTE      P5M0
      000000A0H   SFRSYM    DATA     BYTE      P2
      000000B1H   SFRSYM    DATA     BYTE      P3M1
L251 LINKER/LOCATER V4.66.93.0                                                        03/20/2026  13:53:16  PAGE 13


      000000B4H   SFRSYM    DATA     BYTE      P4M0
      00000090H   SFRSYM    DATA     BYTE      P1
      00000095H   SFRSYM    DATA     BYTE      P2M1
      000000B2H   SFRSYM    DATA     BYTE      P3M0
      00000080H   SFRSYM    DATA     BYTE      P0
      00000091H   SFRSYM    DATA     BYTE      P1M1
      00000096H   SFRSYM    DATA     BYTE      P2M0
      00000092H   SFRSYM    DATA     BYTE      P1M0
      00000093H   SFRSYM    DATA     BYTE      P0M1
      00FF31D7H   SYMBOL    CODE     ---       Modbus_SyncRegs
      00FF2ADBH   SYMBOL    CODE     ---       Motor_ControlUpdate
      00FF2503H   SYMBOL    CODE     ---       OLED_Update
      000001E7H   SYMBOL    EDATA    BYTE      g_speed_idx
      000001F0H   SYMBOL    EDATA    INT       g_enc_last
      000001FAH   SYMBOL    EDATA    LONG      g_speed_acc

      00FF31D7H   BLOCK     CODE     ---       LVL=0
      WR6         REGSYM    ---      INT       user_angle
      00FF321BH   BLOCK     CODE     NEAR LAB  LVL=1
      WR6         REGSYM    ---      INT       user_set
      WR6         REGSYM    ---      INT       internal_set
      ---         BLOCKEND  ---      ---       LVL=1
      00FF31D7H   LINE      CODE     ---       #211
      00FF31D7H   LINE      CODE     ---       #215
      00FF31D7H   LINE      CODE     ---       #216
      00FF31DFH   LINE      CODE     ---       #218
      00FF31E9H   LINE      CODE     ---       #219
      00FF31EDH   LINE      CODE     ---       #221
      00FF31F5H   LINE      CODE     ---       #222
      00FF31FFH   LINE      CODE     ---       #223
      00FF3203H   LINE      CODE     ---       #224
      00FF320BH   LINE      CODE     ---       #225
      00FF3213H   LINE      CODE     ---       #232
      00FF321BH   LINE      CODE     ---       #237
      00FF321BH   LINE      CODE     ---       #238
      00FF321FH   LINE      CODE     ---       #239
      00FF3223H   LINE      CODE     ---       #241
      00FF322DH   LINE      CODE     ---       #242
      00FF3237H   LINE      CODE     ---       #243
      00FF323BH   LINE      CODE     ---       #245
      00FF3243H   LINE      CODE     ---       #251
      00FF324BH   LINE      CODE     ---       #252
      00FF3253H   LINE      CODE     ---       #253
      00FF325BH   LINE      CODE     ---       #254
      00FF3263H   LINE      CODE     ---       #255
      00FF326BH   LINE      CODE     ---       #256
      00FF3273H   LINE      CODE     ---       #259
      00FF327FH   LINE      CODE     ---       #261
      00FF3285H   LINE      CODE     ---       #262
      00FF328BH   LINE      CODE     ---       #263
      ---         BLOCKEND  ---      ---       LVL=0

      00FF2ADBH   BLOCK     CODE     ---       LVL=0
      00FF2ADDH   BLOCK     CODE     NEAR LAB  LVL=1
      000000C7H   SYMBOL    EDATA    LONG      pid_out
      WR6         REGSYM    ---      INT       speed_sp
      DR12        REGSYM    ---      LONG      duty_l
      000000CBH   SYMBOL    EDATA    WORD      pwm_duty
      00FF2B72H   BLOCK     CODE     NEAR LAB  LVL=2
      WR4         REGSYM    ---      INT       angle_err
      ---         BLOCKEND  ---      ---       LVL=2
      ---         BLOCKEND  ---      ---       LVL=1
      00FF2ADBH   LINE      CODE     ---       #266
      00FF2ADDH   LINE      CODE     ---       #267
      00FF2ADDH   LINE      CODE     ---       #271
L251 LINKER/LOCATER V4.66.93.0                                                        03/20/2026  13:53:16  PAGE 14


      00FF2AE5H   LINE      CODE     ---       #274
      00FF2AF1H   LINE      CODE     ---       #276
      00FF2AF4H   LINE      CODE     ---       #277
      00FF2AF7H   LINE      CODE     ---       #278
      00FF2AFFH   LINE      CODE     ---       #279
      00FF2B06H   LINE      CODE     ---       #286
      00FF2B0DH   LINE      CODE     ---       #287
      00FF2B10H   LINE      CODE     ---       #288
      00FF2B10H   LINE      CODE     ---       #291
      00FF2B13H   LINE      CODE     ---       #293
      00FF2B27H   LINE      CODE     ---       #296
      00FF2B27H   LINE      CODE     ---       #297
      00FF2B2FH   LINE      CODE     ---       #300
      00FF2B33H   LINE      CODE     ---       #302
      00FF2B36H   LINE      CODE     ---       #303
      00FF2B36H   LINE      CODE     ---       #315
      00FF2B49H   LINE      CODE     ---       #316
      00FF2B4FH   LINE      CODE     ---       #317
      00FF2B57H   LINE      CODE     ---       #318
      00FF2B61H   LINE      CODE     ---       #319
      00FF2B61H   LINE      CODE     ---       #320
      00FF2B63H   LINE      CODE     ---       #340
      00FF2B63H   LINE      CODE     ---       #345
      00FF2B72H   LINE      CODE     ---       #350
      00FF2B72H   LINE      CODE     ---       #351
      00FF2B7AH   LINE      CODE     ---       #352
      00FF2B86H   LINE      CODE     ---       #353
      00FF2B8CH   LINE      CODE     ---       #354
      00FF2B95H   LINE      CODE     ---       #356
      00FF2BA0H   LINE      CODE     ---       #364
      00FF2BAFH   LINE      CODE     ---       #365
      00FF2BB5H   LINE      CODE     ---       #366
      00FF2BBDH   LINE      CODE     ---       #367
      00FF2BC7H   LINE      CODE     ---       #368
      00FF2BC9H   LINE      CODE     ---       #369
      00FF2BCBH   LINE      CODE     ---       #372
      00FF2BCBH   LINE      CODE     ---       #373
      00FF2BD2H   LINE      CODE     ---       #374
      00FF2BD9H   LINE      CODE     ---       #375
      00FF2BE1H   LINE      CODE     ---       #376
      00FF2BEFH   LINE      CODE     ---       #377
      00FF2BF1H   LINE      CODE     ---       #379
      00FF2BF1H   LINE      CODE     ---       #380
      00FF2BF8H   LINE      CODE     ---       #381
      00FF2BFFH   LINE      CODE     ---       #382
      00FF2BFFH   LINE      CODE     ---       #383
      00FF2BFFH   LINE      CODE     ---       #385
      00FF2C06H   LINE      CODE     ---       #386
      00FF2C0EH   LINE      CODE     ---       #391
      00FF2C18H   LINE      CODE     ---       #392
      00FF2C21H   LINE      CODE     ---       #394
      00FF2C2CH   LINE      CODE     ---       #395
      ---         BLOCKEND  ---      ---       LVL=0

      00FF2503H   BLOCK     CODE     ---       LVL=0
      00FF2505H   BLOCK     CODE     NEAR LAB  LVL=1
      000000CDH   SYMBOL    EDATA    ---       buf
      WR12        REGSYM    ---      INT       spd
      WR12        REGSYM    ---      INT       ang
      WR14        REGSYM    ---      INT       sv
      00FF259DH   BLOCK     CODE     NEAR LAB  LVL=2
      WR6         REGSYM    ---      INT       user_ang
      ---         BLOCKEND  ---      ---       LVL=2
      ---         BLOCKEND  ---      ---       LVL=1
      00FF2503H   LINE      CODE     ---       #407
L251 LINKER/LOCATER V4.66.93.0                                                        03/20/2026  13:53:16  PAGE 15


      00FF2505H   LINE      CODE     ---       #408
      00FF2505H   LINE      CODE     ---       #412
      00FF2509H   LINE      CODE     ---       #413
      00FF2509H   LINE      CODE     ---       #415
      00FF250CH   LINE      CODE     ---       #418
      00FF251CH   LINE      CODE     ---       #419
      00FF2551H   LINE      CODE     ---       #420
      00FF255EH   LINE      CODE     ---       #421
      00FF256FH   LINE      CODE     ---       #422
      00FF257BH   LINE      CODE     ---       #423
      00FF258CH   LINE      CODE     ---       #425
      00FF259DH   LINE      CODE     ---       #428
      00FF259DH   LINE      CODE     ---       #429
      00FF25A5H   LINE      CODE     ---       #430
      00FF25AFH   LINE      CODE     ---       #431
      00FF25B8H   LINE      CODE     ---       #433
      00FF25C9H   LINE      CODE     ---       #434
      00FF25DCH   LINE      CODE     ---       #435
      00FF25EAH   LINE      CODE     ---       #436
      00FF25FCH   LINE      CODE     ---       #439
      00FF260DH   LINE      CODE     ---       #440
      00FF2615H   LINE      CODE     ---       #442
      00FF2619H   LINE      CODE     ---       #443
      00FF264EH   LINE      CODE     ---       #444
      00FF265CH   LINE      CODE     ---       #445
      00FF2669H   LINE      CODE     ---       #446
      00FF266BH   LINE      CODE     ---       #447
      00FF2670H   LINE      CODE     ---       #449
      00FF267BH   LINE      CODE     ---       #450
      00FF268EH   LINE      CODE     ---       #451
      00FF269CH   LINE      CODE     ---       #452
      00FF26A9H   LINE      CODE     ---       #453
      00FF26ABH   LINE      CODE     ---       #456
      00FF26C2H   LINE      CODE     ---       #457
      00FF26D0H   LINE      CODE     ---       #458
      00FF26E3H   LINE      CODE     ---       #459
      00FF26E3H   LINE      CODE     ---       #462
      00FF26E7H   LINE      CODE     ---       #463
      00FF271CH   LINE      CODE     ---       #464
      00FF2736H   LINE      CODE     ---       #465
      00FF2741H   LINE      CODE     ---       #466
      00FF2754H   LINE      CODE     ---       #467
      00FF276FH   LINE      CODE     ---       #470
      00FF277CH   LINE      CODE     ---       #471
      00FF2789H   LINE      CODE     ---       #472
      00FF2796H   LINE      CODE     ---       #474
      00FF2799H   LINE      CODE     ---       #475
      ---         BLOCKEND  ---      ---       LVL=0

      00FF3B88H   BLOCK     CODE     ---       LVL=0
      00FF3B88H   LINE      CODE     ---       #480
      00FF3B88H   LINE      CODE     ---       #482
      00FF3B8BH   LINE      CODE     ---       #483
      00FF3B98H   LINE      CODE     ---       #484
      00FF3BA6H   LINE      CODE     ---       #485
      00FF3BB2H   LINE      CODE     ---       #486
      00FF3BB9H   LINE      CODE     ---       #487
      ---         BLOCKEND  ---      ---       LVL=0

      00FF3975H   BLOCK     CODE     ---       LVL=0
      00FF3975H   LINE      CODE     ---       #489
      00FF3975H   LINE      CODE     ---       #491
      00FF3978H   LINE      CODE     ---       #492
      00FF397BH   LINE      CODE     ---       #493
      00FF397EH   LINE      CODE     ---       #495
L251 LINKER/LOCATER V4.66.93.0                                                        03/20/2026  13:53:16  PAGE 16


      00FF3984H   LINE      CODE     ---       #496
      00FF398AH   LINE      CODE     ---       #497
      00FF3990H   LINE      CODE     ---       #498
      00FF3996H   LINE      CODE     ---       #499
      00FF399CH   LINE      CODE     ---       #500
      00FF39A2H   LINE      CODE     ---       #501
      00FF39A8H   LINE      CODE     ---       #502
      00FF39AEH   LINE      CODE     ---       #504
      00FF39B1H   LINE      CODE     ---       #505
      00FF39B4H   LINE      CODE     ---       #506
      ---         BLOCKEND  ---      ---       LVL=0

      00FF3DACH   BLOCK     CODE     ---       LVL=0
      00FF3DACH   LINE      CODE     ---       #511
      ---         BLOCKEND  ---      ---       LVL=0

      00FF279CH   BLOCK     CODE     ---       LVL=0
      00FF279CH   LINE      CODE     ---       #511
      00FF279CH   LINE      CODE     ---       #513
      00FF279FH   LINE      CODE     ---       #514
      00FF27A2H   LINE      CODE     ---       #515
      00FF27A5H   LINE      CODE     ---       #516
      00FF27A8H   LINE      CODE     ---       #517
      00FF27ABH   LINE      CODE     ---       #518
      00FF27AEH   LINE      CODE     ---       #519
      00FF27B1H   LINE      CODE     ---       #520
      00FF27B4H   LINE      CODE     ---       #521
      00FF27B7H   LINE      CODE     ---       #522
      00FF27BCH   LINE      CODE     ---       #524
      00FF27BFH   LINE      CODE     ---       #525
      00FF27C4H   LINE      CODE     ---       #535
      00FF27EDH   LINE      CODE     ---       #538
      00FF2816H   LINE      CODE     ---       #543
      00FF281EH   LINE      CODE     ---       #546
      00FF2824H   LINE      CODE     ---       #547
      00FF2828H   LINE      CODE     ---       #548
      00FF282CH   LINE      CODE     ---       #549
      00FF2830H   LINE      CODE     ---       #552
      00FF2838H   LINE      CODE     ---       #553
      00FF2840H   LINE      CODE     ---       #554
      00FF2844H   LINE      CODE     ---       #555
      00FF284CH   LINE      CODE     ---       #556
      00FF2854H   LINE      CODE     ---       #557
      00FF2858H   LINE      CODE     ---       #560
      00FF285DH   LINE      CODE     ---       #563
      00FF2868H   LINE      CODE     ---       #564
      00FF2893H   LINE      CODE     ---       #569
      00FF289EH   LINE      CODE     ---       #571
      00FF28B9H   LINE      CODE     ---       #572
      00FF28DAH   LINE      CODE     ---       #574
      00FF28FBH   LINE      CODE     ---       #576
      00FF2906H   LINE      CODE     ---       #577
      00FF2911H   LINE      CODE     ---       #580
      00FF2914H   LINE      CODE     ---       #581
      00FF2917H   LINE      CODE     ---       #582
      00FF291AH   LINE      CODE     ---       #584
      00FF291AH   LINE      CODE     ---       #587
      00FF291DH   LINE      CODE     ---       #590
      00FF2920H   LINE      CODE     ---       #593
      00FF2923H   LINE      CODE     ---       #596
      00FF2926H   LINE      CODE     ---       #598
      00FF2928H   LINE      CODE     ---       #599
      00FF292BH   LINE      CODE     ---       #600
      00FF292BH   LINE      CODE     ---       #616
      00FF292EH   LINE      CODE     ---       #618
L251 LINKER/LOCATER V4.66.93.0                                                        03/20/2026  13:53:16  PAGE 17


      00FF2930H   LINE      CODE     ---       #619
      00FF297FH   LINE      CODE     ---       #627
      ---         BLOCKEND  ---      ---       LVL=0

      00FF000EH   BLOCK     CODE     ---       LVL=0
      00FF0012H   BLOCK     CODE     NEAR LAB  LVL=1
      ---         BLOCKEND  ---      ---       LVL=1
      00FF000EH   LINE      CODE     ---       #634
      00FF0012H   LINE      CODE     ---       #635
      00FF0012H   LINE      CODE     ---       #637
      00FF0015H   LINE      CODE     ---       #639
      00FF0017H   LINE      CODE     ---       #640
      00FF0019H   LINE      CODE     ---       #641
      00FF0019H   LINE      CODE     ---       #642
      00FF001CH   LINE      CODE     ---       #644
      00FF001EH   LINE      CODE     ---       #645
      ---         BLOCKEND  ---      ---       LVL=0

      00FF3742H   BLOCK     CODE     ---       LVL=0
      00FF3742H   LINE      CODE     ---       #651
      00FF3758H   LINE      CODE     ---       #653
      00FF375DH   LINE      CODE     ---       #655
      00FF3760H   LINE      CODE     ---       #656
      00FF3765H   LINE      CODE     ---       #657
      00FF3765H   LINE      CODE     ---       #659
      00FF376AH   LINE      CODE     ---       #661
      00FF376DH   LINE      CODE     ---       #662
      00FF3777H   LINE      CODE     ---       #664
      00FF377FH   LINE      CODE     ---       #665
      00FF378CH   LINE      CODE     ---       #666
      00FF378EH   LINE      CODE     ---       #669
      00FF3790H   LINE      CODE     ---       #670
      00FF3790H   LINE      CODE     ---       #671
      ---         BLOCKEND  ---      ---       LVL=0

      00FF2C2FH   BLOCK     CODE     ---       LVL=0
      00FF2C45H   BLOCK     CODE     NEAR LAB  LVL=1
      WR0         REGSYM    ---      INT       enc_now
      WR2         REGSYM    ---      INT       enc_delta
      00FF2CD6H   BLOCK     CODE     NEAR LAB  LVL=2
      DR4         REGSYM    ---      LONG      rem
      ---         BLOCKEND  ---      ---       LVL=2
      ---         BLOCKEND  ---      ---       LVL=1
      00FF2C2FH   LINE      CODE     ---       #677
      00FF2C45H   LINE      CODE     ---       #678
      00FF2C45H   LINE      CODE     ---       #682
      00FF2C4FH   LINE      CODE     ---       #685
      00FF2C52H   LINE      CODE     ---       #688
      00FF2C55H   LINE      CODE     ---       #691
      00FF2C58H   LINE      CODE     ---       #693
      00FF2C69H   LINE      CODE     ---       #695
      00FF2C6CH   LINE      CODE     ---       #698
      00FF2C72H   LINE      CODE     ---       #699
      00FF2C76H   LINE      CODE     ---       #700
      00FF2C7AH   LINE      CODE     ---       #701
      00FF2C7EH   LINE      CODE     ---       #704
      00FF2C8EH   LINE      CODE     ---       #716
      00FF2C9CH   LINE      CODE     ---       #717
      00FF2CA5H   LINE      CODE     ---       #718
      00FF2CAEH   LINE      CODE     ---       #723
      00FF2CCBH   LINE      CODE     ---       #725
      00FF2CD1H   LINE      CODE     ---       #726
      00FF2CD6H   LINE      CODE     ---       #727
      00FF2CD6H   LINE      CODE     ---       #738
      00FF2CD6H   LINE      CODE     ---       #739
L251 LINKER/LOCATER V4.66.93.0                                                        03/20/2026  13:53:16  PAGE 18


      00FF2CE5H   LINE      CODE     ---       #740
      00FF2CEFH   LINE      CODE     ---       #741
      00FF2D03H   LINE      CODE     ---       #743
      00FF2D15H   LINE      CODE     ---       #747
      00FF2D18H   LINE      CODE     ---       #748
      00FF2D18H   LINE      CODE     ---       #751
      00FF2D26H   LINE      CODE     ---       #753
      00FF2D28H   LINE      CODE     ---       #754
      00FF2D28H   LINE      CODE     ---       #757
      00FF2D36H   LINE      CODE     ---       #759
      00FF2D38H   LINE      CODE     ---       #760
      00FF2D38H   LINE      CODE     ---       #762
      00FF2D48H   LINE      CODE     ---       #763
      ---         BLOCKEND  ---      ---       LVL=0

      ---         MODULE    ---      ---       oled
      00FF3119H   PUBLIC    CODE     ---       OLED_BuffShowGBK
      00FF2E71H   PUBLIC    CODE     ---       OLED_BuffShowCircle
      00FF37FEH   PUBLIC    CODE     ---       OLED_BuffShowNum02F
      00FF37A7H   PUBLIC    CODE     ---       OLED_BuffShowBMP
      00FF35DDH   PUBLIC    CODE     ---       OLED_BuffShowChar32
      00FF2F74H   PUBLIC    CODE     ---       OLED_Init
      00FF3E75H   PUBLIC    CODE     ---       OLED_DisplayOn
      00FF0026H   PUBLIC    CODE     ---       OLED_WR_Byte
      00FF344AH   PUBLIC    CODE     ---       OLED_BuffShowString
      00FF389CH   PUBLIC    CODE     ---       OLED_BuffShow
      00FF33BFH   PUBLIC    CODE     ---       OLED_BuffShowChar
      00FF3056H   PUBLIC    CODE     ---       OLED_BuffShowLine
      00FF38E7H   PUBLIC    CODE     ---       OLED_BuffShowPoint
      00FF3C6CH   PUBLIC    CODE     ---       OLED_Set_Pos
      00FF3B55H   PUBLIC    CODE     ---       OLED_BuffShowRectangle
      00FF3E32H   PUBLIC    CODE     ---       delay_ms
      00FF384DH   PUBLIC    CODE     ---       OLED_BuffShowNum
      00FF3DC7H   PUBLIC    CODE     ---       OLED_BuffClear
      00FF3559H   PUBLIC    CODE     ---       OLED_DrawBMP
      00FF3E8AH   PUBLIC    CODE     ---       OLED_DisplayOff
      00FF018EH   PUBLIC    CODE     ---       lib_num1632
      00FF048EH   PUBLIC    CODE     ---       Ascll_16
      00FF0A7EH   PUBLIC    CODE     ---       GBK16
      00010000H   PUBLIC    XDATA    ---       ShowBUFF
      000000D0H   SFRSYM    DATA     BYTE      PSW
      0000009DH   SFRSYM    DATA     BYTE      IRCBAND
      00000097H   SFRSYM    DATA     BYTE      AUXR2
      000000EFH   SFRSYM    DATA     BYTE      AUXINTIF
      000000FDH   SFRSYM    DATA     BYTE      S4CON
      000000ACH   SFRSYM    DATA     BYTE      S3CON
      0000009AH   SFRSYM    DATA     BYTE      S2CON
      000000B7H   SFRSYM    DATA     BYTE      IPH
      000000CDH   SFRSYM    DATA     BYTE      SPSTAT
      000000DDH   SFRSYM    DATA     BYTE      T4T3M
      000000C1H   SFRSYM    DATA     BYTE      WDT_CONTR
      000000DFH   SFRSYM    DATA     BYTE      IP3
      000000F4H   SFRSYM    DATA     BYTE      USBCON
      000000B5H   SFRSYM    DATA     BYTE      IP2
      000000FFH   SFRSYM    DATA     BYTE      RSTCFG
      000000E0H   SFRSYM    DATA     BYTE      ACC
      000000A0H.6 SFRSYM    DATA     BIT       OLED_REST
      000000C7H   SFRSYM    DATA     BYTE      IAP_CONTR
      000000F9H   SFRSYM    DATA     BYTE      LINICR
      0000008EH   SFRSYM    DATA     BYTE      AUXR
      000000F0H   SFRSYM    DATA     BYTE      B
      000000AFH   SFRSYM    DATA     BYTE      IE2
      00000088H   SFRSYM    DATA     BYTE      TCON
      00000089H   SFRSYM    DATA     BYTE      TMOD
      00000098H   SFRSYM    DATA     BYTE      SCON
L251 LINKER/LOCATER V4.66.93.0                                                        03/20/2026  13:53:16  PAGE 19


      000000F1H   SFRSYM    DATA     BYTE      CANICR
      00000087H   SFRSYM    DATA     BYTE      PCON
      000000BCH   SFRSYM    DATA     BYTE      ADC_CONTR
      000000E7H   SFRSYM    DATA     BYTE      CMPCR2
      000000E6H   SFRSYM    DATA     BYTE      CMPCR1
      000000C0H.5 SFRSYM    DATA     BIT       OLED_CS
      000000DEH   SFRSYM    DATA     BYTE      ADCCFG
      000000B8H   SFRSYM    DATA     BYTE      IP
      0000008FH   SFRSYM    DATA     BYTE      INTCLKO
      000000EEH   SFRSYM    DATA     BYTE      IP3H
      000000B6H   SFRSYM    DATA     BYTE      IP2H
      000000A8H   SFRSYM    DATA     BYTE      IE
      000000BBH   SFRSYM    DATA     BYTE      P_SW3
      000000BAH   SFRSYM    DATA     BYTE      P_SW2
      000000A0H.7 SFRSYM    DATA     BIT       OLED_DC
      000000A2H   SFRSYM    DATA     BYTE      P_SW1
      000000CEH   SFRSYM    DATA     BYTE      SPCTL
      000000F8H   SFRSYM    DATA     BYTE      P7
      000000E8H   SFRSYM    DATA     BYTE      P6
      000000C8H   SFRSYM    DATA     BYTE      P5
      000000C0H   SFRSYM    DATA     BYTE      P4
      000000B0H   SFRSYM    DATA     BYTE      P3
      000000A0H   SFRSYM    DATA     BYTE      P2
      00000090H   SFRSYM    DATA     BYTE      P1
      00000080H   SFRSYM    DATA     BYTE      P0
      00FF3F23H   SYMBOL    CODE     ---       delay

      00FF3F23H   BLOCK     CODE     ---       LVL=0
      WR6         REGSYM    ---      INT       i
      00FF3F23H   LINE      CODE     ---       #28
      00FF3F23H   LINE      CODE     ---       #29
      00FF3F23H   LINE      CODE     ---       #31
      00FF3F2DH   LINE      CODE     ---       #32
      ---         BLOCKEND  ---      ---       LVL=0

      00FF3E32H   BLOCK     CODE     ---       LVL=0
      WR4         REGSYM    ---      WORD      ms
      00FF3E34H   BLOCK     CODE     NEAR LAB  LVL=1
      WR6         REGSYM    ---      WORD      i
      ---         BLOCKEND  ---      ---       LVL=1
      00FF3E32H   LINE      CODE     ---       #34
      00FF3E34H   LINE      CODE     ---       #35
      00FF3E34H   LINE      CODE     ---       #37
      00FF3E34H   LINE      CODE     ---       #38
      00FF3E38H   LINE      CODE     ---       #39
      00FF3E40H   LINE      CODE     ---       #40
      00FF3E48H   LINE      CODE     ---       #41
      ---         BLOCKEND  ---      ---       LVL=0

      00FF0026H   BLOCK     CODE     ---       LVL=0
      R7          REGSYM    ---      BYTE      dat
      R10         REGSYM    ---      BYTE      cmd
      00FF0026H   LINE      CODE     ---       #48
      00FF002AH   LINE      CODE     ---       #50
      00FF002EH   LINE      CODE     ---       #51
      00FF0032H   LINE      CODE     ---       #53
      00FF0034H   LINE      CODE     ---       #55
      00FF0036H   LINE      CODE     ---       #56
      00FF003BH   LINE      CODE     ---       #57
      00FF003EH   LINE      CODE     ---       #58
      00FF0040H   LINE      CODE     ---       #59
      00FF0042H   LINE      CODE     ---       #60
      ---         BLOCKEND  ---      ---       LVL=0

      00FF2F74H   BLOCK     CODE     ---       LVL=0
L251 LINKER/LOCATER V4.66.93.0                                                        03/20/2026  13:53:16  PAGE 20


      00FF2F74H   LINE      CODE     ---       #65
      00FF2F74H   LINE      CODE     ---       #67
      00FF2F77H   LINE      CODE     ---       #68
      00FF2F7EH   LINE      CODE     ---       #69
      00FF2F80H   LINE      CODE     ---       #70
      00FF2F87H   LINE      CODE     ---       #71
      00FF2F89H   LINE      CODE     ---       #72
      00FF2F90H   LINE      CODE     ---       #73
      00FF2F92H   LINE      CODE     ---       #75
      00FF2F99H   LINE      CODE     ---       #76
      00FF2F9FH   LINE      CODE     ---       #77
      00FF2FA6H   LINE      CODE     ---       #78
      00FF2FADH   LINE      CODE     ---       #79
      00FF2FB4H   LINE      CODE     ---       #80
      00FF2FBBH   LINE      CODE     ---       #81
      00FF2FC2H   LINE      CODE     ---       #82
      00FF2FC9H   LINE      CODE     ---       #83
      00FF2FD0H   LINE      CODE     ---       #84
      00FF2FD7H   LINE      CODE     ---       #85
      00FF2FDEH   LINE      CODE     ---       #86
      00FF2FE5H   LINE      CODE     ---       #87
      00FF2FEBH   LINE      CODE     ---       #88
      00FF2FF2H   LINE      CODE     ---       #89
      00FF2FF9H   LINE      CODE     ---       #90
      00FF3000H   LINE      CODE     ---       #91
      00FF3007H   LINE      CODE     ---       #92
      00FF300EH   LINE      CODE     ---       #93
      00FF3015H   LINE      CODE     ---       #94
      00FF301CH   LINE      CODE     ---       #95
      00FF3023H   LINE      CODE     ---       #96
      00FF302AH   LINE      CODE     ---       #97
      00FF3030H   LINE      CODE     ---       #98
      00FF3037H   LINE      CODE     ---       #99
      00FF303EH   LINE      CODE     ---       #100
      00FF3045H   LINE      CODE     ---       #101
      00FF304CH   LINE      CODE     ---       #102
      00FF3053H   LINE      CODE     ---       #104
      ---         BLOCKEND  ---      ---       LVL=0

      00FF3C6CH   BLOCK     CODE     ---       LVL=0
      R15         REGSYM    ---      BYTE      x
      R10         REGSYM    ---      BYTE      y
      00FF3C6CH   LINE      CODE     ---       #110
      00FF3C70H   LINE      CODE     ---       #112
      00FF3C79H   LINE      CODE     ---       #113
      00FF3C87H   LINE      CODE     ---       #114
      00FF3C92H   LINE      CODE     ---       #115
      ---         BLOCKEND  ---      ---       LVL=0

      00FF389CH   BLOCK     CODE     ---       LVL=0
      00FF38A0H   BLOCK     CODE     NEAR LAB  LVL=1
      R15         REGSYM    ---      BYTE      i
      REG=6       REGSYM    ---      ---       row
      ---         BLOCKEND  ---      ---       LVL=1
      00FF389CH   LINE      CODE     ---       #133
      00FF38A0H   LINE      CODE     ---       #134
      00FF38A0H   LINE      CODE     ---       #138
      00FF38A2H   LINE      CODE     ---       #140
      00FF38ABH   LINE      CODE     ---       #142
      00FF38ADH   LINE      CODE     ---       #143
      00FF38AFH   LINE      CODE     ---       #144
      00FF38B8H   LINE      CODE     ---       #145
      00FF38BCH   LINE      CODE     ---       #146
      00FF38C1H   LINE      CODE     ---       #147
      00FF38C3H   LINE      CODE     ---       #149
L251 LINKER/LOCATER V4.66.93.0                                                        03/20/2026  13:53:16  PAGE 21


      00FF38C5H   LINE      CODE     ---       #150
      00FF38C7H   LINE      CODE     ---       #151
      00FF38C9H   LINE      CODE     ---       #153
      00FF38D6H   LINE      CODE     ---       #154
      00FF38D9H   LINE      CODE     ---       #156
      00FF38DBH   LINE      CODE     ---       #157
      00FF38E2H   LINE      CODE     ---       #158
      ---         BLOCKEND  ---      ---       LVL=0

      00FF3DC7H   BLOCK     CODE     ---       LVL=0
      REG=3       REGSYM    ---      ---       p
      WR4         REGSYM    ---      WORD      n
      00FF3DC7H   LINE      CODE     ---       #164
      00FF3DC7H   LINE      CODE     ---       #165
      00FF3DC7H   LINE      CODE     ---       #166
      00FF3DCBH   LINE      CODE     ---       #168
      00FF3DCDH   LINE      CODE     ---       #169
      00FF3DE1H   LINE      CODE     ---       #170
      ---         BLOCKEND  ---      ---       LVL=0

      00FF3E75H   BLOCK     CODE     ---       LVL=0
      00FF3E75H   LINE      CODE     ---       #172
      00FF3E75H   LINE      CODE     ---       #174
      00FF3E7CH   LINE      CODE     ---       #175
      00FF3E83H   LINE      CODE     ---       #176
      ---         BLOCKEND  ---      ---       LVL=0

      00FF3E8AH   BLOCK     CODE     ---       LVL=0
      00FF3E8AH   LINE      CODE     ---       #179
      00FF3E8AH   LINE      CODE     ---       #181
      00FF3E91H   LINE      CODE     ---       #182
      00FF3E98H   LINE      CODE     ---       #183
      ---         BLOCKEND  ---      ---       LVL=0

      00FF3559H   BLOCK     CODE     ---       LVL=0
      00000014H   SYMBOL    EDATA    BYTE      x0
      00000015H   SYMBOL    EDATA    BYTE      y0
      00000016H   SYMBOL    EDATA    BYTE      x1
      00000017H   SYMBOL    EDATA    BYTE      y1
      REG=3       REGSYM    ---      ---       BMP
      00FF356DH   BLOCK     CODE     NEAR LAB  LVL=1
      00010414H   SYMBOL    XDATA    WORD      j
      00010416H   SYMBOL    XDATA    BYTE      x
      00000018H   SYMBOL    EDATA    BYTE      y
      ---         BLOCKEND  ---      ---       LVL=1
      00FF3559H   LINE      CODE     ---       #186
      00FF356DH   LINE      CODE     ---       #188
      00FF356DH   LINE      CODE     ---       #189
      00FF3575H   LINE      CODE     ---       #191
      00FF357FH   LINE      CODE     ---       #193
      00FF358AH   LINE      CODE     ---       #194
      00FF3591H   LINE      CODE     ---       #195
      00FF35BBH   LINE      CODE     ---       #196
      00FF35DAH   LINE      CODE     ---       #197
      ---         BLOCKEND  ---      ---       LVL=0

      00FF38E7H   BLOCK     CODE     ---       LVL=0
      R2          REGSYM    ---      BYTE      x
      R3          REGSYM    ---      BYTE      y
      00FF38E7H   LINE      CODE     ---       #199
      00FF38EBH   LINE      CODE     ---       #201
      00FF392FH   LINE      CODE     ---       #202
      ---         BLOCKEND  ---      ---       LVL=0

      00FF3056H   BLOCK     CODE     ---       LVL=0
L251 LINKER/LOCATER V4.66.93.0                                                        03/20/2026  13:53:16  PAGE 22


      R14         REGSYM    ---      BYTE      x1
      R15         REGSYM    ---      BYTE      y1
      R12         REGSYM    ---      BYTE      x2
      R13         REGSYM    ---      BYTE      y2
      00FF3060H   BLOCK     CODE     NEAR LAB  LVL=1
      000000DEH   SYMBOL    EDATA    BYTE      x
      000000DFH   SYMBOL    EDATA    BYTE      y
      ---         BLOCKEND  ---      ---       LVL=1
      00FF3056H   LINE      CODE     ---       #204
      00FF3060H   LINE      CODE     ---       #206
      00FF3060H   LINE      CODE     ---       #208
      00FF3078H   LINE      CODE     ---       #209
      00FF307CH   LINE      CODE     ---       #211
      00FF3082H   LINE      CODE     ---       #213
      00FF3086H   LINE      CODE     ---       #214
      00FF30A4H   LINE      CODE     ---       #216
      00FF30C3H   LINE      CODE     ---       #217
      00FF30D2H   LINE      CODE     ---       #218
      00FF30D4H   LINE      CODE     ---       #221
      00FF30F8H   LINE      CODE     ---       #222
      00FF3116H   LINE      CODE     ---       #223
      00FF3116H   LINE      CODE     ---       #224
      ---         BLOCKEND  ---      ---       LVL=0

      00FF3B55H   BLOCK     CODE     ---       LVL=0
      R12         REGSYM    ---      BYTE      x1
      R13         REGSYM    ---      BYTE      y1
      R14         REGSYM    ---      BYTE      x2
      R15         REGSYM    ---      BYTE      y2
      00FF3B55H   LINE      CODE     ---       #226
      00FF3B5FH   LINE      CODE     ---       #229
      00FF3B64H   LINE      CODE     ---       #230
      00FF3B6FH   LINE      CODE     ---       #231
      00FF3B7AH   LINE      CODE     ---       #232
      00FF3B85H   LINE      CODE     ---       #233
      ---         BLOCKEND  ---      ---       LVL=0

      00FF2E71H   BLOCK     CODE     ---       LVL=0
      R14         REGSYM    ---      BYTE      x
      R15         REGSYM    ---      BYTE      y
      R10         REGSYM    ---      BYTE      r
      00FF2E79H   BLOCK     CODE     NEAR LAB  LVL=1
      WR12        REGSYM    ---      INT       a
      00000008H   SYMBOL    EDATA    INT       b
      0000000AH   SYMBOL    EDATA    INT       di
      0000000CH   SYMBOL    EDATA    BYTE      x_add_a
      0000000DH   SYMBOL    EDATA    BYTE      x_add_b
      0000000EH   SYMBOL    EDATA    BYTE      x_sub_a
      0000000FH   SYMBOL    EDATA    BYTE      x_sub_b
      00000010H   SYMBOL    EDATA    BYTE      y_add_a
      00000011H   SYMBOL    EDATA    BYTE      y_add_b
      00000012H   SYMBOL    EDATA    BYTE      y_sub_a
      00000013H   SYMBOL    EDATA    BYTE      y_sub_b
      ---         BLOCKEND  ---      ---       LVL=1
      00FF2E71H   LINE      CODE     ---       #235
      00FF2E79H   LINE      CODE     ---       #236
      00FF2E79H   LINE      CODE     ---       #240
      00FF2E8BH   LINE      CODE     ---       #241
      00FF2E8EH   LINE      CODE     ---       #243
      00FF2EB2H   LINE      CODE     ---       #244
      00FF2ED6H   LINE      CODE     ---       #245
      00FF2ED9H   LINE      CODE     ---       #246
      00FF2EE4H   LINE      CODE     ---       #247
      00FF2EEFH   LINE      CODE     ---       #248
      00FF2EFAH   LINE      CODE     ---       #249
L251 LINKER/LOCATER V4.66.93.0                                                        03/20/2026  13:53:16  PAGE 23


      00FF2F05H   LINE      CODE     ---       #250
      00FF2F10H   LINE      CODE     ---       #251
      00FF2F1BH   LINE      CODE     ---       #252
      00FF2F26H   LINE      CODE     ---       #253
      00FF2F28H   LINE      CODE     ---       #254
      00FF2F46H   LINE      CODE     ---       #255
      00FF2F66H   LINE      CODE     ---       #256
      00FF2F71H   LINE      CODE     ---       #257
      ---         BLOCKEND  ---      ---       LVL=0

      00FF33BFH   BLOCK     CODE     ---       LVL=0
      R9          REGSYM    ---      BYTE      x
      R0          REGSYM    ---      BYTE      y
      R1          REGSYM    ---      CHAR      asc
      R8          REGSYM    ---      BYTE      mode
      00FF33C7H   BLOCK     CODE     NEAR LAB  LVL=1
      R7          REGSYM    ---      BYTE      j
      R6          REGSYM    ---      BYTE      k
      ---         BLOCKEND  ---      ---       LVL=1
      00FF33BFH   LINE      CODE     ---       #259
      00FF33C7H   LINE      CODE     ---       #261
      00FF33C7H   LINE      CODE     ---       #263
      00FF33C9H   LINE      CODE     ---       #264
      00FF33CBH   LINE      CODE     ---       #266
      00FF33CFH   LINE      CODE     ---       #267
      00FF33F2H   LINE      CODE     ---       #269
      00FF343CH   LINE      CODE     ---       #270
      00FF3449H   LINE      CODE     ---       #271
      ---         BLOCKEND  ---      ---       LVL=0

      00FF3119H   BLOCK     CODE     ---       LVL=0
      R0          REGSYM    ---      BYTE      x
      R1          REGSYM    ---      BYTE      y
      REG=7       REGSYM    ---      ---       gbk
      R9          REGSYM    ---      BYTE      mode
      00FF3121H   BLOCK     CODE     NEAR LAB  LVL=1
      R8          REGSYM    ---      BYTE      i
      R7          REGSYM    ---      BYTE      j
      R6          REGSYM    ---      BYTE      k
      ---         BLOCKEND  ---      ---       LVL=1
      00FF3119H   LINE      CODE     ---       #273
      00FF3121H   LINE      CODE     ---       #275
      00FF3121H   LINE      CODE     ---       #277
      00FF3123H   LINE      CODE     ---       #279
      00FF3154H   LINE      CODE     ---       #281
      00FF3156H   LINE      CODE     ---       #282
      00FF3158H   LINE      CODE     ---       #284
      00FF315CH   LINE      CODE     ---       #285
      00FF317AH   LINE      CODE     ---       #287
      00FF31BFH   LINE      CODE     ---       #288
      00FF31CBH   LINE      CODE     ---       #289
      00FF31CCH   LINE      CODE     ---       #290
      00FF31D6H   LINE      CODE     ---       #292
      ---         BLOCKEND  ---      ---       LVL=0

      00FF344AH   BLOCK     CODE     ---       LVL=0
      000000DEH   SYMBOL    EDATA    BYTE      x
      000000DFH   SYMBOL    EDATA    BYTE      y
      REG=3       REGSYM    ---      ---       s
      000000E0H   SYMBOL    EDATA    BYTE      mode
      00FF345AH   BLOCK     CODE     NEAR LAB  LVL=1
      000000E1H   SYMBOL    EDATA    ---       s_num
      ---         BLOCKEND  ---      ---       LVL=1
      00FF344AH   LINE      CODE     ---       #294
      00FF345AH   LINE      CODE     ---       #296
L251 LINKER/LOCATER V4.66.93.0                                                        03/20/2026  13:53:16  PAGE 24


      00FF345AH   LINE      CODE     ---       #298
      00FF345CH   LINE      CODE     ---       #300
      00FF3464H   LINE      CODE     ---       #302
      00FF3476H   LINE      CODE     ---       #303
      00FF3482H   LINE      CODE     ---       #304
      00FF3484H   LINE      CODE     ---       #307
      00FF3493H   LINE      CODE     ---       #308
      00FF34A6H   LINE      CODE     ---       #309
      00FF34B2H   LINE      CODE     ---       #310
      00FF34B2H   LINE      CODE     ---       #311
      00FF34CFH   LINE      CODE     ---       #313
      ---         BLOCKEND  ---      ---       LVL=0

      00FF384DH   BLOCK     CODE     ---       LVL=0
      R13         REGSYM    ---      BYTE      x
      R14         REGSYM    ---      BYTE      y
      00000019H   SYMBOL    EDATA    LONG      num
      R15         REGSYM    ---      BYTE      mode
      00FF385BH   BLOCK     CODE     NEAR LAB  LVL=1
      00010400H   SYMBOL    XDATA    ---       str
      ---         BLOCKEND  ---      ---       LVL=1
      00FF384DH   LINE      CODE     ---       #315
      00FF385BH   LINE      CODE     ---       #317
      00FF385BH   LINE      CODE     ---       #319
      00FF386BH   LINE      CODE     ---       #320
      00FF3886H   LINE      CODE     ---       #321
      00FF3897H   LINE      CODE     ---       #322
      ---         BLOCKEND  ---      ---       LVL=0

      00FF37FEH   BLOCK     CODE     ---       LVL=0
      R13         REGSYM    ---      BYTE      x
      R14         REGSYM    ---      BYTE      y
      0000026BH   SYMBOL    EDATA    FLOAT     num
      R15         REGSYM    ---      BYTE      mode
      00FF380CH   BLOCK     CODE     NEAR LAB  LVL=1
      0001040AH   SYMBOL    XDATA    ---       str
      ---         BLOCKEND  ---      ---       LVL=1
      00FF37FEH   LINE      CODE     ---       #324
      00FF380CH   LINE      CODE     ---       #326
      00FF380CH   LINE      CODE     ---       #328
      00FF381CH   LINE      CODE     ---       #329
      00FF3837H   LINE      CODE     ---       #330
      00FF3848H   LINE      CODE     ---       #331
      ---         BLOCKEND  ---      ---       LVL=0

      00FF35DDH   BLOCK     CODE     ---       LVL=0
      R9          REGSYM    ---      BYTE      x
      R0          REGSYM    ---      BYTE      y
      R1          REGSYM    ---      BYTE      num
      R8          REGSYM    ---      BYTE      mode
      00FF35E5H   BLOCK     CODE     NEAR LAB  LVL=1
      R7          REGSYM    ---      BYTE      j
      R6          REGSYM    ---      BYTE      k
      ---         BLOCKEND  ---      ---       LVL=1
      00FF35DDH   LINE      CODE     ---       #333
      00FF35E5H   LINE      CODE     ---       #335
      00FF35E5H   LINE      CODE     ---       #337
      00FF35E7H   LINE      CODE     ---       #338
      00FF35E9H   LINE      CODE     ---       #340
      00FF35EDH   LINE      CODE     ---       #341
      00FF360BH   LINE      CODE     ---       #343
      00FF3650H   LINE      CODE     ---       #344
      00FF365DH   LINE      CODE     ---       #345
      ---         BLOCKEND  ---      ---       LVL=0

L251 LINKER/LOCATER V4.66.93.0                                                        03/20/2026  13:53:16  PAGE 25


      00FF37A7H   BLOCK     CODE     ---       LVL=0
      R15         REGSYM    ---      BYTE      x0
      R8          REGSYM    ---      BYTE      y0
      R9          REGSYM    ---      BYTE      x1
      R14         REGSYM    ---      BYTE      y1
      REG=7       REGSYM    ---      ---       BMP
      00FF37B3H   BLOCK     CODE     NEAR LAB  LVL=1
      WR6         REGSYM    ---      WORD      num
      R5          REGSYM    ---      BYTE      k
      R10         REGSYM    ---      BYTE      j
      ---         BLOCKEND  ---      ---       LVL=1
      00FF37A7H   LINE      CODE     ---       #347
      00FF37B3H   LINE      CODE     ---       #349
      00FF37B3H   LINE      CODE     ---       #350
      00FF37B5H   LINE      CODE     ---       #352
      00FF37B9H   LINE      CODE     ---       #353
      00FF37BDH   LINE      CODE     ---       #354
      00FF37FBH   LINE      CODE     ---       #355
      ---         BLOCKEND  ---      ---       LVL=0

      ---         MODULE    ---      ---       spi
      00FF0003H   PUBLIC    CODE     ---       SPI_DMA_Wait
      00FF3D07H   PUBLIC    CODE     ---       SPI_Transmit
      00FF3BEBH   PUBLIC    CODE     ---       SPI_Init
      00FF3EB4H   PUBLIC    CODE     ---       SPI_WriteByte
      000000CFH   SFRSYM    DATA     BYTE      SPDAT
      000000D0H   SFRSYM    DATA     BYTE      PSW
      0000009DH   SFRSYM    DATA     BYTE      IRCBAND
      00000097H   SFRSYM    DATA     BYTE      AUXR2
      000000EFH   SFRSYM    DATA     BYTE      AUXINTIF
      000000FDH   SFRSYM    DATA     BYTE      S4CON
      000000ACH   SFRSYM    DATA     BYTE      S3CON
      0000009AH   SFRSYM    DATA     BYTE      S2CON
      000000B7H   SFRSYM    DATA     BYTE      IPH
      000000CDH   SFRSYM    DATA     BYTE      SPSTAT
      000000DDH   SFRSYM    DATA     BYTE      T4T3M
      000000C1H   SFRSYM    DATA     BYTE      WDT_CONTR
      000000DFH   SFRSYM    DATA     BYTE      IP3
      000000F4H   SFRSYM    DATA     BYTE      USBCON
      000000B5H   SFRSYM    DATA     BYTE      IP2
      000000FFH   SFRSYM    DATA     BYTE      RSTCFG
      000000CEH.4 SFRSYM    DATA     BIT       MSTR
      000000E0H   SFRSYM    DATA     BYTE      ACC
      000000C7H   SFRSYM    DATA     BYTE      IAP_CONTR
      000000F9H   SFRSYM    DATA     BYTE      LINICR
      0000008EH   SFRSYM    DATA     BYTE      AUXR
      000000F0H   SFRSYM    DATA     BYTE      B
      000000AFH   SFRSYM    DATA     BYTE      IE2
      000000CEH.7 SFRSYM    DATA     BIT       SSIG
      000000CEH.6 SFRSYM    DATA     BIT       SPEN
      000000CDH.6 SFRSYM    DATA     BIT       WCOL
      00000088H   SFRSYM    DATA     BYTE      TCON
      00000089H   SFRSYM    DATA     BYTE      TMOD
      00000098H   SFRSYM    DATA     BYTE      SCON
      000000CDH.7 SFRSYM    DATA     BIT       SPIF
      000000F1H   SFRSYM    DATA     BYTE      CANICR
      00000087H   SFRSYM    DATA     BYTE      PCON
      000000BCH   SFRSYM    DATA     BYTE      ADC_CONTR
      000000CEH.3 SFRSYM    DATA     BIT       CPOL
      000000A0H.5 SFRSYM    DATA     BIT       SPI_SCK
      000000CEH.5 SFRSYM    DATA     BIT       DORD
      000000E7H   SFRSYM    DATA     BYTE      CMPCR2
      000000E6H   SFRSYM    DATA     BYTE      CMPCR1
      000000CEH.2 SFRSYM    DATA     BIT       CPHA
      000000DEH   SFRSYM    DATA     BYTE      ADCCFG
L251 LINKER/LOCATER V4.66.93.0                                                        03/20/2026  13:53:16  PAGE 26


      000000B8H   SFRSYM    DATA     BYTE      IP
      0000008FH   SFRSYM    DATA     BYTE      INTCLKO
      000000EEH   SFRSYM    DATA     BYTE      IP3H
      000000B6H   SFRSYM    DATA     BYTE      IP2H
      000000A8H   SFRSYM    DATA     BYTE      IE
      000000BBH   SFRSYM    DATA     BYTE      P_SW3
      000000BAH   SFRSYM    DATA     BYTE      P_SW2
      000000A2H   SFRSYM    DATA     BYTE      P_SW1
      000000CEH   SFRSYM    DATA     BYTE      SPCTL
      000000F8H   SFRSYM    DATA     BYTE      P7
      000000A0H.3 SFRSYM    DATA     BIT       SPI_MOSI
      000000E8H   SFRSYM    DATA     BYTE      P6
      000000C8H   SFRSYM    DATA     BYTE      P5
      000000C0H   SFRSYM    DATA     BYTE      P4
      000000B0H   SFRSYM    DATA     BYTE      P3
      000000A0H   SFRSYM    DATA     BYTE      P2
      00000090H   SFRSYM    DATA     BYTE      P1
      00000080H   SFRSYM    DATA     BYTE      P0

      00FF3BEBH   BLOCK     CODE     ---       LVL=0
      00FF3BEBH   LINE      CODE     ---       #26
      00FF3BEBH   LINE      CODE     ---       #29
      00FF3BF3H   LINE      CODE     ---       #30
      00FF3BF6H   LINE      CODE     ---       #31
      00FF3BF9H   LINE      CODE     ---       #32
      00FF3BFCH   LINE      CODE     ---       #33
      00FF3BFFH   LINE      CODE     ---       #34
      00FF3C02H   LINE      CODE     ---       #35
      00FF3C05H   LINE      CODE     ---       #36
      00FF3C0DH   LINE      CODE     ---       #37
      00FF3C0FH   LINE      CODE     ---       #38
      00FF3C11H   LINE      CODE     ---       #39
      00FF3C14H   LINE      CODE     ---       #40
      00FF3C17H   LINE      CODE     ---       #62
      ---         BLOCKEND  ---      ---       LVL=0

      00FF3EB4H   BLOCK     CODE     ---       LVL=0
      R11         REGSYM    ---      BYTE      dat
      00FF3EB4H   LINE      CODE     ---       #67
      00FF3EB4H   LINE      CODE     ---       #69
      00FF3EB7H   LINE      CODE     ---       #70
      00FF3EBEH   LINE      CODE     ---       #71
      00FF3EC1H   LINE      CODE     ---       #72
      00FF3EC4H   LINE      CODE     ---       #73
      00FF3EC7H   LINE      CODE     ---       #74
      ---         BLOCKEND  ---      ---       LVL=0

      00FF3D07H   BLOCK     CODE     ---       LVL=0
      REG=0       REGSYM    ---      ---       buf
      WR8         REGSYM    ---      WORD      len
      00FF3D09H   BLOCK     CODE     NEAR LAB  LVL=1
      WR6         REGSYM    ---      WORD      i
      ---         BLOCKEND  ---      ---       LVL=1
      00FF3D07H   LINE      CODE     ---       #79
      00FF3D09H   LINE      CODE     ---       #80
      00FF3D09H   LINE      CODE     ---       #96
      00FF3D0DH   LINE      CODE     ---       #98
      00FF3D16H   LINE      CODE     ---       #99
      00FF3D1DH   LINE      CODE     ---       #100
      00FF3D20H   LINE      CODE     ---       #101
      00FF3D23H   LINE      CODE     ---       #102
      00FF3D29H   LINE      CODE     ---       #104
      ---         BLOCKEND  ---      ---       LVL=0

      00FF0003H   BLOCK     CODE     ---       LVL=0
L251 LINKER/LOCATER V4.66.93.0                                                        03/20/2026  13:53:16  PAGE 27


      00FF0003H   LINE      CODE     ---       #109
      00FF0003H   LINE      CODE     ---       #114
      ---         BLOCKEND  ---      ---       LVL=0

      ---         MODULE    ---      ---       uart
      00FF3E49H   PUBLIC    CODE     ---       UART1_SendStr
      00FF3E5FH   PUBLIC    CODE     ---       UART2_SendString
      00FF3C18H   PUBLIC    CODE     ---       UART2_ReadByte
      00FF3CBDH   PUBLIC    CODE     ---       UART1_Init
      00FF3C42H   PUBLIC    CODE     ---       UART2_Init
      00FF0182H   PUBLIC    CODE     ---       UART1_SendByte
      00FF39B5H   PUBLIC    CODE     ---       UART2_SendByte
      00FF3D2AH   PUBLIC    CODE     ---       Printf
      00000161H   PUBLIC    EDATA    BYTE      uart2_rx_head
      00000162H   PUBLIC    EDATA    BYTE      uart2_tx_head
      00000163H   PUBLIC    EDATA    BYTE      uart2_rx_tail
      00000164H   PUBLIC    EDATA    BYTE      uart2_tx_tail
      00000165H   PUBLIC    EDATA    ---       uart2_rx_buf
      000001A5H   PUBLIC    EDATA    ---       uart2_tx_buf
      00000020H.3 PUBLIC    BIT      BIT       uart2_tx_busy
      000000F5H   PUBLIC    EDATA    BYTE      ?Printf?BYTE
      000000D0H   SFRSYM    DATA     BYTE      PSW
      0000009DH   SFRSYM    DATA     BYTE      IRCBAND
      00000097H   SFRSYM    DATA     BYTE      AUXR2
      000000EFH   SFRSYM    DATA     BYTE      AUXINTIF
      000000FDH   SFRSYM    DATA     BYTE      S4CON
      000000ACH   SFRSYM    DATA     BYTE      S3CON
      0000009AH   SFRSYM    DATA     BYTE      S2CON
      0000009BH   SFRSYM    DATA     BYTE      S2BUF
      000000B7H   SFRSYM    DATA     BYTE      IPH
      000000CDH   SFRSYM    DATA     BYTE      SPSTAT
      000000DDH   SFRSYM    DATA     BYTE      T4T3M
      000000C1H   SFRSYM    DATA     BYTE      WDT_CONTR
      00000088H.6 SFRSYM    DATA     BIT       TR1
      000000D7H   SFRSYM    DATA     BYTE      T2L
      0000008BH   SFRSYM    DATA     BYTE      TL1
      000000D6H   SFRSYM    DATA     BYTE      T2H
      0000008DH   SFRSYM    DATA     BYTE      TH1
      000000DFH   SFRSYM    DATA     BYTE      IP3
      000000F4H   SFRSYM    DATA     BYTE      USBCON
      000000B5H   SFRSYM    DATA     BYTE      IP2
      000000FFH   SFRSYM    DATA     BYTE      RSTCFG
      000000E0H   SFRSYM    DATA     BYTE      ACC
      000000C7H   SFRSYM    DATA     BYTE      IAP_CONTR
      000000F9H   SFRSYM    DATA     BYTE      LINICR
      0000008EH   SFRSYM    DATA     BYTE      AUXR
      000000F0H   SFRSYM    DATA     BYTE      B
      000000AFH   SFRSYM    DATA     BYTE      IE2
      000000BAH.0 SFRSYM    DATA     BIT       S2_S
      00000088H   SFRSYM    DATA     BYTE      TCON
      00000089H   SFRSYM    DATA     BYTE      TMOD
      00000098H   SFRSYM    DATA     BYTE      SCON
      000000F1H   SFRSYM    DATA     BYTE      CANICR
      00000087H   SFRSYM    DATA     BYTE      PCON
      00000099H   SFRSYM    DATA     BYTE      SBUF
      000000BCH   SFRSYM    DATA     BYTE      ADC_CONTR
      000000E7H   SFRSYM    DATA     BYTE      CMPCR2
      000000E6H   SFRSYM    DATA     BYTE      CMPCR1
      00000098H.1 SFRSYM    DATA     BIT       TI
      000000DEH   SFRSYM    DATA     BYTE      ADCCFG
      000000B8H   SFRSYM    DATA     BYTE      IP
      000000A8H.4 SFRSYM    DATA     BIT       ES
      0000008FH   SFRSYM    DATA     BYTE      INTCLKO
      000000EEH   SFRSYM    DATA     BYTE      IP3H
      000000B6H   SFRSYM    DATA     BYTE      IP2H
L251 LINKER/LOCATER V4.66.93.0                                                        03/20/2026  13:53:16  PAGE 28


      000000A8H   SFRSYM    DATA     BYTE      IE
      000000BBH   SFRSYM    DATA     BYTE      P_SW3
      000000BAH   SFRSYM    DATA     BYTE      P_SW2
      000000A2H   SFRSYM    DATA     BYTE      P_SW1
      000000CEH   SFRSYM    DATA     BYTE      SPCTL
      000000F8H   SFRSYM    DATA     BYTE      P7
      000000A8H.7 SFRSYM    DATA     BIT       EA
      000000E8H   SFRSYM    DATA     BYTE      P6
      000000C8H   SFRSYM    DATA     BYTE      P5
      000000C0H   SFRSYM    DATA     BYTE      P4
      000000B0H   SFRSYM    DATA     BYTE      P3
      000000B3H   SFRSYM    DATA     BYTE      P4M1
      000000A0H   SFRSYM    DATA     BYTE      P2
      000000B1H   SFRSYM    DATA     BYTE      P3M1
      000000B4H   SFRSYM    DATA     BYTE      P4M0
      00000090H   SFRSYM    DATA     BYTE      P1
      000000B2H   SFRSYM    DATA     BYTE      P3M0
      00000080H   SFRSYM    DATA     BYTE      P0

      00FF3CBDH   BLOCK     CODE     ---       LVL=0
      00FF3CBDH   LINE      CODE     ---       #20
      00FF3CBDH   LINE      CODE     ---       #23
      00FF3CC0H   LINE      CODE     ---       #24
      00FF3CC3H   LINE      CODE     ---       #29
      00FF3CC6H   LINE      CODE     ---       #30
      00FF3CC9H   LINE      CODE     ---       #33
      00FF3CCCH   LINE      CODE     ---       #38
      00FF3CCFH   LINE      CODE     ---       #39
      00FF3CD2H   LINE      CODE     ---       #41
      00FF3CD5H   LINE      CODE     ---       #45
      00FF3CD8H   LINE      CODE     ---       #46
      00FF3CDBH   LINE      CODE     ---       #49
      00FF3CDDH   LINE      CODE     ---       #52
      00FF3CDFH   LINE      CODE     ---       #53
      00FF3CE1H   LINE      CODE     ---       #54
      ---         BLOCKEND  ---      ---       LVL=0

      00FF3C42H   BLOCK     CODE     ---       LVL=0
      00FF3C42H   LINE      CODE     ---       #58
      00FF3C42H   LINE      CODE     ---       #62
      00FF3C45H   LINE      CODE     ---       #63
      00FF3C48H   LINE      CODE     ---       #64
      00FF3C4BH   LINE      CODE     ---       #65
      00FF3C4EH   LINE      CODE     ---       #70
      00FF3C51H   LINE      CODE     ---       #73
      00FF3C54H   LINE      CODE     ---       #76
      00FF3C57H   LINE      CODE     ---       #77
      00FF3C5AH   LINE      CODE     ---       #80
      00FF3C5DH   LINE      CODE     ---       #81
      00FF3C60H   LINE      CODE     ---       #85
      00FF3C63H   LINE      CODE     ---       #87
      00FF3C66H   LINE      CODE     ---       #90
      00FF3C69H   LINE      CODE     ---       #91
      00FF3C6BH   LINE      CODE     ---       #92
      ---         BLOCKEND  ---      ---       LVL=0

      00FF0182H   BLOCK     CODE     ---       LVL=0
      R11         REGSYM    ---      BYTE      dat
      00FF0182H   LINE      CODE     ---       #95
      00FF0182H   LINE      CODE     ---       #97
      00FF0185H   LINE      CODE     ---       #98
      00FF0188H   LINE      CODE     ---       #99
      00FF018AH   LINE      CODE     ---       #100
      ---         BLOCKEND  ---      ---       LVL=0

L251 LINKER/LOCATER V4.66.93.0                                                        03/20/2026  13:53:16  PAGE 29


      00FF3E49H   BLOCK     CODE     ---       LVL=0
      REG=3       REGSYM    ---      ---       str
      00FF3E49H   LINE      CODE     ---       #102
      00FF3E4DH   LINE      CODE     ---       #104
      00FF3E5CH   LINE      CODE     ---       #106
      ---         BLOCKEND  ---      ---       LVL=0

      00FF39B5H   BLOCK     CODE     ---       LVL=0
      R10         REGSYM    ---      BYTE      dat
      00FF39B7H   BLOCK     CODE     NEAR LAB  LVL=1
      R7          REGSYM    ---      BYTE      next
      ---         BLOCKEND  ---      ---       LVL=1
      00FF39B5H   LINE      CODE     ---       #108
      00FF39B7H   LINE      CODE     ---       #109
      00FF39B7H   LINE      CODE     ---       #110
      00FF39CCH   LINE      CODE     ---       #113
      00FF39D4H   LINE      CODE     ---       #114
      00FF39D4H   LINE      CODE     ---       #116
      00FF39D8H   LINE      CODE     ---       #117
      00FF39DCH   LINE      CODE     ---       #120
      00FF39DFH   LINE      CODE     ---       #122
      00FF39E1H   LINE      CODE     ---       #123
      00FF39E9H   LINE      CODE     ---       #124
      00FF39F4H   LINE      CODE     ---       #125
      ---         BLOCKEND  ---      ---       LVL=0

      00FF3E5FH   BLOCK     CODE     ---       LVL=0
      REG=3       REGSYM    ---      ---       str
      00FF3E5FH   LINE      CODE     ---       #128
      00FF3E63H   LINE      CODE     ---       #130
      00FF3E72H   LINE      CODE     ---       #132
      ---         BLOCKEND  ---      ---       LVL=0

      00FF3C18H   BLOCK     CODE     ---       LVL=0
      REG=2       REGSYM    ---      ---       dat
      00FF3C18H   LINE      CODE     ---       #137
      00FF3C1AH   LINE      CODE     ---       #139
      00FF3C24H   LINE      CODE     ---       #140
      00FF3C26H   LINE      CODE     ---       #142
      00FF3C2FH   LINE      CODE     ---       #143
      00FF3C40H   LINE      CODE     ---       #144
      00FF3C41H   LINE      CODE     ---       #145
      ---         BLOCKEND  ---      ---       LVL=0

      00FF3D2AH   BLOCK     CODE     ---       LVL=0
      000000F5H   SYMBOL    EDATA    ---       fmt
      00FF3D2EH   BLOCK     CODE     NEAR LAB  LVL=1
      000000F9H   SYMBOL    EDATA    ---       buf
      REG=1       REGSYM    ---      ---       args
      ---         BLOCKEND  ---      ---       LVL=1
      00FF3D2AH   LINE      CODE     ---       #148
      00FF3D2EH   LINE      CODE     ---       #149
      00FF3D2EH   LINE      CODE     ---       #154
      00FF3D36H   LINE      CODE     ---       #155
      00FF3D45H   LINE      CODE     ---       #158
      ---         BLOCKEND  ---      ---       LVL=0

      ---         MODULE    ---      ---       timer
      00FF3A35H   PUBLIC    CODE     ---       Encoder_Read
      00FF3EF0H   PUBLIC    CODE     ---       PWM_OutputDisable
      00FF3E9FH   PUBLIC    CODE     ---       Timer0_Init
      00FF3CE2H   PUBLIC    CODE     ---       PWM_SetDuty
      00FF3EC8H   PUBLIC    CODE     ---       PWM_OutputEnable
      00FF34D2H   PUBLIC    CODE     ---       PWMB_Encoder_Init
      00FF328CH   PUBLIC    CODE     ---       PWM_Init
L251 LINKER/LOCATER V4.66.93.0                                                        03/20/2026  13:53:16  PAGE 30


      000000D0H   SFRSYM    DATA     BYTE      PSW
      000000BAH.7 SFRSYM    DATA     BIT       EAXFR
      0000009DH   SFRSYM    DATA     BYTE      IRCBAND
      00000097H   SFRSYM    DATA     BYTE      AUXR2
      000000EFH   SFRSYM    DATA     BYTE      AUXINTIF
      000000FDH   SFRSYM    DATA     BYTE      S4CON
      000000ACH   SFRSYM    DATA     BYTE      S3CON
      0000009AH   SFRSYM    DATA     BYTE      S2CON
      000000B7H   SFRSYM    DATA     BYTE      IPH
      000000CDH   SFRSYM    DATA     BYTE      SPSTAT
      000000DDH   SFRSYM    DATA     BYTE      T4T3M
      000000C1H   SFRSYM    DATA     BYTE      WDT_CONTR
      00000088H.4 SFRSYM    DATA     BIT       TR0
      0000008AH   SFRSYM    DATA     BYTE      TL0
      0000008CH   SFRSYM    DATA     BYTE      TH0
      000000DFH   SFRSYM    DATA     BYTE      IP3
      000000F4H   SFRSYM    DATA     BYTE      USBCON
      000000B5H   SFRSYM    DATA     BYTE      IP2
      000000FFH   SFRSYM    DATA     BYTE      RSTCFG
      00000088H.5 SFRSYM    DATA     BIT       TF0
      000000A8H.1 SFRSYM    DATA     BIT       ET0
      000000E0H   SFRSYM    DATA     BYTE      ACC
      000000C7H   SFRSYM    DATA     BYTE      IAP_CONTR
      000000F9H   SFRSYM    DATA     BYTE      LINICR
      0000008EH   SFRSYM    DATA     BYTE      AUXR
      000000F0H   SFRSYM    DATA     BYTE      B
      000000AFH   SFRSYM    DATA     BYTE      IE2
      00000088H   SFRSYM    DATA     BYTE      TCON
      00000089H   SFRSYM    DATA     BYTE      TMOD
      00000098H   SFRSYM    DATA     BYTE      SCON
      000000F1H   SFRSYM    DATA     BYTE      CANICR
      00000087H   SFRSYM    DATA     BYTE      PCON
      000000BCH   SFRSYM    DATA     BYTE      ADC_CONTR
      000000E7H   SFRSYM    DATA     BYTE      CMPCR2
      000000E6H   SFRSYM    DATA     BYTE      CMPCR1
      000000DEH   SFRSYM    DATA     BYTE      ADCCFG
      000000B8H   SFRSYM    DATA     BYTE      IP
      0000008FH   SFRSYM    DATA     BYTE      INTCLKO
      000000EEH   SFRSYM    DATA     BYTE      IP3H
      000000B6H   SFRSYM    DATA     BYTE      IP2H
      000000A8H   SFRSYM    DATA     BYTE      IE
      000000BBH   SFRSYM    DATA     BYTE      P_SW3
      000000BAH   SFRSYM    DATA     BYTE      P_SW2
      000000A2H   SFRSYM    DATA     BYTE      P_SW1
      000000CEH   SFRSYM    DATA     BYTE      SPCTL
      000000F8H   SFRSYM    DATA     BYTE      P7
      000000A8H.7 SFRSYM    DATA     BIT       EA
      000000E8H   SFRSYM    DATA     BYTE      P6
      000000C8H   SFRSYM    DATA     BYTE      P5
      000000C0H   SFRSYM    DATA     BYTE      P4
      000000B0H   SFRSYM    DATA     BYTE      P3
      000000A0H   SFRSYM    DATA     BYTE      P2
      00000090H   SFRSYM    DATA     BYTE      P1
      00000080H   SFRSYM    DATA     BYTE      P0
      00000091H   SFRSYM    DATA     BYTE      P1M1
      00000092H   SFRSYM    DATA     BYTE      P1M0

      00FF3E9FH   BLOCK     CODE     ---       LVL=0
      00FF3E9FH   LINE      CODE     ---       #4
      00FF3E9FH   LINE      CODE     ---       #8
      00FF3EA2H   LINE      CODE     ---       #11
      00FF3EA5H   LINE      CODE     ---       #14
      00FF3EA8H   LINE      CODE     ---       #15
      00FF3EABH   LINE      CODE     ---       #18
      00FF3EADH   LINE      CODE     ---       #19
L251 LINKER/LOCATER V4.66.93.0                                                        03/20/2026  13:53:16  PAGE 31


      00FF3EAFH   LINE      CODE     ---       #20
      00FF3EB1H   LINE      CODE     ---       #23
      00FF3EB3H   LINE      CODE     ---       #24
      ---         BLOCKEND  ---      ---       LVL=0

      00FF328CH   BLOCK     CODE     ---       LVL=0
      00FF328CH   LINE      CODE     ---       #27
      00FF328CH   LINE      CODE     ---       #29
      00FF328FH   LINE      CODE     ---       #32
      00FF3292H   LINE      CODE     ---       #33
      00FF3295H   LINE      CODE     ---       #37
      00FF32A5H   LINE      CODE     ---       #46
      00FF32AEH   LINE      CODE     ---       #50
      00FF32BAH   LINE      CODE     ---       #53
      00FF32C1H   LINE      CODE     ---       #54
      00FF32C8H   LINE      CODE     ---       #58
      00FF32D1H   LINE      CODE     ---       #59
      00FF32DAH   LINE      CODE     ---       #66
      00FF32E3H   LINE      CODE     ---       #69
      00FF32ECH   LINE      CODE     ---       #70
      00FF32F5H   LINE      CODE     ---       #77
      00FF32FEH   LINE      CODE     ---       #84
      00FF3307H   LINE      CODE     ---       #89
      00FF3310H   LINE      CODE     ---       #94
      00FF3318H   LINE      CODE     ---       #98
      00FF3320H   LINE      CODE     ---       #101
      00FF3329H   LINE      CODE     ---       #103
      00FF332CH   LINE      CODE     ---       #104
      ---         BLOCKEND  ---      ---       LVL=0

      00FF3CE2H   BLOCK     CODE     ---       LVL=0
      WR0         REGSYM    ---      WORD      duty
      00FF3CE2H   LINE      CODE     ---       #110
      00FF3CE4H   LINE      CODE     ---       #112
      00FF3CEEH   LINE      CODE     ---       #113
      00FF3CF1H   LINE      CODE     ---       #114
      00FF3CFCH   LINE      CODE     ---       #115
      00FF3D03H   LINE      CODE     ---       #116
      00FF3D06H   LINE      CODE     ---       #117
      ---         BLOCKEND  ---      ---       LVL=0

      00FF3EC8H   BLOCK     CODE     ---       LVL=0
      00FF3EC8H   LINE      CODE     ---       #120
      00FF3EC8H   LINE      CODE     ---       #122
      00FF3ECBH   LINE      CODE     ---       #123
      00FF3ED8H   LINE      CODE     ---       #124
      00FF3EDBH   LINE      CODE     ---       #125
      ---         BLOCKEND  ---      ---       LVL=0

      00FF3EF0H   BLOCK     CODE     ---       LVL=0
      00FF3EF0H   LINE      CODE     ---       #128
      00FF3EF0H   LINE      CODE     ---       #130
      00FF3EF3H   LINE      CODE     ---       #131
      00FF3EFFH   LINE      CODE     ---       #132
      00FF3F02H   LINE      CODE     ---       #133
      ---         BLOCKEND  ---      ---       LVL=0

      00FF34D2H   BLOCK     CODE     ---       LVL=0
      00FF34D2H   LINE      CODE     ---       #135
      00FF34D2H   LINE      CODE     ---       #137
      00FF34D5H   LINE      CODE     ---       #138
      00FF34D8H   LINE      CODE     ---       #140
      00FF34E4H   LINE      CODE     ---       #141
      00FF34EBH   LINE      CODE     ---       #144
      00FF34F2H   LINE      CODE     ---       #145
L251 LINKER/LOCATER V4.66.93.0                                                        03/20/2026  13:53:16  PAGE 32


      00FF34F9H   LINE      CODE     ---       #148
      00FF3502H   LINE      CODE     ---       #149
      00FF3509H   LINE      CODE     ---       #152
      00FF3511H   LINE      CODE     ---       #153
      00FF3518H   LINE      CODE     ---       #159
      00FF3521H   LINE      CODE     ---       #163
      00FF3528H   LINE      CODE     ---       #167
      00FF3531H   LINE      CODE     ---       #174
      00FF353AH   LINE      CODE     ---       #175
      00FF3541H   LINE      CODE     ---       #178
      00FF3549H   LINE      CODE     ---       #181
      00FF3552H   LINE      CODE     ---       #183
      00FF3555H   LINE      CODE     ---       #184
      00FF3558H   LINE      CODE     ---       #185
      ---         BLOCKEND  ---      ---       LVL=0

      00FF3A35H   BLOCK     CODE     ---       LVL=0
      WR10        REGSYM    ---      INT       cnt
      WR8         REGSYM    ---      WORD      raw
      00FF3A35H   LINE      CODE     ---       #187
      00FF3A35H   LINE      CODE     ---       #188
      00FF3A35H   LINE      CODE     ---       #192
      00FF3A38H   LINE      CODE     ---       #193
      00FF3A47H   LINE      CODE     ---       #194
      00FF3A52H   LINE      CODE     ---       #195
      00FF3A55H   LINE      CODE     ---       #199
      00FF3A5DH   LINE      CODE     ---       #200
      00FF3A6DH   LINE      CODE     ---       #201
      00FF3A6FH   LINE      CODE     ---       #202
      00FF3A71H   LINE      CODE     ---       #203
      00FF3A71H   LINE      CODE     ---       #205
      00FF3A73H   LINE      CODE     ---       #206
      ---         BLOCKEND  ---      ---       LVL=0

      ---         MODULE    ---      ---       rs485
      00FF3C95H   PUBLIC    CODE     ---       Modbus_RxByte
      00FF3BBAH   PUBLIC    CODE     ---       Modbus_TimerTick
      00FF3F03H   PUBLIC    CODE     ---       Modbus_Init
      00FF3EDCH   PUBLIC    CODE     ---       Modbus_Poll
      000000A2H   PUBLIC    EDATA    BYTE      modbus_coils
      000000A4H   PUBLIC    EDATA    ---       modbus_regs
      000000D0H   SFRSYM    DATA     BYTE      PSW
      0000009DH   SFRSYM    DATA     BYTE      IRCBAND
      00000097H   SFRSYM    DATA     BYTE      AUXR2
      000000EFH   SFRSYM    DATA     BYTE      AUXINTIF
      000000FDH   SFRSYM    DATA     BYTE      S4CON
      000000ACH   SFRSYM    DATA     BYTE      S3CON
      0000009AH   SFRSYM    DATA     BYTE      S2CON
      000000B7H   SFRSYM    DATA     BYTE      IPH
      000000CDH   SFRSYM    DATA     BYTE      SPSTAT
      000000DDH   SFRSYM    DATA     BYTE      T4T3M
      000000C1H   SFRSYM    DATA     BYTE      WDT_CONTR
      000000DFH   SFRSYM    DATA     BYTE      IP3
      000000F4H   SFRSYM    DATA     BYTE      USBCON
      000000B5H   SFRSYM    DATA     BYTE      IP2
      000000FFH   SFRSYM    DATA     BYTE      RSTCFG
      000000E0H   SFRSYM    DATA     BYTE      ACC
      000000C7H   SFRSYM    DATA     BYTE      IAP_CONTR
      000000F9H   SFRSYM    DATA     BYTE      LINICR
      0000008EH   SFRSYM    DATA     BYTE      AUXR
      000000F0H   SFRSYM    DATA     BYTE      B
      000000AFH   SFRSYM    DATA     BYTE      IE2
      00000088H   SFRSYM    DATA     BYTE      TCON
      00000089H   SFRSYM    DATA     BYTE      TMOD
      00000098H   SFRSYM    DATA     BYTE      SCON
L251 LINKER/LOCATER V4.66.93.0                                                        03/20/2026  13:53:16  PAGE 33


      000000F1H   SFRSYM    DATA     BYTE      CANICR
      00000087H   SFRSYM    DATA     BYTE      PCON
      000000BCH   SFRSYM    DATA     BYTE      ADC_CONTR
      000000E7H   SFRSYM    DATA     BYTE      CMPCR2
      000000E6H   SFRSYM    DATA     BYTE      CMPCR1
      000000DEH   SFRSYM    DATA     BYTE      ADCCFG
      000000B8H   SFRSYM    DATA     BYTE      IP
      0000008FH   SFRSYM    DATA     BYTE      INTCLKO
      000000EEH   SFRSYM    DATA     BYTE      IP3H
      000000B6H   SFRSYM    DATA     BYTE      IP2H
      000000A8H   SFRSYM    DATA     BYTE      IE
      000000BBH   SFRSYM    DATA     BYTE      P_SW3
      000000BAH   SFRSYM    DATA     BYTE      P_SW2
      000000A2H   SFRSYM    DATA     BYTE      P_SW1
      000000CEH   SFRSYM    DATA     BYTE      SPCTL
      000000F8H   SFRSYM    DATA     BYTE      P7
      000000E8H   SFRSYM    DATA     BYTE      P6
      000000C8H   SFRSYM    DATA     BYTE      P5
      000000C0H   SFRSYM    DATA     BYTE      P4
      000000B0H   SFRSYM    DATA     BYTE      P3
      000000A0H   SFRSYM    DATA     BYTE      P2
      00000090H   SFRSYM    DATA     BYTE      P1
      00000080H   SFRSYM    DATA     BYTE      P0
      00FF3AB0H   SYMBOL    CODE     ---       CRC16
      00FF3DE2H   SYMBOL    CODE     ---       SendException
      00FF2263H   SYMBOL    CODE     ---       ProcessFrame
      00FF3AEAH   SYMBOL    CODE     ---       SendResponse
      00000021H   SYMBOL    EDATA    ---       rx_buf
      00000061H   SYMBOL    EDATA    ---       tx_buf
      000000A1H   SYMBOL    EDATA    BYTE      rx_len
      000000A3H   SYMBOL    EDATA    BYTE      tx_len
      000000C4H   SYMBOL    EDATA    BYTE      timeout_cnt
      000000C5H   SYMBOL    EDATA    BYTE      rx_active
      000000C6H   SYMBOL    EDATA    BYTE      rx_done

      00FF3AB0H   BLOCK     CODE     ---       LVL=0
      REG=7       REGSYM    ---      ---       buf
      R10         REGSYM    ---      BYTE      len
      00FF3AB4H   BLOCK     CODE     NEAR LAB  LVL=1
      WR6         REGSYM    ---      WORD      crc
      R5          REGSYM    ---      BYTE      i
      R4          REGSYM    ---      BYTE      j
      ---         BLOCKEND  ---      ---       LVL=1
      00FF3AB0H   LINE      CODE     ---       #40
      00FF3AB4H   LINE      CODE     ---       #41
      00FF3AB4H   LINE      CODE     ---       #42
      00FF3AB8H   LINE      CODE     ---       #45
      00FF3ABCH   LINE      CODE     ---       #47
      00FF3AC9H   LINE      CODE     ---       #48
      00FF3ACBH   LINE      CODE     ---       #50
      00FF3AD3H   LINE      CODE     ---       #51
      00FF3ADBH   LINE      CODE     ---       #53
      00FF3ADDH   LINE      CODE     ---       #54
      00FF3AE3H   LINE      CODE     ---       #55
      00FF3AE9H   LINE      CODE     ---       #56
      00FF3AE9H   LINE      CODE     ---       #57
      ---         BLOCKEND  ---      ---       LVL=0

      00FF3AEAH   BLOCK     CODE     ---       LVL=0
      R15         REGSYM    ---      BYTE      len
      00FF3AECH   BLOCK     CODE     NEAR LAB  LVL=1
      WR6         REGSYM    ---      WORD      crc
      R15         REGSYM    ---      BYTE      i
      ---         BLOCKEND  ---      ---       LVL=1
      00FF3AEAH   LINE      CODE     ---       #62
L251 LINKER/LOCATER V4.66.93.0                                                        03/20/2026  13:53:16  PAGE 34


      00FF3AECH   LINE      CODE     ---       #63
      00FF3AECH   LINE      CODE     ---       #67
      00FF3AF3H   LINE      CODE     ---       #68
      00FF3AF9H   LINE      CODE     ---       #69
      00FF3AFFH   LINE      CODE     ---       #70
      00FF3B07H   LINE      CODE     ---       #73
      00FF3B0BH   LINE      CODE     ---       #74
      00FF3B1EH   LINE      CODE     ---       #75
      00FF3B1EH   LINE      CODE     ---       #76
      ---         BLOCKEND  ---      ---       LVL=0

      00FF3DE2H   BLOCK     CODE     ---       LVL=0
      R7          REGSYM    ---      BYTE      func
      R10         REGSYM    ---      BYTE      ex_code
      00FF3DE2H   LINE      CODE     ---       #81
      00FF3DE6H   LINE      CODE     ---       #83
      00FF3DECH   LINE      CODE     ---       #84
      00FF3DF4H   LINE      CODE     ---       #85
      00FF3DF8H   LINE      CODE     ---       #86
      ---         BLOCKEND  ---      ---       LVL=0

      00FF2263H   BLOCK     CODE     ---       LVL=0
      00FF2265H   BLOCK     CODE     NEAR LAB  LVL=1
      000000CDH   SYMBOL    EDATA    WORD      crc_recv
      WR6         REGSYM    ---      WORD      crc_calc
      R10         REGSYM    ---      BYTE      func
      WR8         REGSYM    ---      WORD      start_addr
      WR6         REGSYM    ---      WORD      quantity
      R13         REGSYM    ---      BYTE      byte_cnt
      WR14        REGSYM    ---      WORD      i
      R11         REGSYM    ---      BYTE      coil_val
      ---         BLOCKEND  ---      ---       LVL=1
      00FF2263H   LINE      CODE     ---       #106
      00FF2265H   LINE      CODE     ---       #107
      00FF2265H   LINE      CODE     ---       #116
      00FF2271H   LINE      CODE     ---       #117
      00FF2271H   LINE      CODE     ---       #120
      00FF227DH   LINE      CODE     ---       #121
      00FF227DH   LINE      CODE     ---       #124
      00FF228DH   LINE      CODE     ---       #125
      00FF229CH   LINE      CODE     ---       #126
      00FF22A5H   LINE      CODE     ---       #127
      00FF22A5H   LINE      CODE     ---       #130
      00FF22A9H   LINE      CODE     ---       #131
      00FF22B9H   LINE      CODE     ---       #132
      00FF22C9H   LINE      CODE     ---       #135
      00FF22EDH   LINE      CODE     ---       #144
      00FF22EDH   LINE      CODE     ---       #146
      00FF22FCH   LINE      CODE     ---       #148
      00FF22FCH   LINE      CODE     ---       #149
      00FF22FFH   LINE      CODE     ---       #150
      00FF22FFH   LINE      CODE     ---       #152
      00FF2309H   LINE      CODE     ---       #154
      00FF2309H   LINE      CODE     ---       #155
      00FF230CH   LINE      CODE     ---       #156
      00FF230CH   LINE      CODE     ---       #158
      00FF2318H   LINE      CODE     ---       #160
      00FF231EH   LINE      CODE     ---       #161
      00FF2322H   LINE      CODE     ---       #162
      00FF2326H   LINE      CODE     ---       #164
      00FF232AH   LINE      CODE     ---       #165
      00FF234DH   LINE      CODE     ---       #166
      00FF234FH   LINE      CODE     ---       #167
      00FF2351H   LINE      CODE     ---       #176
      00FF2351H   LINE      CODE     ---       #178
L251 LINKER/LOCATER V4.66.93.0                                                        03/20/2026  13:53:16  PAGE 35


      00FF2360H   LINE      CODE     ---       #180
      00FF2360H   LINE      CODE     ---       #181
      00FF2363H   LINE      CODE     ---       #182
      00FF2363H   LINE      CODE     ---       #184
      00FF236DH   LINE      CODE     ---       #186
      00FF236DH   LINE      CODE     ---       #187
      00FF2370H   LINE      CODE     ---       #188
      00FF2370H   LINE      CODE     ---       #190
      00FF2374H   LINE      CODE     ---       #192
      00FF237AH   LINE      CODE     ---       #193
      00FF2380H   LINE      CODE     ---       #194
      00FF2384H   LINE      CODE     ---       #196
      00FF2388H   LINE      CODE     ---       #198
      00FF239AH   LINE      CODE     ---       #199
      00FF239EH   LINE      CODE     ---       #200
      00FF23A4H   LINE      CODE     ---       #201
      00FF23AAH   LINE      CODE     ---       #202
      00FF23ADH   LINE      CODE     ---       #211
      00FF23ADH   LINE      CODE     ---       #213
      00FF23B3H   LINE      CODE     ---       #215
      00FF23B3H   LINE      CODE     ---       #216
      00FF23B6H   LINE      CODE     ---       #217
      00FF23B6H   LINE      CODE     ---       #219
      00FF23C2H   LINE      CODE     ---       #221
      00FF23C4H   LINE      CODE     ---       #222
      00FF23D7H   LINE      CODE     ---       #224
      00FF23EFH   LINE      CODE     ---       #227
      00FF23F7H   LINE      CODE     ---       #228
      00FF23FFH   LINE      CODE     ---       #229
      00FF2407H   LINE      CODE     ---       #230
      00FF240FH   LINE      CODE     ---       #231
      00FF2417H   LINE      CODE     ---       #232
      00FF241FH   LINE      CODE     ---       #233
      00FF2421H   LINE      CODE     ---       #234
      00FF2424H   LINE      CODE     ---       #243
      00FF2424H   LINE      CODE     ---       #245
      00FF242AH   LINE      CODE     ---       #247
      00FF242AH   LINE      CODE     ---       #248
      00FF242CH   LINE      CODE     ---       #249
      00FF242CH   LINE      CODE     ---       #251
      00FF2434H   LINE      CODE     ---       #253
      00FF243CH   LINE      CODE     ---       #254
      00FF2444H   LINE      CODE     ---       #255
      00FF244CH   LINE      CODE     ---       #256
      00FF2454H   LINE      CODE     ---       #257
      00FF245CH   LINE      CODE     ---       #258
      00FF2464H   LINE      CODE     ---       #259
      00FF2466H   LINE      CODE     ---       #260
      00FF2469H   LINE      CODE     ---       #269
      00FF2469H   LINE      CODE     ---       #271
      00FF2475H   LINE      CODE     ---       #273
      00FF2475H   LINE      CODE     ---       #274
      00FF2477H   LINE      CODE     ---       #275
      00FF2477H   LINE      CODE     ---       #277
      00FF2481H   LINE      CODE     ---       #279
      00FF2486H   LINE      CODE     ---       #280
      00FF2488H   LINE      CODE     ---       #281
      00FF2488H   LINE      CODE     ---       #283
      00FF248CH   LINE      CODE     ---       #284
      00FF2496H   LINE      CODE     ---       #286
      00FF249BH   LINE      CODE     ---       #287
      00FF249DH   LINE      CODE     ---       #288
      00FF249DH   LINE      CODE     ---       #290
      00FF24A1H   LINE      CODE     ---       #293
      00FF24BFH   LINE      CODE     ---       #294
L251 LINKER/LOCATER V4.66.93.0                                                        03/20/2026  13:53:16  PAGE 36


      00FF24C5H   LINE      CODE     ---       #296
      00FF24CBH   LINE      CODE     ---       #297
      00FF24D1H   LINE      CODE     ---       #298
      00FF24D9H   LINE      CODE     ---       #299
      00FF24E1H   LINE      CODE     ---       #300
      00FF24E9H   LINE      CODE     ---       #301
      00FF24F1H   LINE      CODE     ---       #302
      00FF24F6H   LINE      CODE     ---       #303
      00FF24F8H   LINE      CODE     ---       #308
      00FF24F8H   LINE      CODE     ---       #309
      00FF2500H   LINE      CODE     ---       #310
      00FF2500H   LINE      CODE     ---       #311
      00FF2500H   LINE      CODE     ---       #312
      ---         BLOCKEND  ---      ---       LVL=0

      00FF3F03H   BLOCK     CODE     ---       LVL=0
      00FF3F03H   LINE      CODE     ---       #318
      00FF3F03H   LINE      CODE     ---       #321
      00FF3F08H   LINE      CODE     ---       #322
      00FF3F0CH   LINE      CODE     ---       #323
      00FF3F10H   LINE      CODE     ---       #324
      00FF3F14H   LINE      CODE     ---       #325
      ---         BLOCKEND  ---      ---       LVL=0

      00FF3BBAH   BLOCK     CODE     ---       LVL=0
      00FF3BBAH   LINE      CODE     ---       #338
      00FF3BBAH   LINE      CODE     ---       #340
      00FF3BC0H   LINE      CODE     ---       #342
      00FF3BC9H   LINE      CODE     ---       #343
      00FF3BD2H   LINE      CODE     ---       #346
      00FF3BD7H   LINE      CODE     ---       #347
      00FF3BDBH   LINE      CODE     ---       #348
      00FF3BE4H   LINE      CODE     ---       #349
      00FF3BEAH   LINE      CODE     ---       #350
      00FF3BEAH   LINE      CODE     ---       #351
      00FF3BEAH   LINE      CODE     ---       #352
      ---         BLOCKEND  ---      ---       LVL=0

      00FF3C95H   BLOCK     CODE     ---       LVL=0
      R10         REGSYM    ---      BYTE      dat
      00FF3C95H   LINE      CODE     ---       #357
      00FF3C97H   LINE      CODE     ---       #360
      00FF3C9CH   LINE      CODE     ---       #361
      00FF3CA2H   LINE      CODE     ---       #363
      00FF3CABH   LINE      CODE     ---       #364
      00FF3CBCH   LINE      CODE     ---       #368
      ---         BLOCKEND  ---      ---       LVL=0

      00FF3EDCH   BLOCK     CODE     ---       LVL=0
      00FF3EDCH   LINE      CODE     ---       #373
      00FF3EDCH   LINE      CODE     ---       #375
      00FF3EE2H   LINE      CODE     ---       #376
      00FF3EE2H   LINE      CODE     ---       #378
      00FF3EE7H   LINE      CODE     ---       #379
      00FF3EEAH   LINE      CODE     ---       #380
      00FF3EEFH   LINE      CODE     ---       #381
      ---         BLOCKEND  ---      ---       LVL=0

      ---         MODULE    ---      ---       isr

      00FF018BH   BLOCK     CODE     NEAR LAB  LVL=0
      00FF018BH   LINE      CODE     ---       #7
      ---         BLOCKEND  ---      ---       LVL=0

      ---         MODULE    ---      ---       key
L251 LINKER/LOCATER V4.66.93.0                                                        03/20/2026  13:53:16  PAGE 37


      00FF3D4CH   PUBLIC    CODE     ---       Key_Scan
      00FF39F5H   PUBLIC    CODE     ---       Buzzer_PlayTone
      00FF365EH   PUBLIC    CODE     ---       Key_Init
      00FF3B21H   PUBLIC    CODE     ---       Key_IsPressed
      00FF3D8DH   PUBLIC    CODE     ---       Key_GetEvent
      00FF3F2EH   PUBLIC    CODE     ---       Buzzer_IsBusy
      00FF332DH   PUBLIC    CODE     ---       Buzzer_Update
      00FF2981H   PUBLIC    CODE     ---       Key_HandleEvent
      00FF3D6DH   PUBLIC    CODE     ---       Key_ClearEvent
      00000244H   PUBLIC    EDATA    ---       key1
      00000251H   PUBLIC    EDATA    ---       key2
      0000025EH   PUBLIC    EDATA    ---       key3
      000000D0H   SFRSYM    DATA     BYTE      PSW
      0000009DH   SFRSYM    DATA     BYTE      IRCBAND
      00000097H   SFRSYM    DATA     BYTE      AUXR2
      000000EFH   SFRSYM    DATA     BYTE      AUXINTIF
      000000FDH   SFRSYM    DATA     BYTE      S4CON
      000000ACH   SFRSYM    DATA     BYTE      S3CON
      0000009AH   SFRSYM    DATA     BYTE      S2CON
      000000C0H.2 SFRSYM    DATA     BIT       KEY3_PIN
      000000C0H.3 SFRSYM    DATA     BIT       KEY2_PIN
      00000090H.3 SFRSYM    DATA     BIT       BUZZER
      000000C0H.4 SFRSYM    DATA     BIT       KEY1_PIN
      000000B7H   SFRSYM    DATA     BYTE      IPH
      000000CDH   SFRSYM    DATA     BYTE      SPSTAT
      000000DDH   SFRSYM    DATA     BYTE      T4T3M
      000000C1H   SFRSYM    DATA     BYTE      WDT_CONTR
      000000DFH   SFRSYM    DATA     BYTE      IP3
      000000F4H   SFRSYM    DATA     BYTE      USBCON
      000000B5H   SFRSYM    DATA     BYTE      IP2
      000000FFH   SFRSYM    DATA     BYTE      RSTCFG
      000000E0H   SFRSYM    DATA     BYTE      ACC
      000000C7H   SFRSYM    DATA     BYTE      IAP_CONTR
      000000F9H   SFRSYM    DATA     BYTE      LINICR
      0000008EH   SFRSYM    DATA     BYTE      AUXR
      000000F0H   SFRSYM    DATA     BYTE      B
      000000AFH   SFRSYM    DATA     BYTE      IE2
      00000088H   SFRSYM    DATA     BYTE      TCON
      00000089H   SFRSYM    DATA     BYTE      TMOD
      00000098H   SFRSYM    DATA     BYTE      SCON
      000000F1H   SFRSYM    DATA     BYTE      CANICR
      00000087H   SFRSYM    DATA     BYTE      PCON
      000000BCH   SFRSYM    DATA     BYTE      ADC_CONTR
      000000E7H   SFRSYM    DATA     BYTE      CMPCR2
      000000E6H   SFRSYM    DATA     BYTE      CMPCR1
      000000DEH   SFRSYM    DATA     BYTE      ADCCFG
      000000B8H   SFRSYM    DATA     BYTE      IP
      0000008FH   SFRSYM    DATA     BYTE      INTCLKO
      000000EEH   SFRSYM    DATA     BYTE      IP3H
      000000B6H   SFRSYM    DATA     BYTE      IP2H
      000000A8H   SFRSYM    DATA     BYTE      IE
      000000BBH   SFRSYM    DATA     BYTE      P_SW3
      000000BAH   SFRSYM    DATA     BYTE      P_SW2
      000000A2H   SFRSYM    DATA     BYTE      P_SW1
      000000CEH   SFRSYM    DATA     BYTE      SPCTL
      000000F8H   SFRSYM    DATA     BYTE      P7
      000000E8H   SFRSYM    DATA     BYTE      P6
      000000C8H   SFRSYM    DATA     BYTE      P5
      000000C0H   SFRSYM    DATA     BYTE      P4
      000000B0H   SFRSYM    DATA     BYTE      P3
      000000A0H   SFRSYM    DATA     BYTE      P2
      00000090H   SFRSYM    DATA     BYTE      P1
      00000080H   SFRSYM    DATA     BYTE      P0
      00000091H   SFRSYM    DATA     BYTE      P1M1
      00000092H   SFRSYM    DATA     BYTE      P1M0
L251 LINKER/LOCATER V4.66.93.0                                                        03/20/2026  13:53:16  PAGE 38


      00FF40EDH   SYMBOL    HCONST   ---       adj_steps
      00FF40F9H   SYMBOL    HCONST   ---       g_tone_segments
      00FF36DAH   SYMBOL    CODE     ---       Key_AdjustTarget
      00FF0046H   SYMBOL    CODE     ---       Key_ScanSingle
      0000023EH   SYMBOL    EDATA    ---       g_buzzer

      00FF332DH   BLOCK     CODE     ---       LVL=0
      WR26        REGSYM    ---      WORD      elapsed_ms
      00FF332DH   LINE      CODE     ---       #88
      00FF332DH   LINE      CODE     ---       #89
      00FF332DH   LINE      CODE     ---       #93
      00FF3336H   LINE      CODE     ---       #94
      00FF3336H   LINE      CODE     ---       #97
      00FF333EH   LINE      CODE     ---       #100
      00FF3373H   LINE      CODE     ---       #102
      00FF3378H   LINE      CODE     ---       #103
      00FF3380H   LINE      CODE     ---       #106
      00FF33A0H   LINE      CODE     ---       #108
      00FF33A2H   LINE      CODE     ---       #109
      00FF33A7H   LINE      CODE     ---       #110
      00FF33ABH   LINE      CODE     ---       #111
      00FF33ACH   LINE      CODE     ---       #112
      00FF33ACH   LINE      CODE     ---       #115
      00FF33B9H   LINE      CODE     ---       #116
      00FF33BCH   LINE      CODE     ---       #118
      00FF33BEH   LINE      CODE     ---       #119
      ---         BLOCKEND  ---      ---       LVL=0

      00FF39F5H   BLOCK     CODE     ---       LVL=0
      R10         REGSYM    ---      BYTE      tone_type
      00FF39F5H   LINE      CODE     ---       #123
      00FF39F7H   LINE      CODE     ---       #125
      00FF3A00H   LINE      CODE     ---       #126
      00FF3A00H   LINE      CODE     ---       #128
      00FF3A06H   LINE      CODE     ---       #129
      00FF3A0AH   LINE      CODE     ---       #130
      00FF3A0FH   LINE      CODE     ---       #131
      00FF3A17H   LINE      CODE     ---       #134
      00FF3A2FH   LINE      CODE     ---       #135
      00FF3A32H   LINE      CODE     ---       #137
      00FF3A34H   LINE      CODE     ---       #138
      ---         BLOCKEND  ---      ---       LVL=0

      00FF3F2EH   BLOCK     CODE     ---       LVL=0
      00FF3F2EH   LINE      CODE     ---       #143
      00FF3F2EH   LINE      CODE     ---       #145
      00FF3F38H   LINE      CODE     ---       #146
      ---         BLOCKEND  ---      ---       LVL=0

      00FF365EH   BLOCK     CODE     ---       LVL=0
      00FF365EH   LINE      CODE     ---       #148
      00FF365EH   LINE      CODE     ---       #155
      00FF3661H   LINE      CODE     ---       #156
      00FF3664H   LINE      CODE     ---       #159
      00FF366AH   LINE      CODE     ---       #160
      00FF366FH   LINE      CODE     ---       #161
      00FF3673H   LINE      CODE     ---       #162
      00FF3679H   LINE      CODE     ---       #163
      00FF367DH   LINE      CODE     ---       #164
      00FF3681H   LINE      CODE     ---       #165
      00FF3685H   LINE      CODE     ---       #166
      00FF3689H   LINE      CODE     ---       #169
      00FF368FH   LINE      CODE     ---       #170
      00FF3694H   LINE      CODE     ---       #171
      00FF3698H   LINE      CODE     ---       #172
L251 LINKER/LOCATER V4.66.93.0                                                        03/20/2026  13:53:16  PAGE 39


      00FF369CH   LINE      CODE     ---       #173
      00FF36A0H   LINE      CODE     ---       #174
      00FF36A4H   LINE      CODE     ---       #175
      00FF36A8H   LINE      CODE     ---       #176
      00FF36ACH   LINE      CODE     ---       #179
      00FF36B2H   LINE      CODE     ---       #180
      00FF36B7H   LINE      CODE     ---       #181
      00FF36BBH   LINE      CODE     ---       #182
      00FF36BFH   LINE      CODE     ---       #183
      00FF36C3H   LINE      CODE     ---       #184
      00FF36C7H   LINE      CODE     ---       #185
      00FF36CBH   LINE      CODE     ---       #186
      00FF36CFH   LINE      CODE     ---       #188
      ---         BLOCKEND  ---      ---       LVL=0

      00FF0046H   BLOCK     CODE     ---       LVL=0
      REG=7       REGSYM    ---      ---       pkey
      R11         REGSYM    ---      BYTE      pin
      00FF0046H   LINE      CODE     ---       #201
      00FF0048H   LINE      CODE     ---       #203
      00FF004BH   LINE      CODE     ---       #206
      00FF0053H   LINE      CODE     ---       #208
      00FF005BH   LINE      CODE     ---       #210
      00FF0069H   LINE      CODE     ---       #211
      00FF0076H   LINE      CODE     ---       #213
      00FF007CH   LINE      CODE     ---       #214
      00FF0082H   LINE      CODE     ---       #215
      00FF0082H   LINE      CODE     ---       #216
      00FF0085H   LINE      CODE     ---       #218
      00FF008DH   LINE      CODE     ---       #220
      00FF009BH   LINE      CODE     ---       #223
      00FF00A5H   LINE      CODE     ---       #225
      00FF00ABH   LINE      CODE     ---       #226
      00FF00B0H   LINE      CODE     ---       #227
      00FF00B6H   LINE      CODE     ---       #228
      00FF00B9H   LINE      CODE     ---       #230
      00FF00CFH   LINE      CODE     ---       #233
      00FF00D5H   LINE      CODE     ---       #234
      00FF00D5H   LINE      CODE     ---       #236
      00FF00D8H   LINE      CODE     ---       #241
      00FF00DFH   LINE      CODE     ---       #243
      00FF00EDH   LINE      CODE     ---       #244
      00FF00F7H   LINE      CODE     ---       #246
      00FF00FCH   LINE      CODE     ---       #247
      00FF0102H   LINE      CODE     ---       #250
      00FF010CH   LINE      CODE     ---       #253
      00FF0119H   LINE      CODE     ---       #255
      00FF0122H   LINE      CODE     ---       #258
      00FF0128H   LINE      CODE     ---       #259
      00FF012CH   LINE      CODE     ---       #260
      00FF012EH   LINE      CODE     ---       #261
      00FF0133H   LINE      CODE     ---       #264
      00FF0139H   LINE      CODE     ---       #265
      00FF013FH   LINE      CODE     ---       #266
      00FF0144H   LINE      CODE     ---       #267
      00FF0146H   LINE      CODE     ---       #272
      00FF014CH   LINE      CODE     ---       #273
      00FF0151H   LINE      CODE     ---       #274
      00FF0157H   LINE      CODE     ---       #275
      00FF0157H   LINE      CODE     ---       #276
      00FF0159H   LINE      CODE     ---       #280
      00FF015FH   LINE      CODE     ---       #281
      00FF015FH   LINE      CODE     ---       #282
      00FF015FH   LINE      CODE     ---       #285
      00FF0169H   LINE      CODE     ---       #287
L251 LINKER/LOCATER V4.66.93.0                                                        03/20/2026  13:53:16  PAGE 40


      00FF0174H   LINE      CODE     ---       #290
      00FF017CH   LINE      CODE     ---       #296
      00FF0181H   LINE      CODE     ---       #297
      00FF0181H   LINE      CODE     ---       #299
      ---         BLOCKEND  ---      ---       LVL=0

      00FF3D4CH   BLOCK     CODE     ---       LVL=0
      00FF3D4CH   LINE      CODE     ---       #304
      00FF3D4CH   LINE      CODE     ---       #306
      00FF3D57H   LINE      CODE     ---       #307
      00FF3D62H   LINE      CODE     ---       #308
      ---         BLOCKEND  ---      ---       LVL=0

      00FF3D8DH   BLOCK     CODE     ---       LVL=0
      R7          REGSYM    ---      BYTE      key_id
      00FF3D8DH   LINE      CODE     ---       #314
      00FF3D8FH   LINE      CODE     ---       #316
      00FF3D9BH   LINE      CODE     ---       #318
      00FF3D9BH   LINE      CODE     ---       #319
      00FF3DA0H   LINE      CODE     ---       #320
      00FF3DA0H   LINE      CODE     ---       #321
      00FF3DA5H   LINE      CODE     ---       #322
      00FF3DA5H   LINE      CODE     ---       #323
      00FF3DAAH   LINE      CODE     ---       #324
      00FF3DAAH   LINE      CODE     ---       #325
      00FF3DABH   LINE      CODE     ---       #326
      00FF3DABH   LINE      CODE     ---       #327
      ---         BLOCKEND  ---      ---       LVL=0

      00FF3D6DH   BLOCK     CODE     ---       LVL=0
      R7          REGSYM    ---      BYTE      key_id
      00FF3D6DH   LINE      CODE     ---       #332
      00FF3D6FH   LINE      CODE     ---       #334
      00FF3D7BH   LINE      CODE     ---       #336
      00FF3D7BH   LINE      CODE     ---       #337
      00FF3D80H   LINE      CODE     ---       #338
      00FF3D81H   LINE      CODE     ---       #339
      00FF3D81H   LINE      CODE     ---       #340
      00FF3D86H   LINE      CODE     ---       #341
      00FF3D87H   LINE      CODE     ---       #342
      00FF3D87H   LINE      CODE     ---       #343
      00FF3D8CH   LINE      CODE     ---       #344
      00FF3D8CH   LINE      CODE     ---       #345
      00FF3D8CH   LINE      CODE     ---       #346
      ---         BLOCKEND  ---      ---       LVL=0

      00FF3B21H   BLOCK     CODE     ---       LVL=0
      R7          REGSYM    ---      BYTE      key_id
      00FF3B21H   LINE      CODE     ---       #351
      00FF3B23H   LINE      CODE     ---       #353
      00FF3B2FH   LINE      CODE     ---       #355
      00FF3B2FH   LINE      CODE     ---       #356
      00FF3B3BH   LINE      CODE     ---       #357
      00FF3B3BH   LINE      CODE     ---       #358
      00FF3B47H   LINE      CODE     ---       #359
      00FF3B47H   LINE      CODE     ---       #360
      00FF3B53H   LINE      CODE     ---       #361
      00FF3B53H   LINE      CODE     ---       #362
      00FF3B54H   LINE      CODE     ---       #363
      00FF3B54H   LINE      CODE     ---       #364
      ---         BLOCKEND  ---      ---       LVL=0

      00FF36DAH   BLOCK     CODE     ---       LVL=0
      WR6         REGSYM    ---      INT       step
      00FF36DCH   BLOCK     CODE     NEAR LAB  LVL=1
L251 LINKER/LOCATER V4.66.93.0                                                        03/20/2026  13:53:16  PAGE 41


      WR14        REGSYM    ---      INT       sv
      ---         BLOCKEND  ---      ---       LVL=1
      00FF36DAH   LINE      CODE     ---       #369
      00FF36DCH   LINE      CODE     ---       #370
      00FF36DCH   LINE      CODE     ---       #372
      00FF36E6H   LINE      CODE     ---       #374
      00FF36E6H   LINE      CODE     ---       #375
      00FF36ECH   LINE      CODE     ---       #376
      00FF36F6H   LINE      CODE     ---       #377
      00FF3700H   LINE      CODE     ---       #378
      00FF3704H   LINE      CODE     ---       #379
      00FF3710H   LINE      CODE     ---       #380
      00FF3712H   LINE      CODE     ---       #382
      00FF3712H   LINE      CODE     ---       #383
      00FF3718H   LINE      CODE     ---       #384
      00FF3722H   LINE      CODE     ---       #385
      00FF372CH   LINE      CODE     ---       #386
      00FF3730H   LINE      CODE     ---       #387
      00FF373FH   LINE      CODE     ---       #388
      00FF373FH   LINE      CODE     ---       #390
      00FF373FH   LINE      CODE     ---       #391
      00FF373FH   LINE      CODE     ---       #392
      00FF373FH   LINE      CODE     ---       #393
      ---         BLOCKEND  ---      ---       LVL=0

      00FF2981H   BLOCK     CODE     ---       LVL=0
      R11         REGSYM    ---      BYTE      event
      00FF2981H   LINE      CODE     ---       #404
      00FF2981H   LINE      CODE     ---       #405
      00FF2981H   LINE      CODE     ---       #409
      00FF2986H   LINE      CODE     ---       #410
      00FF2989H   LINE      CODE     ---       #412
      00FF299CH   LINE      CODE     ---       #413
      00FF29A1H   LINE      CODE     ---       #414
      00FF29B6H   LINE      CODE     ---       #415
      00FF29B8H   LINE      CODE     ---       #416
      00FF29BBH   LINE      CODE     ---       #417
      00FF29BBH   LINE      CODE     ---       #418
      00FF29C0H   LINE      CODE     ---       #421
      00FF29C5H   LINE      CODE     ---       #422
      00FF29C8H   LINE      CODE     ---       #424
      00FF29E5H   LINE      CODE     ---       #425
      00FF29EAH   LINE      CODE     ---       #426
      00FF29ECH   LINE      CODE     ---       #427
      00FF29EFH   LINE      CODE     ---       #428
      00FF29EFH   LINE      CODE     ---       #429
      00FF29F2H   LINE      CODE     ---       #431
      00FF2A0FH   LINE      CODE     ---       #432
      00FF2A14H   LINE      CODE     ---       #433
      00FF2A16H   LINE      CODE     ---       #434
      00FF2A19H   LINE      CODE     ---       #435
      00FF2A19H   LINE      CODE     ---       #436
      00FF2A1CH   LINE      CODE     ---       #438
      00FF2A39H   LINE      CODE     ---       #439
      00FF2A3BH   LINE      CODE     ---       #440
      00FF2A3EH   LINE      CODE     ---       #441
      00FF2A3EH   LINE      CODE     ---       #442
      00FF2A43H   LINE      CODE     ---       #445
      00FF2A48H   LINE      CODE     ---       #446
      00FF2A4BH   LINE      CODE     ---       #448
      00FF2A6EH   LINE      CODE     ---       #449
      00FF2A73H   LINE      CODE     ---       #450
      00FF2A75H   LINE      CODE     ---       #451
      00FF2A77H   LINE      CODE     ---       #452
      00FF2A77H   LINE      CODE     ---       #453
L251 LINKER/LOCATER V4.66.93.0                                                        03/20/2026  13:53:16  PAGE 42


      00FF2A7AH   LINE      CODE     ---       #455
      00FF2A9DH   LINE      CODE     ---       #456
      00FF2AA2H   LINE      CODE     ---       #457
      00FF2AA4H   LINE      CODE     ---       #458
      00FF2AA6H   LINE      CODE     ---       #459
      00FF2AA6H   LINE      CODE     ---       #460
      00FF2AA9H   LINE      CODE     ---       #462
      00FF2ACCH   LINE      CODE     ---       #463
      00FF2AD1H   LINE      CODE     ---       #464
      00FF2AD4H   LINE      CODE     ---       #465
      00FF2AD4H   LINE      CODE     ---       #466
      00FF2AD9H   LINE      CODE     ---       #468
      00FF2ADAH   LINE      CODE     ---       #469
      ---         BLOCKEND  ---      ---       LVL=0

      ---         MODULE    ---      ---       pid
      00FF2D5FH   PUBLIC    CODE     ---       PID_Calc
      00FF3DFDH   PUBLIC    CODE     ---       PID_Reset
      00FF3A74H   PUBLIC    CODE     ---       PID_Init
      000000C5H   PUBLIC    EDATA    ---       ?PID_Init?BYTE

      00FF3A74H   BLOCK     CODE     ---       LVL=0
      REG=2       REGSYM    ---      ---       pid
      WR6         REGSYM    ---      INT       kp
      WR4         REGSYM    ---      INT       ki
      000000CDH   SYMBOL    EDATA    INT       kd
      000000CFH   SYMBOL    EDATA    LONG      out_max
      000000D3H   SYMBOL    EDATA    LONG      out_min
      000000D7H   SYMBOL    EDATA    INT       dead_band
      00FF3A74H   LINE      CODE     ---       #18
      00FF3A76H   LINE      CODE     ---       #23
      00FF3A79H   LINE      CODE     ---       #24
      00FF3A7DH   LINE      CODE     ---       #25
      00FF3A85H   LINE      CODE     ---       #26
      00FF3A91H   LINE      CODE     ---       #27
      00FF3A9DH   LINE      CODE     ---       #28
      00FF3AA5H   LINE      CODE     ---       #29
      00FF3AADH   LINE      CODE     ---       #30
      ---         BLOCKEND  ---      ---       LVL=0

      00FF3DFDH   BLOCK     CODE     ---       LVL=0
      REG=2       REGSYM    ---      ---       pid
      00FF3DFDH   LINE      CODE     ---       #36
      00FF3DFFH   LINE      CODE     ---       #38
      00FF3E05H   LINE      CODE     ---       #39
      00FF3E0FH   LINE      CODE     ---       #40
      00FF3E17H   LINE      CODE     ---       #41
      ---         BLOCKEND  ---      ---       LVL=0

      00FF2D5FH   BLOCK     CODE     ---       LVL=0
      REG=6       REGSYM    ---      ---       pid
      WR6         REGSYM    ---      INT       setpoint
      WR4         REGSYM    ---      INT       feedback
      00FF2D61H   BLOCK     CODE     NEAR LAB  LVL=1
      WR16        REGSYM    ---      INT       err
      WR18        REGSYM    ---      INT       derivative
      DR4         REGSYM    ---      LONG      output
      00FF2D9FH   BLOCK     CODE     NEAR LAB  LVL=2
      DR4         REGSYM    ---      LONG      ilimit
      ---         BLOCKEND  ---      ---       LVL=2
      ---         BLOCKEND  ---      ---       LVL=1
      00FF2D5FH   LINE      CODE     ---       #60
      00FF2D61H   LINE      CODE     ---       #61
      00FF2D61H   LINE      CODE     ---       #67
      00FF2D65H   LINE      CODE     ---       #70
L251 LINKER/LOCATER V4.66.93.0                                                        03/20/2026  13:53:16  PAGE 43


      00FF2D77H   LINE      CODE     ---       #71
      00FF2D79H   LINE      CODE     ---       #74
      00FF2D95H   LINE      CODE     ---       #77
      00FF2D9FH   LINE      CODE     ---       #78
      00FF2D9FH   LINE      CODE     ---       #79
      00FF2DBBH   LINE      CODE     ---       #80
      00FF2DCFH   LINE      CODE     ---       #81
      00FF2DEDH   LINE      CODE     ---       #82
      00FF2DEDH   LINE      CODE     ---       #85
      00FF2DF5H   LINE      CODE     ---       #86
      00FF2DF9H   LINE      CODE     ---       #91
      00FF2E4CH   LINE      CODE     ---       #94
      00FF2E5AH   LINE      CODE     ---       #95
      00FF2E68H   LINE      CODE     ---       #97
      00FF2E70H   LINE      CODE     ---       #98
      00FF2E70H   LINE      CODE     ---       #99
      ---         BLOCKEND  ---      ---       LVL=0

      ---         MODULE    ---      ---       SPRINTF
      00000106H   PUBLIC    EDATA    ---       ?SPRINTF?BYTE
      00FF1A36H   PUBLIC    CODE     NEAR LAB  SPRINTF

      ---         MODULE    ---      ---       VSPRINTF
      00000155H   PUBLIC    EDATA    ---       ?VSPRINTF?BYTE
      00FF1A56H   PUBLIC    CODE     NEAR LAB  VSPRINTF

      ---         MODULE    ---      ---       ?C?PRNFMT
      00FF1A9FH   PUBLIC    CODE     ---       ?C?PRNFMT

      ---         MODULE    ---      ---       ?C?FPCONVERT
      00FF1EBCH   PUBLIC    CODE     ---       ?C?FPCONVERT
      00FF1F74H   PUBLIC    CODE     ---       ?C?FPROUND

      ---         MODULE    ---      ---       ?C?FPMUL
      00FF1FB7H   PUBLIC    CODE     ---       ?C?FPMUL

      ---         MODULE    ---      ---       ?C?FPDIV
      00FF2057H   PUBLIC    CODE     ---       ?C?FPDIV

      ---         MODULE    ---      ---       ?C?FTNPWR
      00FF2108H   PUBLIC    CODE     ---       ?C?FTNPWR

      ---         MODULE    ---      ---       ?C?FPGETOPN
      00FF213FH   PUBLIC    CODE     ---       ?C?FPGETOPN2
      00FF217CH   PUBLIC    CODE     ---       ?C?FPNANRESULT
      00FF2184H   PUBLIC    CODE     ---       ?C?FPOVERFLOW
      00FF2158H   PUBLIC    CODE     ---       ?C?FPRESULT
      00FF216EH   PUBLIC    CODE     ---       ?C?FPRESULT2
      00FF2181H   PUBLIC    CODE     ---       ?C?FPUNDERFLOW

      ---         MODULE    ---      ---       ?C_START
      00FF0000H   PUBLIC    CODE     ---       ?C?STARTUP
      00FF0000H   PUBLIC    CODE     ---       ?C_STARTUP

      ---         MODULE    ---      ---       ?C?INITEDATA
      00FF3949H   PUBLIC    CODE     ---       ?C?INITEDATA

      ---         MODULE    ---      ---       ?C?SIDIV
      00FF2190H   PUBLIC    CODE     ---       ?C?SIDIV

      ---         MODULE    ---      ---       ?C?LMUL
      00FF21C2H   PUBLIC    CODE     ---       ?C?LMUL

      ---         MODULE    ---      ---       ?C?LIMUL
      00FF21D3H   PUBLIC    CODE     ---       ?C?LIMUL
L251 LINKER/LOCATER V4.66.93.0                                                        03/20/2026  13:53:16  PAGE 44



      ---         MODULE    ---      ---       ?C?SLDIV
      00FF21DCH   PUBLIC    CODE     NEAR LAB  ?C?SLDIV

      ---         MODULE    ---      ---       STRLEN
      00FF3F15H   PUBLIC    CODE     ---       strlen?_

      ---         MODULE    ---      ---       memset
      00FF3E18H   PUBLIC    CODE     ---       memset?_

      ---         MODULE    ---      ---       ?C?INITEDATA_END
      00FF41F6H   PUBLIC    HCONST   WORD      ?C?INITEDATA_END

      ---         MODULE    ---      ---       ?C?ULDIV
      00FF2212H   PUBLIC    CODE     NEAR LAB  ?C?ULDIV
      00FF2210H   PUBLIC    CODE     NEAR LAB  ?C?ULIDIV



*** WARNING L57: UNCALLED FUNCTION, IGNORED FOR OVERLAY PROCESS
    NAME:    OLED_BuffShowCircle/oled

*** WARNING L57: UNCALLED FUNCTION, IGNORED FOR OVERLAY PROCESS
    NAME:    OLED_BuffShowNum02F/oled

*** WARNING L57: UNCALLED FUNCTION, IGNORED FOR OVERLAY PROCESS
    NAME:    OLED_BuffShowBMP/oled

*** WARNING L57: UNCALLED FUNCTION, IGNORED FOR OVERLAY PROCESS
    NAME:    OLED_BuffShowChar32/oled

*** WARNING L57: UNCALLED FUNCTION, IGNORED FOR OVERLAY PROCESS
    NAME:    OLED_BuffShowRectangle/oled

*** WARNING L57: UNCALLED FUNCTION, IGNORED FOR OVERLAY PROCESS
    NAME:    OLED_BuffShowNum/oled

*** WARNING L57: UNCALLED FUNCTION, IGNORED FOR OVERLAY PROCESS
    NAME:    OLED_DrawBMP/oled

*** WARNING L57: UNCALLED FUNCTION, IGNORED FOR OVERLAY PROCESS
    NAME:    OLED_DisplayOff/oled

*** WARNING L57: UNCALLED FUNCTION, IGNORED FOR OVERLAY PROCESS
    NAME:    UART2_SendString/uart

*** WARNING L57: UNCALLED FUNCTION, IGNORED FOR OVERLAY PROCESS
    NAME:    UART2_ReadByte/uart

*** WARNING L57: UNCALLED FUNCTION, IGNORED FOR OVERLAY PROCESS
    NAME:    Key_IsPressed/key

*** WARNING L57: UNCALLED FUNCTION, IGNORED FOR OVERLAY PROCESS
    NAME:    Buzzer_IsBusy/key

Program Size: data=8.4 edata+hdata=867 xdata=1047 const=716 code=16178
L251 RUN COMPLETE.  12 WARNING(S),  0 ERROR(S)
