L251 LINKER/LOCATER V4.66.93.0                                                          03/20/2026  12:58:05  PAGE 1


L251 LINKER/LOCATER V4.66.93.0, INVOKED BY:
D:\KEIL MDK\C251\BIN\L251.EXE .\Objects\main.obj, .\Objects\oled.obj, .\Objects\spi.obj, .\Objects\uart.obj, .\Objects\t
>> imer.obj, .\Objects\rs485.obj, .\Objects\isr.obj, .\Objects\key.obj, .\Objects\pid.obj TO .\Objects\STC32G_Test_06_SP
>> IĶØŠÅOLEDĘĮ PRINT (.\Listings\STC32G_Test_06_SPIĶØŠÅOLEDĘĮ.map) CASE CLASSES (EDATA (0X0-0XFFF), HDATA (0X0-0XFFF))


CPU MODE:     251 SOURCE MODE
INTR FRAME:   2 BYTES SAVED ON INTERRUPT
MEMORY MODEL: XSMALL WITH FLOATING POINT ARITHMETIC


INPUT MODULES INCLUDED:
  .\Objects\main.obj (main)
         COMMENT TYPE 0: C251 V5.60.0
  .\Objects\oled.obj (oled)
         COMMENT TYPE 0: C251 V5.60.0
  .\Objects\spi.obj (spi)
         COMMENT TYPE 0: C251 V5.60.0
  .\Objects\uart.obj (uart)
         COMMENT TYPE 0: C251 V5.60.0
  .\Objects\timer.obj (timer)
         COMMENT TYPE 0: C251 V5.60.0
  .\Objects\rs485.obj (rs485)
         COMMENT TYPE 0: C251 V5.60.0
  .\Objects\isr.obj (isr)
         COMMENT TYPE 0: A251 V4.69.13.0
  .\Objects\key.obj (key)
         COMMENT TYPE 0: C251 V5.60.0
  .\Objects\pid.obj (pid)
         COMMENT TYPE 0: C251 V5.60.0
  D:\KEIL MDK\C251\LIB\C2SFPXS.LIB (SPRINTF)
         COMMENT TYPE 0: A251 V4.69.6.0
  D:\KEIL MDK\C251\LIB\C2SFPXS.LIB (VSPRINTF)
         COMMENT TYPE 0: A251 V4.69.6.0
  D:\KEIL MDK\C251\LIB\C2SFPXS.LIB (?C?PRNFMT)
         COMMENT TYPE 0: A251 V4.69.6.0
  D:\KEIL MDK\C251\LIB\C2SFPXS.LIB (?C?FPCONVERT)
         COMMENT TYPE 0: A251 V4.69.6.0
  D:\KEIL MDK\C251\LIB\C2SFPXS.LIB (?C?FPMUL)
         COMMENT TYPE 0: A251 V4.69.6.0
  D:\KEIL MDK\C251\LIB\C2SFPXS.LIB (?C?FPDIV)
         COMMENT TYPE 0: A251 V4.69.6.0
  D:\KEIL MDK\C251\LIB\C2SFPXS.LIB (?C?FTNPWR)
         COMMENT TYPE 0: A251 V4.69.6.0
  D:\KEIL MDK\C251\LIB\C2SFPXS.LIB (?C?FPGETOPN)
         COMMENT TYPE 0: A251 V4.69.6.0
  D:\KEIL MDK\C251\LIB\C2SXS.LIB (?C_START)
         COMMENT TYPE 0: A251 V4.69.6.0
  D:\KEIL MDK\C251\LIB\C2SXS.LIB (?C?INITEDATA)
         COMMENT TYPE 0: A251 V4.69.6.0
  D:\KEIL MDK\C251\LIB\C2SXS.LIB (?C?SIDIV)
         COMMENT TYPE 0: A251 V4.69.6.0
  D:\KEIL MDK\C251\LIB\C2SXS.LIB (?C?LMUL)
         COMMENT TYPE 0: A251 V4.69.6.0
  D:\KEIL MDK\C251\LIB\C2SXS.LIB (?C?LIMUL)
         COMMENT TYPE 0: A251 V4.69.6.0
  D:\KEIL MDK\C251\LIB\C2SXS.LIB (?C?SLDIV)
         COMMENT TYPE 0: A251 V4.69.6.0
  D:\KEIL MDK\C251\LIB\C2SXS.LIB (STRLEN)
         COMMENT TYPE 0: C251 V5.58.7
  D:\KEIL MDK\C251\LIB\C2SXS.LIB (memset)
         COMMENT TYPE 0: C251 V5.58.7
  D:\KEIL MDK\C251\LIB\C2SXS.LIB (?C?INITEDATA_END)
         COMMENT TYPE 0: A251 V4.69.6.0
  D:\KEIL MDK\C251\LIB\C2SXS.LIB (?C?ULDIV)
         COMMENT TYPE 0: A251 V4.69.6.0
L251 LINKER/LOCATER V4.66.93.0                                                        03/20/2026  12:58:05  PAGE 2




ACTIVE MEMORY CLASSES OF MODULE:  .\Objects\STC32G_Test_06_SPIĶØŠÅOLEDĘĮ (main)

BASE        START       END         USED      MEMORY CLASS
==========================================================
000000H     000000H     000FFFH     00035FH   EDATA
000000H     000000H     000FFFH               HDATA
000000H     FF0000H     FFFFFFH     0002C8H   HCONST
FF0000H     FF0000H     FFFFFFH     003F15H   CODE
000020H.0   000020H.0   00002FH.7   000000H.4 BIT
010000H     010000H     01FFFFH     000417H   XDATA
FF0000H     FF0000H     FFFFFFH     000004H   CONST
000000H     000000H     00007FH     000008H   DATA


MEMORY MAP OF MODULE:  .\Objects\STC32G_Test_06_SPIĶØŠÅOLEDĘĮ (main)


START     STOP      LENGTH    ALIGN  RELOC    MEMORY CLASS   SEGMENT NAME
=========================================================================
000000H   000007H   000008H   ---    AT..     DATA           "REG BANK 0"
000008H   000013H   00000CH   BYTE   UNIT     EDATA          ?ED?OLED_BUFFSHOWCIRCLE?OLED
000014H   000018H   000005H   BYTE   UNIT     EDATA          ?ED?OLED_DRAWBMP?OLED
000019H   00001CH   000004H   BYTE   UNIT     EDATA          ?ED?OLED_BUFFSHOWNUM?OLED
00001DH.0 00001FH.7 000003H.0 ---    ---      **GAP**
000020H.0 000020H.2 000000H.3 BIT    UNIT     BIT            ?BI?MAIN
000020H.3 000020H.3 000000H.1 BIT    UNIT     BIT            ?BI?UART
000020H.4 000020H   000000H.4 ---    ---      **GAP**
000021H   0000C6H   0000A6H   BYTE   UNIT     EDATA          ?ED?RS485
0000C7H   000160H   00009AH   BYTE   UNIT     EDATA          _EDATA_GROUP_
000161H   0001E4H   000084H   BYTE   UNIT     EDATA          ?ED?UART
0001E5H   000239H   000055H   BYTE   UNIT     EDATA          ?ED?MAIN
00023AH   000266H   00002DH   BYTE   UNIT     EDATA          ?ED?KEY
000267H   00026AH   000004H   BYTE   UNIT     EDATA          ?ED?OLED_BUFFSHOWNUM02F?OLED
00026BH   00036AH   000100H   BYTE   UNIT     EDATA          ?STACK
00036BH   00FFFFH   00FC95H   ---    ---      **GAP**
010000H   0103FFH   000400H   BYTE   INSEG    XDATA          ?XD?OLED
010400H   010409H   00000AH   BYTE   UNIT     XDATA          ?XD?OLED_BUFFSHOWNUM?OLED
01040AH   010413H   00000AH   BYTE   UNIT     XDATA          ?XD?OLED_BUFFSHOWNUM02F?OLED
010414H   010416H   000003H   BYTE   UNIT     XDATA          ?XD?OLED_DRAWBMP?OLED
010417H   FEFFFFH   FDFBE9H   ---    ---      **GAP**
FF0000H   FF0002H   000003H   ---    OFFS..   CODE           ?CO?start251?4
FF0003H   FF0003H   000001H   BYTE   INSEG    CODE           ?PR?SPI_DMA_WAIT?SPI
FF0004H   FF0007H   000004H   BYTE   UNIT     CONST          ?CO?PRINTF
FF0008H   FF000AH   000003H   ---    ---      **GAP**
FF000BH   FF000DH   000003H   ---    OFFS..   CODE           ?PR?IV?1
FF000EH   FF0022H   000015H   BYTE   INSEG    CODE           ?PR?UART1_ISR?MAIN
FF0023H   FF0025H   000003H   ---    OFFS..   CODE           ?PR?IV?4
FF0026H   FF0042H   00001DH   BYTE   INSEG    CODE           ?PR?OLED_WR_BYTE?OLED
FF0043H   FF0045H   000003H   ---    OFFS..   CODE           ?PR?IV?8
FF0046H   FF0181H   00013CH   BYTE   INSEG    CODE           ?PR?KEY_SCANSINGLE?KEY
FF0182H   FF018AH   000009H   BYTE   INSEG    CODE           ?PR?UART1_SENDBYTE?UART
FF018BH   FF018DH   000003H   ---    OFFS..   CODE           ?CO?isr?1
FF018EH   FF0E35H   000CA8H   BYTE   UNIT     CODE           ?CO?OLED
FF0E36H   FF1A35H   000C00H   BYTE   UNIT     CODE           ?CO?MAIN
FF1A36H   FF2262H   00082DH   BYTE   UNIT     CODE           ?C?LIB_CODE
FF2263H   FF2502H   0002A0H   BYTE   INSEG    CODE           ?PR?PROCESSFRAME?RS485
FF2503H   FF279BH   000299H   BYTE   INSEG    CODE           ?PR?OLED_UPDATE?MAIN
FF279CH   FF297EH   0001E3H   BYTE   INSEG    CODE           ?PR?_M?MAIN
FF297FH   FF2AD8H   00015AH   BYTE   INSEG    CODE           ?PR?KEY_HANDLEEVENT?KEY
FF2AD9H   FF2C2FH   000157H   BYTE   INSEG    CODE           ?PR?MOTOR_CONTROLUPDATE?MAIN
FF2C30H   FF2D5FH   000130H   BYTE   INSEG    CODE           ?PR?TIMER0_ISR?MAIN
FF2D60H   FF2E62H   000103H   BYTE   INSEG    CODE           ?PR?OLED_BUFFSHOWCIRCLE?OLED
FF2E63H   FF2F5EH   0000FCH   BYTE   INSEG    CODE           ?PR?PID_CALC?PID
L251 LINKER/LOCATER V4.66.93.0                                                        03/20/2026  12:58:05  PAGE 3


FF2F5FH   FF3040H   0000E2H   BYTE   INSEG    CODE           ?PR?OLED_INIT?OLED
FF3041H   FF3103H   0000C3H   BYTE   INSEG    CODE           ?PR?OLED_BUFFSHOWLINE?OLED
FF3104H   FF31C1H   0000BEH   BYTE   INSEG    CODE           ?PR?OLED_BUFFSHOWGBK?OLED
FF31C2H   FF3276H   0000B5H   BYTE   INSEG    CODE           ?PR?MODBUS_SYNCREGS?MAIN
FF3277H   FF3317H   0000A1H   BYTE   INSEG    CODE           ?PR?PWM_INIT?TIMER
FF3318H   FF33A9H   000092H   BYTE   INSEG    CODE           ?PR?BUZZER_UPDATE?KEY
FF33AAH   FF3434H   00008BH   BYTE   INSEG    CODE           ?PR?OLED_BUFFSHOWCHAR?OLED
FF3435H   FF34BCH   000088H   BYTE   INSEG    CODE           ?PR?OLED_BUFFSHOWSTRING?OLED
FF34BDH   FF3543H   000087H   BYTE   INSEG    CODE           ?PR?PWMB_ENCODER_INIT?TIMER
FF3544H   FF35C7H   000084H   BYTE   INSEG    CODE           ?PR?OLED_DRAWBMP?OLED
FF35C8H   FF3648H   000081H   BYTE   INSEG    CODE           ?PR?OLED_BUFFSHOWCHAR32?OLED
FF3649H   FF36C4H   00007CH   BYTE   INSEG    CODE           ?PR?KEY_INIT?KEY
FF36C5H   FF372CH   000068H   BYTE   INSEG    CODE           ?PR?KEY_ADJUSTTARGET?KEY
FF372DH   FF3791H   000065H   BYTE   INSEG    CODE           ?PR?UART2_ISR?MAIN
FF3792H   FF37E8H   000057H   BYTE   INSEG    CODE           ?PR?OLED_BUFFSHOWBMP?OLED
FF37E9H   FF3837H   00004FH   BYTE   INSEG    CODE           ?PR?OLED_BUFFSHOWNUM02F?OLED
FF3838H   FF3886H   00004FH   BYTE   INSEG    CODE           ?PR?OLED_BUFFSHOWNUM?OLED
FF3887H   FF38D1H   00004BH   BYTE   INSEG    CODE           ?PR?OLED_BUFFSHOW?OLED
FF38D2H   FF391AH   000049H   BYTE   INSEG    CODE           ?PR?OLED_BUFFSHOWPOINT?OLED
FF391BH   FF392DH   000013H   BYTE   UNIT     CODE           ?C_C51STARTUP
FF392EH   FF3933H   000006H   BYTE   UNIT     CODE           ?C_C51STARTUP?1
FF3934H   FF395CH   000029H   BYTE   UNIT     CODE           ?C_C51STARTUP?2
FF395DH   FF395FH   000003H   BYTE   UNIT     CODE           ?C_C51STARTUP?3
FF3960H   FF399FH   000040H   BYTE   INSEG    CODE           ?PR?SYS_INIT?MAIN
FF39A0H   FF39DFH   000040H   BYTE   INSEG    CODE           ?PR?UART2_SENDBYTE?UART
FF39E0H   FF3A1FH   000040H   BYTE   INSEG    CODE           ?PR?BUZZER_PLAYTONE?KEY
FF3A20H   FF3A5EH   00003FH   BYTE   INSEG    CODE           ?PR?ENCODER_READ?TIMER
FF3A5FH   FF3A98H   00003AH   BYTE   INSEG    CODE           ?PR?CRC16?RS485
FF3A99H   FF3ACFH   000037H   BYTE   INSEG    CODE           ?PR?SENDRESPONSE?RS485
FF3AD0H   FF3B03H   000034H   BYTE   INSEG    CODE           ?PR?KEY_ISPRESSED?KEY
FF3B04H   FF3B37H   000034H   BYTE   INSEG    CODE           ?PR?PID_INIT?PID
FF3B38H   FF3B6AH   000033H   BYTE   INSEG    CODE           ?PR?OLED_BUFFSHOWRECTANGLE?OLED
FF3B6BH   FF3B9CH   000032H   BYTE   INSEG    CODE           ?PR?CLK_INIT?MAIN
FF3B9DH   FF3BCDH   000031H   BYTE   INSEG    CODE           ?PR?MODBUS_TIMERTICK?RS485
FF3BCEH   FF3BFAH   00002DH   BYTE   INSEG    CODE           ?PR?SPI_INIT?SPI
FF3BFBH   FF3C24H   00002AH   BYTE   INSEG    CODE           ?PR?UART2_READBYTE?UART
FF3C25H   FF3C4EH   00002AH   BYTE   INSEG    CODE           ?PR?UART2_INIT?UART
FF3C4FH   FF3C77H   000029H   BYTE   INSEG    CODE           ?PR?OLED_SET_POS?OLED
FF3C78H   FF3C9FH   000028H   BYTE   INSEG    CODE           ?PR?MODBUS_RXBYTE?RS485
FF3CA0H   FF3CC4H   000025H   BYTE   INSEG    CODE           ?PR?UART1_INIT?UART
FF3CC5H   FF3CE9H   000025H   BYTE   INSEG    CODE           ?PR?PWM_SETDUTY?TIMER
FF3CEAH   FF3D0CH   000023H   BYTE   INSEG    CODE           ?PR?SPI_TRANSMIT?SPI
FF3D0DH   FF3D2EH   000022H   BYTE   INSEG    CODE           ?PR?PRINTF?UART
FF3D2FH   FF3D4FH   000021H   BYTE   INSEG    CODE           ?PR?KEY_SCAN?KEY
FF3D50H   FF3D6FH   000020H   BYTE   INSEG    CODE           ?PR?KEY_CLEAREVENT?KEY
FF3D70H   FF3D8EH   00001FH   BYTE   INSEG    CODE           ?PR?KEY_GETEVENT?KEY
FF3D8FH   FF3DA9H   00001BH   BYTE   INSEG    CODE           ?PR?MAIN?MAIN
FF3DAAH   FF3DC4H   00001BH   BYTE   INSEG    CODE           ?PR?OLED_BUFFCLEAR?OLED
FF3DC5H   FF3DDFH   00001BH   BYTE   INSEG    CODE           ?PR?SENDEXCEPTION?RS485
FF3DE0H   FF3DFAH   00001BH   BYTE   INSEG    CODE           ?PR?PID_RESET?PID
FF3DFBH   FF3E14H   00001AH   BYTE   INSEG    CODE           ?PR?MEMSET?_?MEMSET
FF3E15H   FF3E2BH   000017H   BYTE   INSEG    CODE           ?PR?DELAY_MS?OLED
FF3E2CH   FF3E41H   000016H   BYTE   INSEG    CODE           ?PR?UART1_SENDSTR?UART
FF3E42H   FF3E57H   000016H   BYTE   INSEG    CODE           ?PR?UART2_SENDSTRING?UART
FF3E58H   FF3E6CH   000015H   BYTE   INSEG    CODE           ?PR?OLED_DISPLAYON?OLED
FF3E6DH   FF3E81H   000015H   BYTE   INSEG    CODE           ?PR?OLED_DISPLAYOFF?OLED
FF3E82H   FF3E96H   000015H   BYTE   INSEG    CODE           ?PR?TIMER0_INIT?TIMER
FF3E97H   FF3EAAH   000014H   BYTE   INSEG    CODE           ?PR?SPI_WRITEBYTE?SPI
FF3EABH   FF3EBEH   000014H   BYTE   INSEG    CODE           ?PR?PWM_OUTPUTENABLE?TIMER
FF3EBFH   FF3ED2H   000014H   BYTE   INSEG    CODE           ?PR?MODBUS_POLL?RS485
FF3ED3H   FF3EE5H   000013H   BYTE   INSEG    CODE           ?PR?PWM_OUTPUTDISABLE?TIMER
FF3EE6H   FF3EF7H   000012H   BYTE   INSEG    CODE           ?PR?MODBUS_INIT?RS485
FF3EF8H   FF3F05H   00000EH   BYTE   INSEG    CODE           ?PR?STRLEN?_?STRLEN
FF3F06H   FF3F10H   00000BH   BYTE   INSEG    CODE           ?PR?DELAY?OLED
FF3F11H   FF3F1BH   00000BH   BYTE   INSEG    CODE           ?PR?BUZZER_ISBUSY?KEY
L251 LINKER/LOCATER V4.66.93.0                                                        03/20/2026  12:58:05  PAGE 4


FF3F1CH   FF408EH   000173H   BYTE   UNIT     HCONST         ?HC?MAIN
FF408FH   FF413BH   0000ADH   BYTE   UNIT     HCONST         ?HC?KEY
FF413CH   FF41DAH   00009FH   BYTE   UNIT     HCONST         ?C_INITEDATA
FF41DBH   FF41E3H   000009H   BYTE   UNIT     HCONST         ?HC?OLED



OVERLAY MAP OF MODULE:   .\Objects\STC32G_Test_06_SPIĶØŠÅOLEDĘĮ (main)


FUNCTION/MODULE                  EDATA_GROUP
--> CALLED FUNCTION/MODULE       START  STOP
============================================
Timer0_ISR/main                  ----- -----
  +--> Modbus_TimerTick/rs485
  +--> Key_Scan/key
  +--> Buzzer_Update/key
  +--> Encoder_Read/timer
  +--> ?C?SLDIV/?C?SLDIV
  +--> Motor_ControlUpdate/main

Modbus_TimerTick/rs485           ----- -----

Key_Scan/key                     ----- -----
  +--> Key_ScanSingle/key

Key_ScanSingle/key               ----- -----

Buzzer_Update/key                ----- -----

Encoder_Read/timer               ----- -----

?C?SLDIV/?C?SLDIV                ----- -----
  +--> ?C?ULIDIV/?C?ULDIV

?C?ULIDIV/?C?ULDIV               ----- -----

Motor_ControlUpdate/main         00C7H 00CCH
  +--> PWM_SetDuty/timer
  +--> PWM_OutputDisable/timer
  +--> PID_Reset/pid
  +--> PWM_OutputEnable/timer
  +--> PID_Calc/pid

PWM_SetDuty/timer                ----- -----

PWM_OutputDisable/timer          ----- -----

PID_Reset/pid                    ----- -----

PWM_OutputEnable/timer           ----- -----

PID_Calc/pid                     ----- -----
  +--> ?C?SLDIV/?C?SLDIV

*** NEW ROOT *******************

UART1_ISR/main                   ----- -----

*** NEW ROOT *******************

UART2_ISR/main                   ----- -----
  +--> Modbus_RxByte/rs485

Modbus_RxByte/rs485              ----- -----
L251 LINKER/LOCATER V4.66.93.0                                                        03/20/2026  12:58:05  PAGE 5



*** NEW ROOT *******************

?C_C51STARTUP?1                  ----- -----

*** NEW ROOT *******************

?C_C51STARTUP                    ----- -----

*** NEW ROOT *******************

?C_C51STARTUP?3                  ----- -----
  +--> main/main

main/main                        ----- -----
  +--> _m/main
  +--> SPRINTF/SPRINTF
  +--> strlen?_/STRLEN

_m/main                          ----- -----
  +--> Sys_init/main
  +--> CLK_Init/main
  +--> SPI_Init/spi
  +--> UART1_Init/uart
  +--> UART2_Init/uart
  +--> Timer0_Init/timer
  +--> PWM_Init/timer
  +--> PWMB_Encoder_Init/timer
  +--> Modbus_Init/rs485
  +--> PWM_SetDuty/timer
  +--> Key_Init/key
  +--> Buzzer_PlayTone/key
  +--> PID_Init/pid
  +--> Printf/uart
  +--> OLED_Init/oled
  +--> OLED_BuffClear/oled
  +--> OLED_BuffShow/oled
  +--> Modbus_SyncRegs/main
  +--> Modbus_Poll/rs485
  +--> Key_HandleEvent/key
  +--> OLED_Update/main

Sys_init/main                    ----- -----

CLK_Init/main                    ----- -----

SPI_Init/spi                     ----- -----

UART1_Init/uart                  ----- -----

UART2_Init/uart                  ----- -----

Timer0_Init/timer                ----- -----

PWM_Init/timer                   ----- -----

PWMB_Encoder_Init/timer          ----- -----

Modbus_Init/rs485                ----- -----

Key_Init/key                     ----- -----
  +--> Printf/uart

Printf/uart                      00CDH 015CH
  +--> VSPRINTF/VSPRINTF
L251 LINKER/LOCATER V4.66.93.0                                                        03/20/2026  12:58:05  PAGE 6


  +--> UART1_SendStr/uart

VSPRINTF/VSPRINTF                015DH 0160H
  +--> OUT/VSPRINTF

OUT/VSPRINTF                     ----- -----
  +--> PUTCH/VSPRINTF

PUTCH/VSPRINTF                   ----- -----

UART1_SendStr/uart               ----- -----
  +--> UART1_SendByte/uart

UART1_SendByte/uart              ----- -----

Buzzer_PlayTone/key              ----- -----

PID_Init/pid                     00CDH 00D8H
  +--> PID_Reset/pid

OLED_Init/oled                   ----- -----
  +--> SPI_Init/spi
  +--> delay_ms/oled
  +--> OLED_WR_Byte/oled
  +--> OLED_DisplayOn/oled

delay_ms/oled                    ----- -----

OLED_WR_Byte/oled                ----- -----
  +--> SPI_WriteByte/spi
  +--> delay/oled

SPI_WriteByte/spi                ----- -----

delay/oled                       ----- -----

OLED_DisplayOn/oled              ----- -----
  +--> OLED_WR_Byte/oled

OLED_BuffClear/oled              ----- -----

OLED_BuffShow/oled               ----- -----
  +--> SPI_WriteByte/spi
  +--> SPI_Transmit/spi
  +--> SPI_DMA_Wait/spi

SPI_Transmit/spi                 ----- -----

SPI_DMA_Wait/spi                 ----- -----

Modbus_SyncRegs/main             ----- -----

Modbus_Poll/rs485                ----- -----
  +--> ProcessFrame/rs485

ProcessFrame/rs485               00CDH 00CEH
  +--> CRC16/rs485
  +--> SendResponse/rs485
  +--> SendException/rs485

CRC16/rs485                      ----- -----

SendResponse/rs485               ----- -----
  +--> CRC16/rs485
  +--> UART2_SendByte/uart
L251 LINKER/LOCATER V4.66.93.0                                                        03/20/2026  12:58:05  PAGE 7



UART2_SendByte/uart              ----- -----

SendException/rs485              ----- -----
  +--> SendResponse/rs485

Key_HandleEvent/key              ----- -----
  +--> Key_GetEvent/key
  +--> Buzzer_PlayTone/key
  +--> Printf/uart
  +--> Key_ClearEvent/key
  +--> Key_AdjustTarget/key

Key_GetEvent/key                 ----- -----

Key_ClearEvent/key               ----- -----

Key_AdjustTarget/key             ----- -----
  +--> Printf/uart

OLED_Update/main                 00CDH 00DDH
  +--> OLED_BuffClear/oled
  +--> OLED_BuffShowString/oled
  +--> SPRINTF/SPRINTF
  +--> OLED_BuffShowLine/oled
  +--> OLED_BuffShow/oled

OLED_BuffShowString/oled         00DEH 00E2H
  +--> OLED_BuffShowChar/oled
  +--> OLED_BuffShowGBK/oled

OLED_BuffShowChar/oled           ----- -----

OLED_BuffShowGBK/oled            ----- -----

SPRINTF/SPRINTF                  00DEH 0105H
  +--> OUT/SPRINTF

OUT/SPRINTF                      ----- -----
  +--> PUTCH/SPRINTF

PUTCH/SPRINTF                    ----- -----

OLED_BuffShowLine/oled           00DEH 00DFH
  +--> OLED_BuffShowPoint/oled

OLED_BuffShowPoint/oled          ----- -----

strlen?_/STRLEN                  ----- -----

*** NEW ROOT *******************

?C_C51STARTUP?2                  ----- -----



PUBLIC SYMBOLS OF MODULE:  .\Objects\STC32G_Test_06_SPIĶØŠÅOLEDĘĮ (main)


      VALUE       CLASS    TYPE      PUBLIC SYMBOL NAME
      =================================================
      000000FFH   NUMBER   ---       ?C?CODESEG
      00FF1EBCH   CODE     ---       ?C?FPCONVERT
      00FF2057H   CODE     ---       ?C?FPDIV
      00FF213FH   CODE     ---       ?C?FPGETOPN2
L251 LINKER/LOCATER V4.66.93.0                                                        03/20/2026  12:58:05  PAGE 8


      00FF1FB7H   CODE     ---       ?C?FPMUL
      00FF217CH   CODE     ---       ?C?FPNANRESULT
      00FF2184H   CODE     ---       ?C?FPOVERFLOW
      00FF2158H   CODE     ---       ?C?FPRESULT
      00FF216EH   CODE     ---       ?C?FPRESULT2
      00FF1F74H   CODE     ---       ?C?FPROUND
      00FF2181H   CODE     ---       ?C?FPUNDERFLOW
      00FF2108H   CODE     ---       ?C?FTNPWR
      00FF3934H   CODE     ---       ?C?INITEDATA
      00FF41D9H   HCONST   WORD      ?C?INITEDATA_END
      00FF21D3H   CODE     ---       ?C?LIMUL
      00FF21C2H   CODE     ---       ?C?LMUL
      00FF1A9FH   CODE     ---       ?C?PRNFMT
      00FF2190H   CODE     ---       ?C?SIDIV
      00FF21DCH   CODE     NEAR LAB  ?C?SLDIV
      00FF0000H   CODE     ---       ?C?STARTUP
      00FF2212H   CODE     NEAR LAB  ?C?ULDIV
      00FF2210H   CODE     NEAR LAB  ?C?ULIDIV
      00000001H   NUMBER   ---       ?C?XDATASEG
      00FF0000H   CODE     ---       ?C_STARTUP
      000000C5H   EDATA    ---       ?PID_Init?BYTE
      000000F5H   EDATA    BYTE      ?Printf?BYTE
      00000106H   EDATA    ---       ?sprintf?BYTE
      00000155H   EDATA    ---       ?vsprintf?BYTE
      00FF279CH   CODE     ---       _m
*SFR* 000000E0H   DATA     BYTE      ACC
*SFR* 000000BCH   DATA     BYTE      ADC_CONTR
*SFR* 000000DEH   DATA     BYTE      ADCCFG
      00FF048EH   CODE     ---       Ascll_16
*SFR* 000000EFH   DATA     BYTE      AUXINTIF
*SFR* 0000008EH   DATA     BYTE      AUXR
*SFR* 00000097H   DATA     BYTE      AUXR2
*SFR* 000000F0H   DATA     BYTE      B
      00000020H.2 BIT      BIT       B_Change
*SFR* 00000090H.3 DATA     BIT       BUZZER
      00FF3F11H   CODE     ---       Buzzer_IsBusy
      00FF39E0H   CODE     ---       Buzzer_PlayTone
      00FF3318H   CODE     ---       Buzzer_Update
*SFR* 000000F1H   DATA     BYTE      CANICR
*SFR* 000000EAH   DATA     BYTE      CKCON
      00FF3B6BH   CODE     ---       CLK_Init
*SFR* 000000E6H   DATA     BYTE      CMPCR1
*SFR* 000000E7H   DATA     BYTE      CMPCR2
*SFR* 000000CEH.2 DATA     BIT       CPHA
*SFR* 000000CEH.3 DATA     BIT       CPOL
      00000020H.0 BIT      BIT       debug_flag
      00FF3E15H   CODE     ---       delay_ms
      00000020H.1 BIT      BIT       disp_flag
*SFR* 000000CEH.5 DATA     BIT       DORD
*SFR* 000000A8H.7 DATA     BIT       EA
*SFR* 000000BAH.7 DATA     BIT       EAXFR
      00FF3A20H   CODE     ---       Encoder_Read
*SFR* 000000A8H.4 DATA     BIT       ES
*SFR* 000000A8H.1 DATA     BIT       ET0
      000001E8H   EDATA    BYTE      g_ctrl_mode
      000001F2H   EDATA    INT       g_enc_cnt
      00000200H   EDATA    INT       g_enc_delta
      000001E9H   EDATA    LONG      g_enc_total
      000001EFH   EDATA    BYTE      g_key_adj_target
      000001FEH   EDATA    INT       g_motor_angle
      0000021EH   EDATA    INT       g_motor_speed
      00000204H   EDATA    ---       g_pid_angle
      00000220H   EDATA    ---       g_pid_speed
      000001F4H   EDATA    WORD      g_pwm_duty
      000001E5H   EDATA    INT       g_set_angle
L251 LINKER/LOCATER V4.66.93.0                                                        03/20/2026  12:58:05  PAGE 9


      000001EDH   EDATA    INT       g_set_speed
      000001F8H   EDATA    WORD      g_status_flags
      00FF0A7EH   CODE     ---       GBK16
*SFR* 000000C7H   DATA     BYTE      IAP_CONTR
*SFR* 000000A8H   DATA     BYTE      IE
*SFR* 000000AFH   DATA     BYTE      IE2
*SFR* 0000008FH   DATA     BYTE      INTCLKO
*SFR* 000000B8H   DATA     BYTE      IP
*SFR* 000000B5H   DATA     BYTE      IP2
*SFR* 000000B6H   DATA     BYTE      IP2H
*SFR* 000000DFH   DATA     BYTE      IP3
*SFR* 000000EEH   DATA     BYTE      IP3H
*SFR* 000000B7H   DATA     BYTE      IPH
*SFR* 0000009DH   DATA     BYTE      IRCBAND
      00000240H   EDATA    ---       key1
*SFR* 000000C0H.4 DATA     BIT       KEY1_PIN
      0000024DH   EDATA    ---       key2
*SFR* 000000C0H.3 DATA     BIT       KEY2_PIN
      0000025AH   EDATA    ---       key3
*SFR* 000000C0H.2 DATA     BIT       KEY3_PIN
      00FF3D50H   CODE     ---       Key_ClearEvent
      00FF3D70H   CODE     ---       Key_GetEvent
      00FF297FH   CODE     ---       Key_HandleEvent
      00FF3649H   CODE     ---       Key_Init
      00FF3AD0H   CODE     ---       Key_IsPressed
      00FF3D2FH   CODE     ---       Key_Scan
      00FF0E36H   CODE     ---       LCD12864_IMG
      00FF018EH   CODE     ---       lib_num1632
*SFR* 000000F9H   DATA     BYTE      LINICR
      00FF3D8FH   CODE     ---       main
      00FF3DFBH   CODE     ---       memset?_
      000000A2H   EDATA    BYTE      modbus_coils
      00FF3EE6H   CODE     ---       Modbus_Init
      00FF3EBFH   CODE     ---       Modbus_Poll
      000000A4H   EDATA    ---       modbus_regs
      00FF3C78H   CODE     ---       Modbus_RxByte
      00FF3B9DH   CODE     ---       Modbus_TimerTick
      00000202H   EDATA    WORD      ms_tick
*SFR* 000000CEH.4 DATA     BIT       MSTR
      00FF1636H   CODE     ---       OLED12864_IMG
      00FF1236H   CODE     ---       OLED12864_ZWU_LOGO
      00FF3DAAH   CODE     ---       OLED_BuffClear
      00FF3887H   CODE     ---       OLED_BuffShow
      00FF3792H   CODE     ---       OLED_BuffShowBMP
      00FF33AAH   CODE     ---       OLED_BuffShowChar
      00FF35C8H   CODE     ---       OLED_BuffShowChar32
      00FF2D60H   CODE     ---       OLED_BuffShowCircle
      00FF3104H   CODE     ---       OLED_BuffShowGBK
      00FF3041H   CODE     ---       OLED_BuffShowLine
      00FF3838H   CODE     ---       OLED_BuffShowNum
      00FF37E9H   CODE     ---       OLED_BuffShowNum02F
      00FF38D2H   CODE     ---       OLED_BuffShowPoint
      00FF3B38H   CODE     ---       OLED_BuffShowRectangle
      00FF3435H   CODE     ---       OLED_BuffShowString
*SFR* 000000C0H.5 DATA     BIT       OLED_CS
*SFR* 000000A0H.7 DATA     BIT       OLED_DC
      00FF3E6DH   CODE     ---       OLED_DisplayOff
      00FF3E58H   CODE     ---       OLED_DisplayOn
      00FF3544H   CODE     ---       OLED_DrawBMP
      00FF2F5FH   CODE     ---       OLED_Init
*SFR* 000000A0H.6 DATA     BIT       OLED_REST
      00FF3C4FH   CODE     ---       OLED_Set_Pos
      00FF0026H   CODE     ---       OLED_WR_Byte
*SFR* 00000080H   DATA     BYTE      P0
*SFR* 00000094H   DATA     BYTE      P0M0
L251 LINKER/LOCATER V4.66.93.0                                                        03/20/2026  12:58:05  PAGE 10


*SFR* 00000093H   DATA     BYTE      P0M1
*SFR* 00000090H   DATA     BYTE      P1
*SFR* 00000092H   DATA     BYTE      P1M0
*SFR* 00000091H   DATA     BYTE      P1M1
*SFR* 000000A0H   DATA     BYTE      P2
*SFR* 00000096H   DATA     BYTE      P2M0
*SFR* 00000095H   DATA     BYTE      P2M1
*SFR* 000000B0H   DATA     BYTE      P3
*SFR* 000000B2H   DATA     BYTE      P3M0
*SFR* 000000B1H   DATA     BYTE      P3M1
*SFR* 000000C0H   DATA     BYTE      P4
*SFR* 000000B4H   DATA     BYTE      P4M0
*SFR* 000000B3H   DATA     BYTE      P4M1
*SFR* 000000C8H   DATA     BYTE      P5
*SFR* 000000CAH   DATA     BYTE      P5M0
*SFR* 000000C9H   DATA     BYTE      P5M1
*SFR* 000000E8H   DATA     BYTE      P6
*SFR* 000000CCH   DATA     BYTE      P6M0
*SFR* 000000CBH   DATA     BYTE      P6M1
*SFR* 000000F8H   DATA     BYTE      P7
*SFR* 000000E2H   DATA     BYTE      P7M0
*SFR* 000000E1H   DATA     BYTE      P7M1
*SFR* 000000A2H   DATA     BYTE      P_SW1
*SFR* 000000BAH   DATA     BYTE      P_SW2
*SFR* 000000BBH   DATA     BYTE      P_SW3
*SFR* 00000087H   DATA     BYTE      PCON
      00FF2E63H   CODE     ---       PID_Calc
      00FF3B04H   CODE     ---       PID_Init
      00FF3DE0H   CODE     ---       PID_Reset
      00FF3D0DH   CODE     ---       Printf
*SFR* 000000D0H   DATA     BYTE      PSW
      00FF3277H   CODE     ---       PWM_Init
      00FF3ED3H   CODE     ---       PWM_OutputDisable
      00FF3EABH   CODE     ---       PWM_OutputEnable
      00FF3CC5H   CODE     ---       PWM_SetDuty
      00FF34BDH   CODE     ---       PWMB_Encoder_Init
*SFR* 00000098H.0 DATA     BIT       RI
*SFR* 000000FFH   DATA     BYTE      RSTCFG
*SFR* 000000BAH.0 DATA     BIT       S2_S
*SFR* 0000009BH   DATA     BYTE      S2BUF
*SFR* 0000009AH   DATA     BYTE      S2CON
*SFR* 000000ACH   DATA     BYTE      S3CON
*SFR* 000000FDH   DATA     BYTE      S4CON
*SFR* 00000099H   DATA     BYTE      SBUF
*SFR* 00000098H   DATA     BYTE      SCON
      00010000H   XDATA    ---       ShowBUFF
*SFR* 000000CEH   DATA     BYTE      SPCTL
*SFR* 000000CFH   DATA     BYTE      SPDAT
*SFR* 000000CEH.6 DATA     BIT       SPEN
      00FF0003H   CODE     ---       SPI_DMA_Wait
      00FF3BCEH   CODE     ---       SPI_Init
*SFR* 000000A0H.3 DATA     BIT       SPI_MOSI
*SFR* 000000A0H.5 DATA     BIT       SPI_SCK
      00FF3CEAH   CODE     ---       SPI_Transmit
      00FF3E97H   CODE     ---       SPI_WriteByte
*SFR* 000000CDH.7 DATA     BIT       SPIF
      00FF1A36H   CODE     NEAR LAB  sprintf
*SFR* 000000CDH   DATA     BYTE      SPSTAT
*SFR* 000000CEH.7 DATA     BIT       SSIG
      00FF3EF8H   CODE     ---       strlen?_
      00FF3960H   CODE     ---       Sys_init
*SFR* 000000D6H   DATA     BYTE      T2H
*SFR* 000000D7H   DATA     BYTE      T2L
*SFR* 000000DDH   DATA     BYTE      T4T3M
*SFR* 00000088H   DATA     BYTE      TCON
L251 LINKER/LOCATER V4.66.93.0                                                        03/20/2026  12:58:05  PAGE 11


      000001F6H   EDATA    WORD      test_pwmb
*SFR* 00000088H.5 DATA     BIT       TF0
*SFR* 0000008CH   DATA     BYTE      TH0
*SFR* 0000008DH   DATA     BYTE      TH1
*SFR* 00000098H.1 DATA     BIT       TI
      00FF3E82H   CODE     ---       Timer0_Init
      00FF2C30H   CODE     ---       Timer0_ISR
*SFR* 0000008AH   DATA     BYTE      TL0
*SFR* 0000008BH   DATA     BYTE      TL1
*SFR* 00000089H   DATA     BYTE      TMOD
*SFR* 00000088H.4 DATA     BIT       TR0
*SFR* 00000088H.6 DATA     BIT       TR1
      00FF3CA0H   CODE     ---       UART1_Init
      00FF000EH   CODE     ---       UART1_ISR
      00FF0182H   CODE     ---       UART1_SendByte
      00FF3E2CH   CODE     ---       UART1_SendStr
      00FF3C25H   CODE     ---       UART2_Init
      00FF372DH   CODE     ---       UART2_ISR
      00FF3BFBH   CODE     ---       UART2_ReadByte
      00000165H   EDATA    ---       uart2_rx_buf
      00000161H   EDATA    BYTE      uart2_rx_head
      00000163H   EDATA    BYTE      uart2_rx_tail
      00FF39A0H   CODE     ---       UART2_SendByte
      00FF3E42H   CODE     ---       UART2_SendString
      000001A5H   EDATA    ---       uart2_tx_buf
      00000020H.3 BIT      BIT       uart2_tx_busy
      00000162H   EDATA    BYTE      uart2_tx_head
      00000164H   EDATA    BYTE      uart2_tx_tail
*SFR* 000000F4H   DATA     BYTE      USBCON
      00FF1A56H   CODE     NEAR LAB  vsprintf
*SFR* 000000CDH.6 DATA     BIT       WCOL
*SFR* 000000C1H   DATA     BYTE      WDT_CONTR
*SFR* 000000E9H   DATA     BYTE      WTST



SYMBOL TABLE OF MODULE:  .\Objects\STC32G_Test_06_SPIĶØŠÅOLEDĘĮ (main)

      VALUE       REP       CLASS    TYPE      SYMBOL NAME
      ====================================================
      ---         MODULE    ---      ---       main
      00FF2C30H   PUBLIC    CODE     ---       Timer0_ISR
      00FF3D8FH   PUBLIC    CODE     ---       main
      00FF000EH   PUBLIC    CODE     ---       UART1_ISR
      00FF372DH   PUBLIC    CODE     ---       UART2_ISR
      00FF279CH   PUBLIC    CODE     ---       _m
      00FF3B6BH   PUBLIC    CODE     ---       CLK_Init
      00FF3960H   PUBLIC    CODE     ---       Sys_init
      000001E5H   PUBLIC    EDATA    INT       g_set_angle
      000001E8H   PUBLIC    EDATA    BYTE      g_ctrl_mode
      000001E9H   PUBLIC    EDATA    LONG      g_enc_total
      000001EDH   PUBLIC    EDATA    INT       g_set_speed
      000001EFH   PUBLIC    EDATA    BYTE      g_key_adj_target
      000001F2H   PUBLIC    EDATA    INT       g_enc_cnt
      000001F4H   PUBLIC    EDATA    WORD      g_pwm_duty
      000001F6H   PUBLIC    EDATA    WORD      test_pwmb
      000001F8H   PUBLIC    EDATA    WORD      g_status_flags
      000001FEH   PUBLIC    EDATA    INT       g_motor_angle
      00000200H   PUBLIC    EDATA    INT       g_enc_delta
      00000202H   PUBLIC    EDATA    WORD      ms_tick
      00000204H   PUBLIC    EDATA    ---       g_pid_angle
      0000021EH   PUBLIC    EDATA    INT       g_motor_speed
      00000220H   PUBLIC    EDATA    ---       g_pid_speed
      00000020H.0 PUBLIC    BIT      BIT       debug_flag
      00000020H.1 PUBLIC    BIT      BIT       disp_flag
L251 LINKER/LOCATER V4.66.93.0                                                        03/20/2026  12:58:05  PAGE 12


      00000020H.2 PUBLIC    BIT      BIT       B_Change
      00FF0E36H   PUBLIC    CODE     ---       LCD12864_IMG
      00FF1236H   PUBLIC    CODE     ---       OLED12864_ZWU_LOGO
      00FF1636H   PUBLIC    CODE     ---       OLED12864_IMG
      00000094H   SFRSYM    DATA     BYTE      P0M0
      000000D0H   SFRSYM    DATA     BYTE      PSW
      000000BAH.7 SFRSYM    DATA     BIT       EAXFR
      0000009DH   SFRSYM    DATA     BYTE      IRCBAND
      00000097H   SFRSYM    DATA     BYTE      AUXR2
      000000EAH   SFRSYM    DATA     BYTE      CKCON
      000000EFH   SFRSYM    DATA     BYTE      AUXINTIF
      000000FDH   SFRSYM    DATA     BYTE      S4CON
      000000ACH   SFRSYM    DATA     BYTE      S3CON
      0000009AH   SFRSYM    DATA     BYTE      S2CON
      0000009BH   SFRSYM    DATA     BYTE      S2BUF
      000000B7H   SFRSYM    DATA     BYTE      IPH
      000000CDH   SFRSYM    DATA     BYTE      SPSTAT
      000000DDH   SFRSYM    DATA     BYTE      T4T3M
      000000C1H   SFRSYM    DATA     BYTE      WDT_CONTR
      000000E9H   SFRSYM    DATA     BYTE      WTST
      000000DFH   SFRSYM    DATA     BYTE      IP3
      000000F4H   SFRSYM    DATA     BYTE      USBCON
      000000B5H   SFRSYM    DATA     BYTE      IP2
      000000FFH   SFRSYM    DATA     BYTE      RSTCFG
      000000E0H   SFRSYM    DATA     BYTE      ACC
      000000C7H   SFRSYM    DATA     BYTE      IAP_CONTR
      000000F9H   SFRSYM    DATA     BYTE      LINICR
      0000008EH   SFRSYM    DATA     BYTE      AUXR
      000000F0H   SFRSYM    DATA     BYTE      B
      000000AFH   SFRSYM    DATA     BYTE      IE2
      00000088H   SFRSYM    DATA     BYTE      TCON
      00000089H   SFRSYM    DATA     BYTE      TMOD
      00000098H   SFRSYM    DATA     BYTE      SCON
      000000F1H   SFRSYM    DATA     BYTE      CANICR
      00000087H   SFRSYM    DATA     BYTE      PCON
      00000099H   SFRSYM    DATA     BYTE      SBUF
      000000BCH   SFRSYM    DATA     BYTE      ADC_CONTR
      000000E7H   SFRSYM    DATA     BYTE      CMPCR2
      000000E6H   SFRSYM    DATA     BYTE      CMPCR1
      00000098H.1 SFRSYM    DATA     BIT       TI
      00000098H.0 SFRSYM    DATA     BIT       RI
      000000DEH   SFRSYM    DATA     BYTE      ADCCFG
      000000B8H   SFRSYM    DATA     BYTE      IP
      0000008FH   SFRSYM    DATA     BYTE      INTCLKO
      000000EEH   SFRSYM    DATA     BYTE      IP3H
      000000B6H   SFRSYM    DATA     BYTE      IP2H
      000000A8H   SFRSYM    DATA     BYTE      IE
      000000BBH   SFRSYM    DATA     BYTE      P_SW3
      000000BAH   SFRSYM    DATA     BYTE      P_SW2
      000000A2H   SFRSYM    DATA     BYTE      P_SW1
      000000CEH   SFRSYM    DATA     BYTE      SPCTL
      000000F8H   SFRSYM    DATA     BYTE      P7
      000000E1H   SFRSYM    DATA     BYTE      P7M1
      000000E8H   SFRSYM    DATA     BYTE      P6
      000000C8H   SFRSYM    DATA     BYTE      P5
      000000CBH   SFRSYM    DATA     BYTE      P6M1
      000000E2H   SFRSYM    DATA     BYTE      P7M0
      000000C0H   SFRSYM    DATA     BYTE      P4
      000000C9H   SFRSYM    DATA     BYTE      P5M1
      000000CCH   SFRSYM    DATA     BYTE      P6M0
      000000B0H   SFRSYM    DATA     BYTE      P3
      000000B3H   SFRSYM    DATA     BYTE      P4M1
      000000CAH   SFRSYM    DATA     BYTE      P5M0
      000000A0H   SFRSYM    DATA     BYTE      P2
      000000B1H   SFRSYM    DATA     BYTE      P3M1
L251 LINKER/LOCATER V4.66.93.0                                                        03/20/2026  12:58:05  PAGE 13


      000000B4H   SFRSYM    DATA     BYTE      P4M0
      00000090H   SFRSYM    DATA     BYTE      P1
      00000095H   SFRSYM    DATA     BYTE      P2M1
      000000B2H   SFRSYM    DATA     BYTE      P3M0
      00000080H   SFRSYM    DATA     BYTE      P0
      00000091H   SFRSYM    DATA     BYTE      P1M1
      00000096H   SFRSYM    DATA     BYTE      P2M0
      00000092H   SFRSYM    DATA     BYTE      P1M0
      00000093H   SFRSYM    DATA     BYTE      P0M1
      00FF31C2H   SYMBOL    CODE     ---       Modbus_SyncRegs
      00FF2AD9H   SYMBOL    CODE     ---       Motor_ControlUpdate
      00FF2503H   SYMBOL    CODE     ---       OLED_Update
      000001E7H   SYMBOL    EDATA    BYTE      g_speed_idx
      000001F0H   SYMBOL    EDATA    INT       g_enc_last
      000001FAH   SYMBOL    EDATA    LONG      g_speed_acc

      00FF31C2H   BLOCK     CODE     ---       LVL=0
      WR6         REGSYM    ---      INT       user_angle
      00FF3206H   BLOCK     CODE     NEAR LAB  LVL=1
      WR6         REGSYM    ---      INT       user_set
      WR6         REGSYM    ---      INT       internal_set
      ---         BLOCKEND  ---      ---       LVL=1
      00FF31C2H   LINE      CODE     ---       #214
      00FF31C2H   LINE      CODE     ---       #218
      00FF31C2H   LINE      CODE     ---       #219
      00FF31CAH   LINE      CODE     ---       #221
      00FF31D4H   LINE      CODE     ---       #222
      00FF31D8H   LINE      CODE     ---       #224
      00FF31E0H   LINE      CODE     ---       #225
      00FF31EAH   LINE      CODE     ---       #226
      00FF31EEH   LINE      CODE     ---       #227
      00FF31F6H   LINE      CODE     ---       #228
      00FF31FEH   LINE      CODE     ---       #235
      00FF3206H   LINE      CODE     ---       #240
      00FF3206H   LINE      CODE     ---       #241
      00FF320AH   LINE      CODE     ---       #242
      00FF320EH   LINE      CODE     ---       #244
      00FF3218H   LINE      CODE     ---       #245
      00FF3222H   LINE      CODE     ---       #246
      00FF3226H   LINE      CODE     ---       #248
      00FF322EH   LINE      CODE     ---       #254
      00FF3236H   LINE      CODE     ---       #255
      00FF323EH   LINE      CODE     ---       #256
      00FF3246H   LINE      CODE     ---       #257
      00FF324EH   LINE      CODE     ---       #258
      00FF3256H   LINE      CODE     ---       #259
      00FF325EH   LINE      CODE     ---       #262
      00FF326AH   LINE      CODE     ---       #264
      00FF3270H   LINE      CODE     ---       #265
      00FF3276H   LINE      CODE     ---       #266
      ---         BLOCKEND  ---      ---       LVL=0

      00FF2AD9H   BLOCK     CODE     ---       LVL=0
      00FF2ADBH   BLOCK     CODE     NEAR LAB  LVL=1
      000000C7H   SYMBOL    EDATA    LONG      pid_out
      WR6         REGSYM    ---      INT       speed_sp
      DR12        REGSYM    ---      LONG      duty_l
      000000CBH   SYMBOL    EDATA    WORD      pwm_duty
      00FF2B6BH   BLOCK     CODE     NEAR LAB  LVL=2
      WR4         REGSYM    ---      INT       angle_err
      ---         BLOCKEND  ---      ---       LVL=2
      ---         BLOCKEND  ---      ---       LVL=1
      00FF2AD9H   LINE      CODE     ---       #269
      00FF2ADBH   LINE      CODE     ---       #270
      00FF2ADBH   LINE      CODE     ---       #274
L251 LINKER/LOCATER V4.66.93.0                                                        03/20/2026  12:58:05  PAGE 14


      00FF2AE3H   LINE      CODE     ---       #277
      00FF2AEFH   LINE      CODE     ---       #279
      00FF2AF2H   LINE      CODE     ---       #280
      00FF2AF5H   LINE      CODE     ---       #281
      00FF2AFDH   LINE      CODE     ---       #282
      00FF2B04H   LINE      CODE     ---       #289
      00FF2B0BH   LINE      CODE     ---       #290
      00FF2B0EH   LINE      CODE     ---       #291
      00FF2B0EH   LINE      CODE     ---       #294
      00FF2B11H   LINE      CODE     ---       #296
      00FF2B25H   LINE      CODE     ---       #299
      00FF2B25H   LINE      CODE     ---       #300
      00FF2B2DH   LINE      CODE     ---       #303
      00FF2B2DH   LINE      CODE     ---       #305
      00FF2B2FH   LINE      CODE     ---       #306
      00FF2B2FH   LINE      CODE     ---       #318
      00FF2B42H   LINE      CODE     ---       #319
      00FF2B48H   LINE      CODE     ---       #320
      00FF2B50H   LINE      CODE     ---       #321
      00FF2B5AH   LINE      CODE     ---       #322
      00FF2B5AH   LINE      CODE     ---       #323
      00FF2B5CH   LINE      CODE     ---       #343
      00FF2B5CH   LINE      CODE     ---       #348
      00FF2B6BH   LINE      CODE     ---       #353
      00FF2B6BH   LINE      CODE     ---       #354
      00FF2B73H   LINE      CODE     ---       #355
      00FF2B7FH   LINE      CODE     ---       #356
      00FF2B85H   LINE      CODE     ---       #358
      00FF2B90H   LINE      CODE     ---       #359
      00FF2B94H   LINE      CODE     ---       #361
      00FF2B96H   LINE      CODE     ---       #362
      00FF2B96H   LINE      CODE     ---       #365
      00FF2BA1H   LINE      CODE     ---       #366
      00FF2BA1H   LINE      CODE     ---       #374
      00FF2BB0H   LINE      CODE     ---       #375
      00FF2BB6H   LINE      CODE     ---       #376
      00FF2BBEH   LINE      CODE     ---       #377
      00FF2BC8H   LINE      CODE     ---       #378
      00FF2BCAH   LINE      CODE     ---       #379
      00FF2BCCH   LINE      CODE     ---       #382
      00FF2BCCH   LINE      CODE     ---       #383
      00FF2BD3H   LINE      CODE     ---       #384
      00FF2BDAH   LINE      CODE     ---       #385
      00FF2BE2H   LINE      CODE     ---       #386
      00FF2BF0H   LINE      CODE     ---       #387
      00FF2BF2H   LINE      CODE     ---       #389
      00FF2BF2H   LINE      CODE     ---       #390
      00FF2BF9H   LINE      CODE     ---       #391
      00FF2C00H   LINE      CODE     ---       #392
      00FF2C00H   LINE      CODE     ---       #393
      00FF2C00H   LINE      CODE     ---       #395
      00FF2C07H   LINE      CODE     ---       #396
      00FF2C0FH   LINE      CODE     ---       #401
      00FF2C19H   LINE      CODE     ---       #402
      00FF2C22H   LINE      CODE     ---       #404
      00FF2C2DH   LINE      CODE     ---       #405
      ---         BLOCKEND  ---      ---       LVL=0

      00FF2503H   BLOCK     CODE     ---       LVL=0
      00FF2505H   BLOCK     CODE     NEAR LAB  LVL=1
      000000CDH   SYMBOL    EDATA    ---       buf
      WR12        REGSYM    ---      INT       spd
      WR12        REGSYM    ---      INT       ang
      WR14        REGSYM    ---      INT       sv
      00FF259DH   BLOCK     CODE     NEAR LAB  LVL=2
L251 LINKER/LOCATER V4.66.93.0                                                        03/20/2026  12:58:05  PAGE 15


      WR6         REGSYM    ---      INT       user_ang
      ---         BLOCKEND  ---      ---       LVL=2
      ---         BLOCKEND  ---      ---       LVL=1
      00FF2503H   LINE      CODE     ---       #417
      00FF2505H   LINE      CODE     ---       #418
      00FF2505H   LINE      CODE     ---       #422
      00FF2509H   LINE      CODE     ---       #423
      00FF2509H   LINE      CODE     ---       #425
      00FF250CH   LINE      CODE     ---       #428
      00FF251CH   LINE      CODE     ---       #429
      00FF2551H   LINE      CODE     ---       #430
      00FF255EH   LINE      CODE     ---       #431
      00FF256FH   LINE      CODE     ---       #432
      00FF257BH   LINE      CODE     ---       #433
      00FF258CH   LINE      CODE     ---       #435
      00FF259DH   LINE      CODE     ---       #438
      00FF259DH   LINE      CODE     ---       #439
      00FF25A5H   LINE      CODE     ---       #440
      00FF25AFH   LINE      CODE     ---       #441
      00FF25B8H   LINE      CODE     ---       #443
      00FF25C9H   LINE      CODE     ---       #444
      00FF25DCH   LINE      CODE     ---       #445
      00FF25EAH   LINE      CODE     ---       #446
      00FF25FCH   LINE      CODE     ---       #449
      00FF260DH   LINE      CODE     ---       #450
      00FF2615H   LINE      CODE     ---       #452
      00FF2619H   LINE      CODE     ---       #453
      00FF264EH   LINE      CODE     ---       #454
      00FF265CH   LINE      CODE     ---       #455
      00FF2669H   LINE      CODE     ---       #456
      00FF266BH   LINE      CODE     ---       #457
      00FF2670H   LINE      CODE     ---       #459
      00FF267BH   LINE      CODE     ---       #460
      00FF268EH   LINE      CODE     ---       #461
      00FF269CH   LINE      CODE     ---       #462
      00FF26A9H   LINE      CODE     ---       #463
      00FF26ABH   LINE      CODE     ---       #466
      00FF26C2H   LINE      CODE     ---       #467
      00FF26D0H   LINE      CODE     ---       #468
      00FF26E3H   LINE      CODE     ---       #469
      00FF26E3H   LINE      CODE     ---       #472
      00FF26E7H   LINE      CODE     ---       #473
      00FF271CH   LINE      CODE     ---       #474
      00FF2736H   LINE      CODE     ---       #475
      00FF2741H   LINE      CODE     ---       #476
      00FF2754H   LINE      CODE     ---       #477
      00FF276FH   LINE      CODE     ---       #480
      00FF277CH   LINE      CODE     ---       #481
      00FF2789H   LINE      CODE     ---       #482
      00FF2796H   LINE      CODE     ---       #484
      00FF2799H   LINE      CODE     ---       #485
      ---         BLOCKEND  ---      ---       LVL=0

      00FF3B6BH   BLOCK     CODE     ---       LVL=0
      00FF3B6BH   LINE      CODE     ---       #490
      00FF3B6BH   LINE      CODE     ---       #492
      00FF3B6EH   LINE      CODE     ---       #493
      00FF3B7BH   LINE      CODE     ---       #494
      00FF3B89H   LINE      CODE     ---       #495
      00FF3B95H   LINE      CODE     ---       #496
      00FF3B9CH   LINE      CODE     ---       #497
      ---         BLOCKEND  ---      ---       LVL=0

      00FF3960H   BLOCK     CODE     ---       LVL=0
      00FF3960H   LINE      CODE     ---       #499
L251 LINKER/LOCATER V4.66.93.0                                                        03/20/2026  12:58:05  PAGE 16


      00FF3960H   LINE      CODE     ---       #501
      00FF3963H   LINE      CODE     ---       #502
      00FF3966H   LINE      CODE     ---       #503
      00FF3969H   LINE      CODE     ---       #505
      00FF396FH   LINE      CODE     ---       #506
      00FF3975H   LINE      CODE     ---       #507
      00FF397BH   LINE      CODE     ---       #508
      00FF3981H   LINE      CODE     ---       #509
      00FF3987H   LINE      CODE     ---       #510
      00FF398DH   LINE      CODE     ---       #511
      00FF3993H   LINE      CODE     ---       #512
      00FF3999H   LINE      CODE     ---       #514
      00FF399CH   LINE      CODE     ---       #515
      00FF399FH   LINE      CODE     ---       #516
      ---         BLOCKEND  ---      ---       LVL=0

      00FF3D8FH   BLOCK     CODE     ---       LVL=0
      00FF3D8FH   LINE      CODE     ---       #521
      ---         BLOCKEND  ---      ---       LVL=0

      00FF279CH   BLOCK     CODE     ---       LVL=0
      00FF279CH   LINE      CODE     ---       #521
      00FF279CH   LINE      CODE     ---       #523
      00FF279FH   LINE      CODE     ---       #524
      00FF27A2H   LINE      CODE     ---       #525
      00FF27A5H   LINE      CODE     ---       #526
      00FF27A8H   LINE      CODE     ---       #527
      00FF27ABH   LINE      CODE     ---       #528
      00FF27AEH   LINE      CODE     ---       #529
      00FF27B1H   LINE      CODE     ---       #530
      00FF27B4H   LINE      CODE     ---       #531
      00FF27B7H   LINE      CODE     ---       #532
      00FF27BCH   LINE      CODE     ---       #534
      00FF27BFH   LINE      CODE     ---       #535
      00FF27C4H   LINE      CODE     ---       #545
      00FF27EDH   LINE      CODE     ---       #548
      00FF281AH   LINE      CODE     ---       #555
      00FF2820H   LINE      CODE     ---       #556
      00FF2824H   LINE      CODE     ---       #557
      00FF2828H   LINE      CODE     ---       #558
      00FF282CH   LINE      CODE     ---       #561
      00FF2834H   LINE      CODE     ---       #562
      00FF283CH   LINE      CODE     ---       #563
      00FF2840H   LINE      CODE     ---       #564
      00FF2844H   LINE      CODE     ---       #565
      00FF284CH   LINE      CODE     ---       #566
      00FF2854H   LINE      CODE     ---       #569
      00FF2859H   LINE      CODE     ---       #572
      00FF2864H   LINE      CODE     ---       #573
      00FF288FH   LINE      CODE     ---       #578
      00FF289AH   LINE      CODE     ---       #580
      00FF28B5H   LINE      CODE     ---       #581
      00FF28D6H   LINE      CODE     ---       #583
      00FF28F9H   LINE      CODE     ---       #585
      00FF2904H   LINE      CODE     ---       #586
      00FF290FH   LINE      CODE     ---       #589
      00FF2912H   LINE      CODE     ---       #590
      00FF2915H   LINE      CODE     ---       #591
      00FF2918H   LINE      CODE     ---       #593
      00FF2918H   LINE      CODE     ---       #596
      00FF291BH   LINE      CODE     ---       #599
      00FF291EH   LINE      CODE     ---       #602
      00FF2921H   LINE      CODE     ---       #605
      00FF2924H   LINE      CODE     ---       #607
      00FF2926H   LINE      CODE     ---       #608
L251 LINKER/LOCATER V4.66.93.0                                                        03/20/2026  12:58:05  PAGE 17


      00FF2929H   LINE      CODE     ---       #609
      00FF2929H   LINE      CODE     ---       #625
      00FF292CH   LINE      CODE     ---       #627
      00FF292EH   LINE      CODE     ---       #628
      00FF297DH   LINE      CODE     ---       #636
      ---         BLOCKEND  ---      ---       LVL=0

      00FF000EH   BLOCK     CODE     ---       LVL=0
      00FF0012H   BLOCK     CODE     NEAR LAB  LVL=1
      ---         BLOCKEND  ---      ---       LVL=1
      00FF000EH   LINE      CODE     ---       #643
      00FF0012H   LINE      CODE     ---       #644
      00FF0012H   LINE      CODE     ---       #646
      00FF0015H   LINE      CODE     ---       #648
      00FF0017H   LINE      CODE     ---       #649
      00FF0019H   LINE      CODE     ---       #650
      00FF0019H   LINE      CODE     ---       #651
      00FF001CH   LINE      CODE     ---       #653
      00FF001EH   LINE      CODE     ---       #654
      ---         BLOCKEND  ---      ---       LVL=0

      00FF372DH   BLOCK     CODE     ---       LVL=0
      00FF372DH   LINE      CODE     ---       #660
      00FF3743H   LINE      CODE     ---       #662
      00FF3748H   LINE      CODE     ---       #664
      00FF374BH   LINE      CODE     ---       #665
      00FF3750H   LINE      CODE     ---       #666
      00FF3750H   LINE      CODE     ---       #668
      00FF3755H   LINE      CODE     ---       #670
      00FF3758H   LINE      CODE     ---       #671
      00FF3762H   LINE      CODE     ---       #673
      00FF376AH   LINE      CODE     ---       #674
      00FF3777H   LINE      CODE     ---       #675
      00FF3779H   LINE      CODE     ---       #678
      00FF377BH   LINE      CODE     ---       #679
      00FF377BH   LINE      CODE     ---       #680
      ---         BLOCKEND  ---      ---       LVL=0

      00FF2C30H   BLOCK     CODE     ---       LVL=0
      00FF2C46H   BLOCK     CODE     NEAR LAB  LVL=1
      WR0         REGSYM    ---      INT       enc_now
      WR2         REGSYM    ---      INT       enc_delta
      00FF2CD7H   BLOCK     CODE     NEAR LAB  LVL=2
      DR4         REGSYM    ---      LONG      rem
      ---         BLOCKEND  ---      ---       LVL=2
      ---         BLOCKEND  ---      ---       LVL=1
      00FF2C30H   LINE      CODE     ---       #686
      00FF2C46H   LINE      CODE     ---       #687
      00FF2C46H   LINE      CODE     ---       #691
      00FF2C50H   LINE      CODE     ---       #694
      00FF2C53H   LINE      CODE     ---       #697
      00FF2C56H   LINE      CODE     ---       #700
      00FF2C59H   LINE      CODE     ---       #702
      00FF2C6AH   LINE      CODE     ---       #704
      00FF2C6DH   LINE      CODE     ---       #707
      00FF2C73H   LINE      CODE     ---       #708
      00FF2C77H   LINE      CODE     ---       #709
      00FF2C7BH   LINE      CODE     ---       #710
      00FF2C7FH   LINE      CODE     ---       #713
      00FF2C8FH   LINE      CODE     ---       #725
      00FF2C9DH   LINE      CODE     ---       #726
      00FF2CA6H   LINE      CODE     ---       #727
      00FF2CAFH   LINE      CODE     ---       #732
      00FF2CCCH   LINE      CODE     ---       #734
      00FF2CD2H   LINE      CODE     ---       #735
L251 LINKER/LOCATER V4.66.93.0                                                        03/20/2026  12:58:05  PAGE 18


      00FF2CD7H   LINE      CODE     ---       #736
      00FF2CD7H   LINE      CODE     ---       #747
      00FF2CD7H   LINE      CODE     ---       #748
      00FF2CE6H   LINE      CODE     ---       #749
      00FF2CF0H   LINE      CODE     ---       #750
      00FF2D04H   LINE      CODE     ---       #752
      00FF2D16H   LINE      CODE     ---       #756
      00FF2D19H   LINE      CODE     ---       #757
      00FF2D19H   LINE      CODE     ---       #760
      00FF2D27H   LINE      CODE     ---       #762
      00FF2D29H   LINE      CODE     ---       #763
      00FF2D29H   LINE      CODE     ---       #766
      00FF2D37H   LINE      CODE     ---       #768
      00FF2D39H   LINE      CODE     ---       #769
      00FF2D39H   LINE      CODE     ---       #771
      00FF2D49H   LINE      CODE     ---       #772
      ---         BLOCKEND  ---      ---       LVL=0

      ---         MODULE    ---      ---       oled
      00FF3104H   PUBLIC    CODE     ---       OLED_BuffShowGBK
      00FF2D60H   PUBLIC    CODE     ---       OLED_BuffShowCircle
      00FF37E9H   PUBLIC    CODE     ---       OLED_BuffShowNum02F
      00FF3792H   PUBLIC    CODE     ---       OLED_BuffShowBMP
      00FF35C8H   PUBLIC    CODE     ---       OLED_BuffShowChar32
      00FF2F5FH   PUBLIC    CODE     ---       OLED_Init
      00FF3E58H   PUBLIC    CODE     ---       OLED_DisplayOn
      00FF0026H   PUBLIC    CODE     ---       OLED_WR_Byte
      00FF3435H   PUBLIC    CODE     ---       OLED_BuffShowString
      00FF3887H   PUBLIC    CODE     ---       OLED_BuffShow
      00FF33AAH   PUBLIC    CODE     ---       OLED_BuffShowChar
      00FF3041H   PUBLIC    CODE     ---       OLED_BuffShowLine
      00FF38D2H   PUBLIC    CODE     ---       OLED_BuffShowPoint
      00FF3C4FH   PUBLIC    CODE     ---       OLED_Set_Pos
      00FF3B38H   PUBLIC    CODE     ---       OLED_BuffShowRectangle
      00FF3E15H   PUBLIC    CODE     ---       delay_ms
      00FF3838H   PUBLIC    CODE     ---       OLED_BuffShowNum
      00FF3DAAH   PUBLIC    CODE     ---       OLED_BuffClear
      00FF3544H   PUBLIC    CODE     ---       OLED_DrawBMP
      00FF3E6DH   PUBLIC    CODE     ---       OLED_DisplayOff
      00FF018EH   PUBLIC    CODE     ---       lib_num1632
      00FF048EH   PUBLIC    CODE     ---       Ascll_16
      00FF0A7EH   PUBLIC    CODE     ---       GBK16
      00010000H   PUBLIC    XDATA    ---       ShowBUFF
      000000D0H   SFRSYM    DATA     BYTE      PSW
      0000009DH   SFRSYM    DATA     BYTE      IRCBAND
      00000097H   SFRSYM    DATA     BYTE      AUXR2
      000000EFH   SFRSYM    DATA     BYTE      AUXINTIF
      000000FDH   SFRSYM    DATA     BYTE      S4CON
      000000ACH   SFRSYM    DATA     BYTE      S3CON
      0000009AH   SFRSYM    DATA     BYTE      S2CON
      000000B7H   SFRSYM    DATA     BYTE      IPH
      000000CDH   SFRSYM    DATA     BYTE      SPSTAT
      000000DDH   SFRSYM    DATA     BYTE      T4T3M
      000000C1H   SFRSYM    DATA     BYTE      WDT_CONTR
      000000DFH   SFRSYM    DATA     BYTE      IP3
      000000F4H   SFRSYM    DATA     BYTE      USBCON
      000000B5H   SFRSYM    DATA     BYTE      IP2
      000000FFH   SFRSYM    DATA     BYTE      RSTCFG
      000000E0H   SFRSYM    DATA     BYTE      ACC
      000000A0H.6 SFRSYM    DATA     BIT       OLED_REST
      000000C7H   SFRSYM    DATA     BYTE      IAP_CONTR
      000000F9H   SFRSYM    DATA     BYTE      LINICR
      0000008EH   SFRSYM    DATA     BYTE      AUXR
      000000F0H   SFRSYM    DATA     BYTE      B
      000000AFH   SFRSYM    DATA     BYTE      IE2
L251 LINKER/LOCATER V4.66.93.0                                                        03/20/2026  12:58:05  PAGE 19


      00000088H   SFRSYM    DATA     BYTE      TCON
      00000089H   SFRSYM    DATA     BYTE      TMOD
      00000098H   SFRSYM    DATA     BYTE      SCON
      000000F1H   SFRSYM    DATA     BYTE      CANICR
      00000087H   SFRSYM    DATA     BYTE      PCON
      000000BCH   SFRSYM    DATA     BYTE      ADC_CONTR
      000000E7H   SFRSYM    DATA     BYTE      CMPCR2
      000000E6H   SFRSYM    DATA     BYTE      CMPCR1
      000000C0H.5 SFRSYM    DATA     BIT       OLED_CS
      000000DEH   SFRSYM    DATA     BYTE      ADCCFG
      000000B8H   SFRSYM    DATA     BYTE      IP
      0000008FH   SFRSYM    DATA     BYTE      INTCLKO
      000000EEH   SFRSYM    DATA     BYTE      IP3H
      000000B6H   SFRSYM    DATA     BYTE      IP2H
      000000A8H   SFRSYM    DATA     BYTE      IE
      000000BBH   SFRSYM    DATA     BYTE      P_SW3
      000000BAH   SFRSYM    DATA     BYTE      P_SW2
      000000A0H.7 SFRSYM    DATA     BIT       OLED_DC
      000000A2H   SFRSYM    DATA     BYTE      P_SW1
      000000CEH   SFRSYM    DATA     BYTE      SPCTL
      000000F8H   SFRSYM    DATA     BYTE      P7
      000000E8H   SFRSYM    DATA     BYTE      P6
      000000C8H   SFRSYM    DATA     BYTE      P5
      000000C0H   SFRSYM    DATA     BYTE      P4
      000000B0H   SFRSYM    DATA     BYTE      P3
      000000A0H   SFRSYM    DATA     BYTE      P2
      00000090H   SFRSYM    DATA     BYTE      P1
      00000080H   SFRSYM    DATA     BYTE      P0
      00FF3F06H   SYMBOL    CODE     ---       delay

      00FF3F06H   BLOCK     CODE     ---       LVL=0
      WR6         REGSYM    ---      INT       i
      00FF3F06H   LINE      CODE     ---       #28
      00FF3F06H   LINE      CODE     ---       #29
      00FF3F06H   LINE      CODE     ---       #31
      00FF3F10H   LINE      CODE     ---       #32
      ---         BLOCKEND  ---      ---       LVL=0

      00FF3E15H   BLOCK     CODE     ---       LVL=0
      WR4         REGSYM    ---      WORD      ms
      00FF3E17H   BLOCK     CODE     NEAR LAB  LVL=1
      WR6         REGSYM    ---      WORD      i
      ---         BLOCKEND  ---      ---       LVL=1
      00FF3E15H   LINE      CODE     ---       #34
      00FF3E17H   LINE      CODE     ---       #35
      00FF3E17H   LINE      CODE     ---       #37
      00FF3E17H   LINE      CODE     ---       #38
      00FF3E1BH   LINE      CODE     ---       #39
      00FF3E23H   LINE      CODE     ---       #40
      00FF3E2BH   LINE      CODE     ---       #41
      ---         BLOCKEND  ---      ---       LVL=0

      00FF0026H   BLOCK     CODE     ---       LVL=0
      R7          REGSYM    ---      BYTE      dat
      R10         REGSYM    ---      BYTE      cmd
      00FF0026H   LINE      CODE     ---       #48
      00FF002AH   LINE      CODE     ---       #50
      00FF002EH   LINE      CODE     ---       #51
      00FF0032H   LINE      CODE     ---       #53
      00FF0034H   LINE      CODE     ---       #55
      00FF0036H   LINE      CODE     ---       #56
      00FF003BH   LINE      CODE     ---       #57
      00FF003EH   LINE      CODE     ---       #58
      00FF0040H   LINE      CODE     ---       #59
      00FF0042H   LINE      CODE     ---       #60
L251 LINKER/LOCATER V4.66.93.0                                                        03/20/2026  12:58:05  PAGE 20


      ---         BLOCKEND  ---      ---       LVL=0

      00FF2F5FH   BLOCK     CODE     ---       LVL=0
      00FF2F5FH   LINE      CODE     ---       #65
      00FF2F5FH   LINE      CODE     ---       #67
      00FF2F62H   LINE      CODE     ---       #68
      00FF2F69H   LINE      CODE     ---       #69
      00FF2F6BH   LINE      CODE     ---       #70
      00FF2F72H   LINE      CODE     ---       #71
      00FF2F74H   LINE      CODE     ---       #72
      00FF2F7BH   LINE      CODE     ---       #73
      00FF2F7DH   LINE      CODE     ---       #75
      00FF2F84H   LINE      CODE     ---       #76
      00FF2F8AH   LINE      CODE     ---       #77
      00FF2F91H   LINE      CODE     ---       #78
      00FF2F98H   LINE      CODE     ---       #79
      00FF2F9FH   LINE      CODE     ---       #80
      00FF2FA6H   LINE      CODE     ---       #81
      00FF2FADH   LINE      CODE     ---       #82
      00FF2FB4H   LINE      CODE     ---       #83
      00FF2FBBH   LINE      CODE     ---       #84
      00FF2FC2H   LINE      CODE     ---       #85
      00FF2FC9H   LINE      CODE     ---       #86
      00FF2FD0H   LINE      CODE     ---       #87
      00FF2FD6H   LINE      CODE     ---       #88
      00FF2FDDH   LINE      CODE     ---       #89
      00FF2FE4H   LINE      CODE     ---       #90
      00FF2FEBH   LINE      CODE     ---       #91
      00FF2FF2H   LINE      CODE     ---       #92
      00FF2FF9H   LINE      CODE     ---       #93
      00FF3000H   LINE      CODE     ---       #94
      00FF3007H   LINE      CODE     ---       #95
      00FF300EH   LINE      CODE     ---       #96
      00FF3015H   LINE      CODE     ---       #97
      00FF301BH   LINE      CODE     ---       #98
      00FF3022H   LINE      CODE     ---       #99
      00FF3029H   LINE      CODE     ---       #100
      00FF3030H   LINE      CODE     ---       #101
      00FF3037H   LINE      CODE     ---       #102
      00FF303EH   LINE      CODE     ---       #104
      ---         BLOCKEND  ---      ---       LVL=0

      00FF3C4FH   BLOCK     CODE     ---       LVL=0
      R15         REGSYM    ---      BYTE      x
      R10         REGSYM    ---      BYTE      y
      00FF3C4FH   LINE      CODE     ---       #110
      00FF3C53H   LINE      CODE     ---       #112
      00FF3C5CH   LINE      CODE     ---       #113
      00FF3C6AH   LINE      CODE     ---       #114
      00FF3C75H   LINE      CODE     ---       #115
      ---         BLOCKEND  ---      ---       LVL=0

      00FF3887H   BLOCK     CODE     ---       LVL=0
      00FF388BH   BLOCK     CODE     NEAR LAB  LVL=1
      R15         REGSYM    ---      BYTE      i
      REG=6       REGSYM    ---      ---       row
      ---         BLOCKEND  ---      ---       LVL=1
      00FF3887H   LINE      CODE     ---       #133
      00FF388BH   LINE      CODE     ---       #134
      00FF388BH   LINE      CODE     ---       #138
      00FF388DH   LINE      CODE     ---       #140
      00FF3896H   LINE      CODE     ---       #142
      00FF3898H   LINE      CODE     ---       #143
      00FF389AH   LINE      CODE     ---       #144
      00FF38A3H   LINE      CODE     ---       #145
L251 LINKER/LOCATER V4.66.93.0                                                        03/20/2026  12:58:05  PAGE 21


      00FF38A7H   LINE      CODE     ---       #146
      00FF38ACH   LINE      CODE     ---       #147
      00FF38AEH   LINE      CODE     ---       #149
      00FF38B0H   LINE      CODE     ---       #150
      00FF38B2H   LINE      CODE     ---       #151
      00FF38B4H   LINE      CODE     ---       #153
      00FF38C1H   LINE      CODE     ---       #154
      00FF38C4H   LINE      CODE     ---       #156
      00FF38C6H   LINE      CODE     ---       #157
      00FF38CDH   LINE      CODE     ---       #158
      ---         BLOCKEND  ---      ---       LVL=0

      00FF3DAAH   BLOCK     CODE     ---       LVL=0
      REG=3       REGSYM    ---      ---       p
      WR4         REGSYM    ---      WORD      n
      00FF3DAAH   LINE      CODE     ---       #164
      00FF3DAAH   LINE      CODE     ---       #165
      00FF3DAAH   LINE      CODE     ---       #166
      00FF3DAEH   LINE      CODE     ---       #168
      00FF3DB0H   LINE      CODE     ---       #169
      00FF3DC4H   LINE      CODE     ---       #170
      ---         BLOCKEND  ---      ---       LVL=0

      00FF3E58H   BLOCK     CODE     ---       LVL=0
      00FF3E58H   LINE      CODE     ---       #172
      00FF3E58H   LINE      CODE     ---       #174
      00FF3E5FH   LINE      CODE     ---       #175
      00FF3E66H   LINE      CODE     ---       #176
      ---         BLOCKEND  ---      ---       LVL=0

      00FF3E6DH   BLOCK     CODE     ---       LVL=0
      00FF3E6DH   LINE      CODE     ---       #179
      00FF3E6DH   LINE      CODE     ---       #181
      00FF3E74H   LINE      CODE     ---       #182
      00FF3E7BH   LINE      CODE     ---       #183
      ---         BLOCKEND  ---      ---       LVL=0

      00FF3544H   BLOCK     CODE     ---       LVL=0
      00000014H   SYMBOL    EDATA    BYTE      x0
      00000015H   SYMBOL    EDATA    BYTE      y0
      00000016H   SYMBOL    EDATA    BYTE      x1
      00000017H   SYMBOL    EDATA    BYTE      y1
      REG=3       REGSYM    ---      ---       BMP
      00FF3558H   BLOCK     CODE     NEAR LAB  LVL=1
      00010414H   SYMBOL    XDATA    WORD      j
      00010416H   SYMBOL    XDATA    BYTE      x
      00000018H   SYMBOL    EDATA    BYTE      y
      ---         BLOCKEND  ---      ---       LVL=1
      00FF3544H   LINE      CODE     ---       #186
      00FF3558H   LINE      CODE     ---       #188
      00FF3558H   LINE      CODE     ---       #189
      00FF3560H   LINE      CODE     ---       #191
      00FF356AH   LINE      CODE     ---       #193
      00FF3575H   LINE      CODE     ---       #194
      00FF357CH   LINE      CODE     ---       #195
      00FF35A6H   LINE      CODE     ---       #196
      00FF35C5H   LINE      CODE     ---       #197
      ---         BLOCKEND  ---      ---       LVL=0

      00FF38D2H   BLOCK     CODE     ---       LVL=0
      R2          REGSYM    ---      BYTE      x
      R3          REGSYM    ---      BYTE      y
      00FF38D2H   LINE      CODE     ---       #199
      00FF38D6H   LINE      CODE     ---       #201
      00FF391AH   LINE      CODE     ---       #202
L251 LINKER/LOCATER V4.66.93.0                                                        03/20/2026  12:58:05  PAGE 22


      ---         BLOCKEND  ---      ---       LVL=0

      00FF3041H   BLOCK     CODE     ---       LVL=0
      R14         REGSYM    ---      BYTE      x1
      R15         REGSYM    ---      BYTE      y1
      R12         REGSYM    ---      BYTE      x2
      R13         REGSYM    ---      BYTE      y2
      00FF304BH   BLOCK     CODE     NEAR LAB  LVL=1
      000000DEH   SYMBOL    EDATA    BYTE      x
      000000DFH   SYMBOL    EDATA    BYTE      y
      ---         BLOCKEND  ---      ---       LVL=1
      00FF3041H   LINE      CODE     ---       #204
      00FF304BH   LINE      CODE     ---       #206
      00FF304BH   LINE      CODE     ---       #208
      00FF3063H   LINE      CODE     ---       #209
      00FF3067H   LINE      CODE     ---       #211
      00FF306DH   LINE      CODE     ---       #213
      00FF3071H   LINE      CODE     ---       #214
      00FF308FH   LINE      CODE     ---       #216
      00FF30AEH   LINE      CODE     ---       #217
      00FF30BDH   LINE      CODE     ---       #218
      00FF30BFH   LINE      CODE     ---       #221
      00FF30E3H   LINE      CODE     ---       #222
      00FF3101H   LINE      CODE     ---       #223
      00FF3101H   LINE      CODE     ---       #224
      ---         BLOCKEND  ---      ---       LVL=0

      00FF3B38H   BLOCK     CODE     ---       LVL=0
      R12         REGSYM    ---      BYTE      x1
      R13         REGSYM    ---      BYTE      y1
      R14         REGSYM    ---      BYTE      x2
      R15         REGSYM    ---      BYTE      y2
      00FF3B38H   LINE      CODE     ---       #226
      00FF3B42H   LINE      CODE     ---       #229
      00FF3B47H   LINE      CODE     ---       #230
      00FF3B52H   LINE      CODE     ---       #231
      00FF3B5DH   LINE      CODE     ---       #232
      00FF3B68H   LINE      CODE     ---       #233
      ---         BLOCKEND  ---      ---       LVL=0

      00FF2D60H   BLOCK     CODE     ---       LVL=0
      R14         REGSYM    ---      BYTE      x
      R15         REGSYM    ---      BYTE      y
      R10         REGSYM    ---      BYTE      r
      00FF2D68H   BLOCK     CODE     NEAR LAB  LVL=1
      WR12        REGSYM    ---      INT       a
      00000008H   SYMBOL    EDATA    INT       b
      0000000AH   SYMBOL    EDATA    INT       di
      0000000CH   SYMBOL    EDATA    BYTE      x_add_a
      0000000DH   SYMBOL    EDATA    BYTE      x_add_b
      0000000EH   SYMBOL    EDATA    BYTE      x_sub_a
      0000000FH   SYMBOL    EDATA    BYTE      x_sub_b
      00000010H   SYMBOL    EDATA    BYTE      y_add_a
      00000011H   SYMBOL    EDATA    BYTE      y_add_b
      00000012H   SYMBOL    EDATA    BYTE      y_sub_a
      00000013H   SYMBOL    EDATA    BYTE      y_sub_b
      ---         BLOCKEND  ---      ---       LVL=1
      00FF2D60H   LINE      CODE     ---       #235
      00FF2D68H   LINE      CODE     ---       #236
      00FF2D68H   LINE      CODE     ---       #240
      00FF2D7AH   LINE      CODE     ---       #241
      00FF2D7DH   LINE      CODE     ---       #243
      00FF2DA1H   LINE      CODE     ---       #244
      00FF2DC5H   LINE      CODE     ---       #245
      00FF2DC8H   LINE      CODE     ---       #246
L251 LINKER/LOCATER V4.66.93.0                                                        03/20/2026  12:58:05  PAGE 23


      00FF2DD3H   LINE      CODE     ---       #247
      00FF2DDEH   LINE      CODE     ---       #248
      00FF2DE9H   LINE      CODE     ---       #249
      00FF2DF4H   LINE      CODE     ---       #250
      00FF2DFFH   LINE      CODE     ---       #251
      00FF2E0AH   LINE      CODE     ---       #252
      00FF2E15H   LINE      CODE     ---       #253
      00FF2E17H   LINE      CODE     ---       #254
      00FF2E35H   LINE      CODE     ---       #255
      00FF2E55H   LINE      CODE     ---       #256
      00FF2E60H   LINE      CODE     ---       #257
      ---         BLOCKEND  ---      ---       LVL=0

      00FF33AAH   BLOCK     CODE     ---       LVL=0
      R9          REGSYM    ---      BYTE      x
      R0          REGSYM    ---      BYTE      y
      R1          REGSYM    ---      CHAR      asc
      R8          REGSYM    ---      BYTE      mode
      00FF33B2H   BLOCK     CODE     NEAR LAB  LVL=1
      R7          REGSYM    ---      BYTE      j
      R6          REGSYM    ---      BYTE      k
      ---         BLOCKEND  ---      ---       LVL=1
      00FF33AAH   LINE      CODE     ---       #259
      00FF33B2H   LINE      CODE     ---       #261
      00FF33B2H   LINE      CODE     ---       #263
      00FF33B4H   LINE      CODE     ---       #264
      00FF33B6H   LINE      CODE     ---       #266
      00FF33BAH   LINE      CODE     ---       #267
      00FF33DDH   LINE      CODE     ---       #269
      00FF3427H   LINE      CODE     ---       #270
      00FF3434H   LINE      CODE     ---       #271
      ---         BLOCKEND  ---      ---       LVL=0

      00FF3104H   BLOCK     CODE     ---       LVL=0
      R0          REGSYM    ---      BYTE      x
      R1          REGSYM    ---      BYTE      y
      REG=7       REGSYM    ---      ---       gbk
      R9          REGSYM    ---      BYTE      mode
      00FF310CH   BLOCK     CODE     NEAR LAB  LVL=1
      R8          REGSYM    ---      BYTE      i
      R7          REGSYM    ---      BYTE      j
      R6          REGSYM    ---      BYTE      k
      ---         BLOCKEND  ---      ---       LVL=1
      00FF3104H   LINE      CODE     ---       #273
      00FF310CH   LINE      CODE     ---       #275
      00FF310CH   LINE      CODE     ---       #277
      00FF310EH   LINE      CODE     ---       #279
      00FF313FH   LINE      CODE     ---       #281
      00FF3141H   LINE      CODE     ---       #282
      00FF3143H   LINE      CODE     ---       #284
      00FF3147H   LINE      CODE     ---       #285
      00FF3165H   LINE      CODE     ---       #287
      00FF31AAH   LINE      CODE     ---       #288
      00FF31B6H   LINE      CODE     ---       #289
      00FF31B7H   LINE      CODE     ---       #290
      00FF31C1H   LINE      CODE     ---       #292
      ---         BLOCKEND  ---      ---       LVL=0

      00FF3435H   BLOCK     CODE     ---       LVL=0
      000000DEH   SYMBOL    EDATA    BYTE      x
      000000DFH   SYMBOL    EDATA    BYTE      y
      REG=3       REGSYM    ---      ---       s
      000000E0H   SYMBOL    EDATA    BYTE      mode
      00FF3445H   BLOCK     CODE     NEAR LAB  LVL=1
      000000E1H   SYMBOL    EDATA    ---       s_num
L251 LINKER/LOCATER V4.66.93.0                                                        03/20/2026  12:58:05  PAGE 24


      ---         BLOCKEND  ---      ---       LVL=1
      00FF3435H   LINE      CODE     ---       #294
      00FF3445H   LINE      CODE     ---       #296
      00FF3445H   LINE      CODE     ---       #298
      00FF3447H   LINE      CODE     ---       #300
      00FF344FH   LINE      CODE     ---       #302
      00FF3461H   LINE      CODE     ---       #303
      00FF346DH   LINE      CODE     ---       #304
      00FF346FH   LINE      CODE     ---       #307
      00FF347EH   LINE      CODE     ---       #308
      00FF3491H   LINE      CODE     ---       #309
      00FF349DH   LINE      CODE     ---       #310
      00FF349DH   LINE      CODE     ---       #311
      00FF34BAH   LINE      CODE     ---       #313
      ---         BLOCKEND  ---      ---       LVL=0

      00FF3838H   BLOCK     CODE     ---       LVL=0
      R13         REGSYM    ---      BYTE      x
      R14         REGSYM    ---      BYTE      y
      00000019H   SYMBOL    EDATA    LONG      num
      R15         REGSYM    ---      BYTE      mode
      00FF3846H   BLOCK     CODE     NEAR LAB  LVL=1
      00010400H   SYMBOL    XDATA    ---       str
      ---         BLOCKEND  ---      ---       LVL=1
      00FF3838H   LINE      CODE     ---       #315
      00FF3846H   LINE      CODE     ---       #317
      00FF3846H   LINE      CODE     ---       #319
      00FF3856H   LINE      CODE     ---       #320
      00FF3871H   LINE      CODE     ---       #321
      00FF3882H   LINE      CODE     ---       #322
      ---         BLOCKEND  ---      ---       LVL=0

      00FF37E9H   BLOCK     CODE     ---       LVL=0
      R13         REGSYM    ---      BYTE      x
      R14         REGSYM    ---      BYTE      y
      00000267H   SYMBOL    EDATA    FLOAT     num
      R15         REGSYM    ---      BYTE      mode
      00FF37F7H   BLOCK     CODE     NEAR LAB  LVL=1
      0001040AH   SYMBOL    XDATA    ---       str
      ---         BLOCKEND  ---      ---       LVL=1
      00FF37E9H   LINE      CODE     ---       #324
      00FF37F7H   LINE      CODE     ---       #326
      00FF37F7H   LINE      CODE     ---       #328
      00FF3807H   LINE      CODE     ---       #329
      00FF3822H   LINE      CODE     ---       #330
      00FF3833H   LINE      CODE     ---       #331
      ---         BLOCKEND  ---      ---       LVL=0

      00FF35C8H   BLOCK     CODE     ---       LVL=0
      R9          REGSYM    ---      BYTE      x
      R0          REGSYM    ---      BYTE      y
      R1          REGSYM    ---      BYTE      num
      R8          REGSYM    ---      BYTE      mode
      00FF35D0H   BLOCK     CODE     NEAR LAB  LVL=1
      R7          REGSYM    ---      BYTE      j
      R6          REGSYM    ---      BYTE      k
      ---         BLOCKEND  ---      ---       LVL=1
      00FF35C8H   LINE      CODE     ---       #333
      00FF35D0H   LINE      CODE     ---       #335
      00FF35D0H   LINE      CODE     ---       #337
      00FF35D2H   LINE      CODE     ---       #338
      00FF35D4H   LINE      CODE     ---       #340
      00FF35D8H   LINE      CODE     ---       #341
      00FF35F6H   LINE      CODE     ---       #343
      00FF363BH   LINE      CODE     ---       #344
L251 LINKER/LOCATER V4.66.93.0                                                        03/20/2026  12:58:05  PAGE 25


      00FF3648H   LINE      CODE     ---       #345
      ---         BLOCKEND  ---      ---       LVL=0

      00FF3792H   BLOCK     CODE     ---       LVL=0
      R15         REGSYM    ---      BYTE      x0
      R8          REGSYM    ---      BYTE      y0
      R9          REGSYM    ---      BYTE      x1
      R14         REGSYM    ---      BYTE      y1
      REG=7       REGSYM    ---      ---       BMP
      00FF379EH   BLOCK     CODE     NEAR LAB  LVL=1
      WR6         REGSYM    ---      WORD      num
      R5          REGSYM    ---      BYTE      k
      R10         REGSYM    ---      BYTE      j
      ---         BLOCKEND  ---      ---       LVL=1
      00FF3792H   LINE      CODE     ---       #347
      00FF379EH   LINE      CODE     ---       #349
      00FF379EH   LINE      CODE     ---       #350
      00FF37A0H   LINE      CODE     ---       #352
      00FF37A4H   LINE      CODE     ---       #353
      00FF37A8H   LINE      CODE     ---       #354
      00FF37E6H   LINE      CODE     ---       #355
      ---         BLOCKEND  ---      ---       LVL=0

      ---         MODULE    ---      ---       spi
      00FF0003H   PUBLIC    CODE     ---       SPI_DMA_Wait
      00FF3CEAH   PUBLIC    CODE     ---       SPI_Transmit
      00FF3BCEH   PUBLIC    CODE     ---       SPI_Init
      00FF3E97H   PUBLIC    CODE     ---       SPI_WriteByte
      000000CFH   SFRSYM    DATA     BYTE      SPDAT
      000000D0H   SFRSYM    DATA     BYTE      PSW
      0000009DH   SFRSYM    DATA     BYTE      IRCBAND
      00000097H   SFRSYM    DATA     BYTE      AUXR2
      000000EFH   SFRSYM    DATA     BYTE      AUXINTIF
      000000FDH   SFRSYM    DATA     BYTE      S4CON
      000000ACH   SFRSYM    DATA     BYTE      S3CON
      0000009AH   SFRSYM    DATA     BYTE      S2CON
      000000B7H   SFRSYM    DATA     BYTE      IPH
      000000CDH   SFRSYM    DATA     BYTE      SPSTAT
      000000DDH   SFRSYM    DATA     BYTE      T4T3M
      000000C1H   SFRSYM    DATA     BYTE      WDT_CONTR
      000000DFH   SFRSYM    DATA     BYTE      IP3
      000000F4H   SFRSYM    DATA     BYTE      USBCON
      000000B5H   SFRSYM    DATA     BYTE      IP2
      000000FFH   SFRSYM    DATA     BYTE      RSTCFG
      000000CEH.4 SFRSYM    DATA     BIT       MSTR
      000000E0H   SFRSYM    DATA     BYTE      ACC
      000000C7H   SFRSYM    DATA     BYTE      IAP_CONTR
      000000F9H   SFRSYM    DATA     BYTE      LINICR
      0000008EH   SFRSYM    DATA     BYTE      AUXR
      000000F0H   SFRSYM    DATA     BYTE      B
      000000AFH   SFRSYM    DATA     BYTE      IE2
      000000CEH.7 SFRSYM    DATA     BIT       SSIG
      000000CEH.6 SFRSYM    DATA     BIT       SPEN
      000000CDH.6 SFRSYM    DATA     BIT       WCOL
      00000088H   SFRSYM    DATA     BYTE      TCON
      00000089H   SFRSYM    DATA     BYTE      TMOD
      00000098H   SFRSYM    DATA     BYTE      SCON
      000000CDH.7 SFRSYM    DATA     BIT       SPIF
      000000F1H   SFRSYM    DATA     BYTE      CANICR
      00000087H   SFRSYM    DATA     BYTE      PCON
      000000BCH   SFRSYM    DATA     BYTE      ADC_CONTR
      000000CEH.3 SFRSYM    DATA     BIT       CPOL
      000000A0H.5 SFRSYM    DATA     BIT       SPI_SCK
      000000CEH.5 SFRSYM    DATA     BIT       DORD
      000000E7H   SFRSYM    DATA     BYTE      CMPCR2
L251 LINKER/LOCATER V4.66.93.0                                                        03/20/2026  12:58:05  PAGE 26


      000000E6H   SFRSYM    DATA     BYTE      CMPCR1
      000000CEH.2 SFRSYM    DATA     BIT       CPHA
      000000DEH   SFRSYM    DATA     BYTE      ADCCFG
      000000B8H   SFRSYM    DATA     BYTE      IP
      0000008FH   SFRSYM    DATA     BYTE      INTCLKO
      000000EEH   SFRSYM    DATA     BYTE      IP3H
      000000B6H   SFRSYM    DATA     BYTE      IP2H
      000000A8H   SFRSYM    DATA     BYTE      IE
      000000BBH   SFRSYM    DATA     BYTE      P_SW3
      000000BAH   SFRSYM    DATA     BYTE      P_SW2
      000000A2H   SFRSYM    DATA     BYTE      P_SW1
      000000CEH   SFRSYM    DATA     BYTE      SPCTL
      000000F8H   SFRSYM    DATA     BYTE      P7
      000000A0H.3 SFRSYM    DATA     BIT       SPI_MOSI
      000000E8H   SFRSYM    DATA     BYTE      P6
      000000C8H   SFRSYM    DATA     BYTE      P5
      000000C0H   SFRSYM    DATA     BYTE      P4
      000000B0H   SFRSYM    DATA     BYTE      P3
      000000A0H   SFRSYM    DATA     BYTE      P2
      00000090H   SFRSYM    DATA     BYTE      P1
      00000080H   SFRSYM    DATA     BYTE      P0

      00FF3BCEH   BLOCK     CODE     ---       LVL=0
      00FF3BCEH   LINE      CODE     ---       #26
      00FF3BCEH   LINE      CODE     ---       #29
      00FF3BD6H   LINE      CODE     ---       #30
      00FF3BD9H   LINE      CODE     ---       #31
      00FF3BDCH   LINE      CODE     ---       #32
      00FF3BDFH   LINE      CODE     ---       #33
      00FF3BE2H   LINE      CODE     ---       #34
      00FF3BE5H   LINE      CODE     ---       #35
      00FF3BE8H   LINE      CODE     ---       #36
      00FF3BF0H   LINE      CODE     ---       #37
      00FF3BF2H   LINE      CODE     ---       #38
      00FF3BF4H   LINE      CODE     ---       #39
      00FF3BF7H   LINE      CODE     ---       #40
      00FF3BFAH   LINE      CODE     ---       #62
      ---         BLOCKEND  ---      ---       LVL=0

      00FF3E97H   BLOCK     CODE     ---       LVL=0
      R11         REGSYM    ---      BYTE      dat
      00FF3E97H   LINE      CODE     ---       #67
      00FF3E97H   LINE      CODE     ---       #69
      00FF3E9AH   LINE      CODE     ---       #70
      00FF3EA1H   LINE      CODE     ---       #71
      00FF3EA4H   LINE      CODE     ---       #72
      00FF3EA7H   LINE      CODE     ---       #73
      00FF3EAAH   LINE      CODE     ---       #74
      ---         BLOCKEND  ---      ---       LVL=0

      00FF3CEAH   BLOCK     CODE     ---       LVL=0
      REG=0       REGSYM    ---      ---       buf
      WR8         REGSYM    ---      WORD      len
      00FF3CECH   BLOCK     CODE     NEAR LAB  LVL=1
      WR6         REGSYM    ---      WORD      i
      ---         BLOCKEND  ---      ---       LVL=1
      00FF3CEAH   LINE      CODE     ---       #79
      00FF3CECH   LINE      CODE     ---       #80
      00FF3CECH   LINE      CODE     ---       #96
      00FF3CF0H   LINE      CODE     ---       #98
      00FF3CF9H   LINE      CODE     ---       #99
      00FF3D00H   LINE      CODE     ---       #100
      00FF3D03H   LINE      CODE     ---       #101
      00FF3D06H   LINE      CODE     ---       #102
      00FF3D0CH   LINE      CODE     ---       #104
L251 LINKER/LOCATER V4.66.93.0                                                        03/20/2026  12:58:05  PAGE 27


      ---         BLOCKEND  ---      ---       LVL=0

      00FF0003H   BLOCK     CODE     ---       LVL=0
      00FF0003H   LINE      CODE     ---       #109
      00FF0003H   LINE      CODE     ---       #114
      ---         BLOCKEND  ---      ---       LVL=0

      ---         MODULE    ---      ---       uart
      00FF3E2CH   PUBLIC    CODE     ---       UART1_SendStr
      00FF3E42H   PUBLIC    CODE     ---       UART2_SendString
      00FF3BFBH   PUBLIC    CODE     ---       UART2_ReadByte
      00FF3CA0H   PUBLIC    CODE     ---       UART1_Init
      00FF3C25H   PUBLIC    CODE     ---       UART2_Init
      00FF0182H   PUBLIC    CODE     ---       UART1_SendByte
      00FF39A0H   PUBLIC    CODE     ---       UART2_SendByte
      00FF3D0DH   PUBLIC    CODE     ---       Printf
      00000161H   PUBLIC    EDATA    BYTE      uart2_rx_head
      00000162H   PUBLIC    EDATA    BYTE      uart2_tx_head
      00000163H   PUBLIC    EDATA    BYTE      uart2_rx_tail
      00000164H   PUBLIC    EDATA    BYTE      uart2_tx_tail
      00000165H   PUBLIC    EDATA    ---       uart2_rx_buf
      000001A5H   PUBLIC    EDATA    ---       uart2_tx_buf
      00000020H.3 PUBLIC    BIT      BIT       uart2_tx_busy
      000000F5H   PUBLIC    EDATA    BYTE      ?Printf?BYTE
      000000D0H   SFRSYM    DATA     BYTE      PSW
      0000009DH   SFRSYM    DATA     BYTE      IRCBAND
      00000097H   SFRSYM    DATA     BYTE      AUXR2
      000000EFH   SFRSYM    DATA     BYTE      AUXINTIF
      000000FDH   SFRSYM    DATA     BYTE      S4CON
      000000ACH   SFRSYM    DATA     BYTE      S3CON
      0000009AH   SFRSYM    DATA     BYTE      S2CON
      0000009BH   SFRSYM    DATA     BYTE      S2BUF
      000000B7H   SFRSYM    DATA     BYTE      IPH
      000000CDH   SFRSYM    DATA     BYTE      SPSTAT
      000000DDH   SFRSYM    DATA     BYTE      T4T3M
      000000C1H   SFRSYM    DATA     BYTE      WDT_CONTR
      00000088H.6 SFRSYM    DATA     BIT       TR1
      000000D7H   SFRSYM    DATA     BYTE      T2L
      0000008BH   SFRSYM    DATA     BYTE      TL1
      000000D6H   SFRSYM    DATA     BYTE      T2H
      0000008DH   SFRSYM    DATA     BYTE      TH1
      000000DFH   SFRSYM    DATA     BYTE      IP3
      000000F4H   SFRSYM    DATA     BYTE      USBCON
      000000B5H   SFRSYM    DATA     BYTE      IP2
      000000FFH   SFRSYM    DATA     BYTE      RSTCFG
      000000E0H   SFRSYM    DATA     BYTE      ACC
      000000C7H   SFRSYM    DATA     BYTE      IAP_CONTR
      000000F9H   SFRSYM    DATA     BYTE      LINICR
      0000008EH   SFRSYM    DATA     BYTE      AUXR
      000000F0H   SFRSYM    DATA     BYTE      B
      000000AFH   SFRSYM    DATA     BYTE      IE2
      000000BAH.0 SFRSYM    DATA     BIT       S2_S
      00000088H   SFRSYM    DATA     BYTE      TCON
      00000089H   SFRSYM    DATA     BYTE      TMOD
      00000098H   SFRSYM    DATA     BYTE      SCON
      000000F1H   SFRSYM    DATA     BYTE      CANICR
      00000087H   SFRSYM    DATA     BYTE      PCON
      00000099H   SFRSYM    DATA     BYTE      SBUF
      000000BCH   SFRSYM    DATA     BYTE      ADC_CONTR
      000000E7H   SFRSYM    DATA     BYTE      CMPCR2
      000000E6H   SFRSYM    DATA     BYTE      CMPCR1
      00000098H.1 SFRSYM    DATA     BIT       TI
      000000DEH   SFRSYM    DATA     BYTE      ADCCFG
      000000B8H   SFRSYM    DATA     BYTE      IP
      000000A8H.4 SFRSYM    DATA     BIT       ES
L251 LINKER/LOCATER V4.66.93.0                                                        03/20/2026  12:58:05  PAGE 28


      0000008FH   SFRSYM    DATA     BYTE      INTCLKO
      000000EEH   SFRSYM    DATA     BYTE      IP3H
      000000B6H   SFRSYM    DATA     BYTE      IP2H
      000000A8H   SFRSYM    DATA     BYTE      IE
      000000BBH   SFRSYM    DATA     BYTE      P_SW3
      000000BAH   SFRSYM    DATA     BYTE      P_SW2
      000000A2H   SFRSYM    DATA     BYTE      P_SW1
      000000CEH   SFRSYM    DATA     BYTE      SPCTL
      000000F8H   SFRSYM    DATA     BYTE      P7
      000000A8H.7 SFRSYM    DATA     BIT       EA
      000000E8H   SFRSYM    DATA     BYTE      P6
      000000C8H   SFRSYM    DATA     BYTE      P5
      000000C0H   SFRSYM    DATA     BYTE      P4
      000000B0H   SFRSYM    DATA     BYTE      P3
      000000B3H   SFRSYM    DATA     BYTE      P4M1
      000000A0H   SFRSYM    DATA     BYTE      P2
      000000B1H   SFRSYM    DATA     BYTE      P3M1
      000000B4H   SFRSYM    DATA     BYTE      P4M0
      00000090H   SFRSYM    DATA     BYTE      P1
      000000B2H   SFRSYM    DATA     BYTE      P3M0
      00000080H   SFRSYM    DATA     BYTE      P0

      00FF3CA0H   BLOCK     CODE     ---       LVL=0
      00FF3CA0H   LINE      CODE     ---       #20
      00FF3CA0H   LINE      CODE     ---       #23
      00FF3CA3H   LINE      CODE     ---       #24
      00FF3CA6H   LINE      CODE     ---       #29
      00FF3CA9H   LINE      CODE     ---       #30
      00FF3CACH   LINE      CODE     ---       #33
      00FF3CAFH   LINE      CODE     ---       #38
      00FF3CB2H   LINE      CODE     ---       #39
      00FF3CB5H   LINE      CODE     ---       #41
      00FF3CB8H   LINE      CODE     ---       #45
      00FF3CBBH   LINE      CODE     ---       #46
      00FF3CBEH   LINE      CODE     ---       #49
      00FF3CC0H   LINE      CODE     ---       #52
      00FF3CC2H   LINE      CODE     ---       #53
      00FF3CC4H   LINE      CODE     ---       #54
      ---         BLOCKEND  ---      ---       LVL=0

      00FF3C25H   BLOCK     CODE     ---       LVL=0
      00FF3C25H   LINE      CODE     ---       #58
      00FF3C25H   LINE      CODE     ---       #62
      00FF3C28H   LINE      CODE     ---       #63
      00FF3C2BH   LINE      CODE     ---       #64
      00FF3C2EH   LINE      CODE     ---       #65
      00FF3C31H   LINE      CODE     ---       #70
      00FF3C34H   LINE      CODE     ---       #73
      00FF3C37H   LINE      CODE     ---       #76
      00FF3C3AH   LINE      CODE     ---       #77
      00FF3C3DH   LINE      CODE     ---       #80
      00FF3C40H   LINE      CODE     ---       #81
      00FF3C43H   LINE      CODE     ---       #85
      00FF3C46H   LINE      CODE     ---       #87
      00FF3C49H   LINE      CODE     ---       #90
      00FF3C4CH   LINE      CODE     ---       #91
      00FF3C4EH   LINE      CODE     ---       #92
      ---         BLOCKEND  ---      ---       LVL=0

      00FF0182H   BLOCK     CODE     ---       LVL=0
      R11         REGSYM    ---      BYTE      dat
      00FF0182H   LINE      CODE     ---       #95
      00FF0182H   LINE      CODE     ---       #97
      00FF0185H   LINE      CODE     ---       #98
      00FF0188H   LINE      CODE     ---       #99
L251 LINKER/LOCATER V4.66.93.0                                                        03/20/2026  12:58:05  PAGE 29


      00FF018AH   LINE      CODE     ---       #100
      ---         BLOCKEND  ---      ---       LVL=0

      00FF3E2CH   BLOCK     CODE     ---       LVL=0
      REG=3       REGSYM    ---      ---       str
      00FF3E2CH   LINE      CODE     ---       #102
      00FF3E30H   LINE      CODE     ---       #104
      00FF3E3FH   LINE      CODE     ---       #106
      ---         BLOCKEND  ---      ---       LVL=0

      00FF39A0H   BLOCK     CODE     ---       LVL=0
      R10         REGSYM    ---      BYTE      dat
      00FF39A2H   BLOCK     CODE     NEAR LAB  LVL=1
      R7          REGSYM    ---      BYTE      next
      ---         BLOCKEND  ---      ---       LVL=1
      00FF39A0H   LINE      CODE     ---       #108
      00FF39A2H   LINE      CODE     ---       #109
      00FF39A2H   LINE      CODE     ---       #110
      00FF39B7H   LINE      CODE     ---       #113
      00FF39BFH   LINE      CODE     ---       #114
      00FF39BFH   LINE      CODE     ---       #116
      00FF39C3H   LINE      CODE     ---       #117
      00FF39C7H   LINE      CODE     ---       #120
      00FF39CAH   LINE      CODE     ---       #122
      00FF39CCH   LINE      CODE     ---       #123
      00FF39D4H   LINE      CODE     ---       #124
      00FF39DFH   LINE      CODE     ---       #125
      ---         BLOCKEND  ---      ---       LVL=0

      00FF3E42H   BLOCK     CODE     ---       LVL=0
      REG=3       REGSYM    ---      ---       str
      00FF3E42H   LINE      CODE     ---       #128
      00FF3E46H   LINE      CODE     ---       #130
      00FF3E55H   LINE      CODE     ---       #132
      ---         BLOCKEND  ---      ---       LVL=0

      00FF3BFBH   BLOCK     CODE     ---       LVL=0
      REG=2       REGSYM    ---      ---       dat
      00FF3BFBH   LINE      CODE     ---       #137
      00FF3BFDH   LINE      CODE     ---       #139
      00FF3C07H   LINE      CODE     ---       #140
      00FF3C09H   LINE      CODE     ---       #142
      00FF3C12H   LINE      CODE     ---       #143
      00FF3C23H   LINE      CODE     ---       #144
      00FF3C24H   LINE      CODE     ---       #145
      ---         BLOCKEND  ---      ---       LVL=0

      00FF3D0DH   BLOCK     CODE     ---       LVL=0
      000000F5H   SYMBOL    EDATA    ---       fmt
      00FF3D11H   BLOCK     CODE     NEAR LAB  LVL=1
      000000F9H   SYMBOL    EDATA    ---       buf
      REG=1       REGSYM    ---      ---       args
      ---         BLOCKEND  ---      ---       LVL=1
      00FF3D0DH   LINE      CODE     ---       #148
      00FF3D11H   LINE      CODE     ---       #149
      00FF3D11H   LINE      CODE     ---       #154
      00FF3D19H   LINE      CODE     ---       #155
      00FF3D28H   LINE      CODE     ---       #158
      ---         BLOCKEND  ---      ---       LVL=0

      ---         MODULE    ---      ---       timer
      00FF3A20H   PUBLIC    CODE     ---       Encoder_Read
      00FF3ED3H   PUBLIC    CODE     ---       PWM_OutputDisable
      00FF3E82H   PUBLIC    CODE     ---       Timer0_Init
      00FF3CC5H   PUBLIC    CODE     ---       PWM_SetDuty
L251 LINKER/LOCATER V4.66.93.0                                                        03/20/2026  12:58:05  PAGE 30


      00FF3EABH   PUBLIC    CODE     ---       PWM_OutputEnable
      00FF34BDH   PUBLIC    CODE     ---       PWMB_Encoder_Init
      00FF3277H   PUBLIC    CODE     ---       PWM_Init
      000000D0H   SFRSYM    DATA     BYTE      PSW
      000000BAH.7 SFRSYM    DATA     BIT       EAXFR
      0000009DH   SFRSYM    DATA     BYTE      IRCBAND
      00000097H   SFRSYM    DATA     BYTE      AUXR2
      000000EFH   SFRSYM    DATA     BYTE      AUXINTIF
      000000FDH   SFRSYM    DATA     BYTE      S4CON
      000000ACH   SFRSYM    DATA     BYTE      S3CON
      0000009AH   SFRSYM    DATA     BYTE      S2CON
      000000B7H   SFRSYM    DATA     BYTE      IPH
      000000CDH   SFRSYM    DATA     BYTE      SPSTAT
      000000DDH   SFRSYM    DATA     BYTE      T4T3M
      000000C1H   SFRSYM    DATA     BYTE      WDT_CONTR
      00000088H.4 SFRSYM    DATA     BIT       TR0
      0000008AH   SFRSYM    DATA     BYTE      TL0
      0000008CH   SFRSYM    DATA     BYTE      TH0
      000000DFH   SFRSYM    DATA     BYTE      IP3
      000000F4H   SFRSYM    DATA     BYTE      USBCON
      000000B5H   SFRSYM    DATA     BYTE      IP2
      000000FFH   SFRSYM    DATA     BYTE      RSTCFG
      00000088H.5 SFRSYM    DATA     BIT       TF0
      000000A8H.1 SFRSYM    DATA     BIT       ET0
      000000E0H   SFRSYM    DATA     BYTE      ACC
      000000C7H   SFRSYM    DATA     BYTE      IAP_CONTR
      000000F9H   SFRSYM    DATA     BYTE      LINICR
      0000008EH   SFRSYM    DATA     BYTE      AUXR
      000000F0H   SFRSYM    DATA     BYTE      B
      000000AFH   SFRSYM    DATA     BYTE      IE2
      00000088H   SFRSYM    DATA     BYTE      TCON
      00000089H   SFRSYM    DATA     BYTE      TMOD
      00000098H   SFRSYM    DATA     BYTE      SCON
      000000F1H   SFRSYM    DATA     BYTE      CANICR
      00000087H   SFRSYM    DATA     BYTE      PCON
      000000BCH   SFRSYM    DATA     BYTE      ADC_CONTR
      000000E7H   SFRSYM    DATA     BYTE      CMPCR2
      000000E6H   SFRSYM    DATA     BYTE      CMPCR1
      000000DEH   SFRSYM    DATA     BYTE      ADCCFG
      000000B8H   SFRSYM    DATA     BYTE      IP
      0000008FH   SFRSYM    DATA     BYTE      INTCLKO
      000000EEH   SFRSYM    DATA     BYTE      IP3H
      000000B6H   SFRSYM    DATA     BYTE      IP2H
      000000A8H   SFRSYM    DATA     BYTE      IE
      000000BBH   SFRSYM    DATA     BYTE      P_SW3
      000000BAH   SFRSYM    DATA     BYTE      P_SW2
      000000A2H   SFRSYM    DATA     BYTE      P_SW1
      000000CEH   SFRSYM    DATA     BYTE      SPCTL
      000000F8H   SFRSYM    DATA     BYTE      P7
      000000A8H.7 SFRSYM    DATA     BIT       EA
      000000E8H   SFRSYM    DATA     BYTE      P6
      000000C8H   SFRSYM    DATA     BYTE      P5
      000000C0H   SFRSYM    DATA     BYTE      P4
      000000B0H   SFRSYM    DATA     BYTE      P3
      000000A0H   SFRSYM    DATA     BYTE      P2
      00000090H   SFRSYM    DATA     BYTE      P1
      00000080H   SFRSYM    DATA     BYTE      P0
      00000091H   SFRSYM    DATA     BYTE      P1M1
      00000092H   SFRSYM    DATA     BYTE      P1M0

      00FF3E82H   BLOCK     CODE     ---       LVL=0
      00FF3E82H   LINE      CODE     ---       #4
      00FF3E82H   LINE      CODE     ---       #8
      00FF3E85H   LINE      CODE     ---       #11
      00FF3E88H   LINE      CODE     ---       #14
L251 LINKER/LOCATER V4.66.93.0                                                        03/20/2026  12:58:05  PAGE 31


      00FF3E8BH   LINE      CODE     ---       #15
      00FF3E8EH   LINE      CODE     ---       #18
      00FF3E90H   LINE      CODE     ---       #19
      00FF3E92H   LINE      CODE     ---       #20
      00FF3E94H   LINE      CODE     ---       #23
      00FF3E96H   LINE      CODE     ---       #24
      ---         BLOCKEND  ---      ---       LVL=0

      00FF3277H   BLOCK     CODE     ---       LVL=0
      00FF3277H   LINE      CODE     ---       #27
      00FF3277H   LINE      CODE     ---       #29
      00FF327AH   LINE      CODE     ---       #32
      00FF327DH   LINE      CODE     ---       #33
      00FF3280H   LINE      CODE     ---       #37
      00FF3290H   LINE      CODE     ---       #46
      00FF3299H   LINE      CODE     ---       #50
      00FF32A5H   LINE      CODE     ---       #53
      00FF32ACH   LINE      CODE     ---       #54
      00FF32B3H   LINE      CODE     ---       #58
      00FF32BCH   LINE      CODE     ---       #59
      00FF32C5H   LINE      CODE     ---       #66
      00FF32CEH   LINE      CODE     ---       #69
      00FF32D7H   LINE      CODE     ---       #70
      00FF32E0H   LINE      CODE     ---       #77
      00FF32E9H   LINE      CODE     ---       #84
      00FF32F2H   LINE      CODE     ---       #89
      00FF32FBH   LINE      CODE     ---       #94
      00FF3303H   LINE      CODE     ---       #98
      00FF330BH   LINE      CODE     ---       #101
      00FF3314H   LINE      CODE     ---       #103
      00FF3317H   LINE      CODE     ---       #104
      ---         BLOCKEND  ---      ---       LVL=0

      00FF3CC5H   BLOCK     CODE     ---       LVL=0
      WR0         REGSYM    ---      WORD      duty
      00FF3CC5H   LINE      CODE     ---       #110
      00FF3CC7H   LINE      CODE     ---       #112
      00FF3CD1H   LINE      CODE     ---       #113
      00FF3CD4H   LINE      CODE     ---       #114
      00FF3CDFH   LINE      CODE     ---       #115
      00FF3CE6H   LINE      CODE     ---       #116
      00FF3CE9H   LINE      CODE     ---       #117
      ---         BLOCKEND  ---      ---       LVL=0

      00FF3EABH   BLOCK     CODE     ---       LVL=0
      00FF3EABH   LINE      CODE     ---       #120
      00FF3EABH   LINE      CODE     ---       #122
      00FF3EAEH   LINE      CODE     ---       #123
      00FF3EBBH   LINE      CODE     ---       #124
      00FF3EBEH   LINE      CODE     ---       #125
      ---         BLOCKEND  ---      ---       LVL=0

      00FF3ED3H   BLOCK     CODE     ---       LVL=0
      00FF3ED3H   LINE      CODE     ---       #128
      00FF3ED3H   LINE      CODE     ---       #130
      00FF3ED6H   LINE      CODE     ---       #131
      00FF3EE2H   LINE      CODE     ---       #132
      00FF3EE5H   LINE      CODE     ---       #133
      ---         BLOCKEND  ---      ---       LVL=0

      00FF34BDH   BLOCK     CODE     ---       LVL=0
      00FF34BDH   LINE      CODE     ---       #135
      00FF34BDH   LINE      CODE     ---       #137
      00FF34C0H   LINE      CODE     ---       #138
      00FF34C3H   LINE      CODE     ---       #140
L251 LINKER/LOCATER V4.66.93.0                                                        03/20/2026  12:58:05  PAGE 32


      00FF34CFH   LINE      CODE     ---       #141
      00FF34D6H   LINE      CODE     ---       #144
      00FF34DDH   LINE      CODE     ---       #145
      00FF34E4H   LINE      CODE     ---       #148
      00FF34EDH   LINE      CODE     ---       #149
      00FF34F4H   LINE      CODE     ---       #152
      00FF34FCH   LINE      CODE     ---       #153
      00FF3503H   LINE      CODE     ---       #159
      00FF350CH   LINE      CODE     ---       #163
      00FF3513H   LINE      CODE     ---       #167
      00FF351CH   LINE      CODE     ---       #174
      00FF3525H   LINE      CODE     ---       #175
      00FF352CH   LINE      CODE     ---       #178
      00FF3534H   LINE      CODE     ---       #181
      00FF353DH   LINE      CODE     ---       #183
      00FF3540H   LINE      CODE     ---       #184
      00FF3543H   LINE      CODE     ---       #185
      ---         BLOCKEND  ---      ---       LVL=0

      00FF3A20H   BLOCK     CODE     ---       LVL=0
      WR10        REGSYM    ---      INT       cnt
      WR8         REGSYM    ---      WORD      raw
      00FF3A20H   LINE      CODE     ---       #187
      00FF3A20H   LINE      CODE     ---       #188
      00FF3A20H   LINE      CODE     ---       #192
      00FF3A23H   LINE      CODE     ---       #193
      00FF3A32H   LINE      CODE     ---       #194
      00FF3A3DH   LINE      CODE     ---       #195
      00FF3A40H   LINE      CODE     ---       #199
      00FF3A48H   LINE      CODE     ---       #200
      00FF3A58H   LINE      CODE     ---       #201
      00FF3A5AH   LINE      CODE     ---       #202
      00FF3A5CH   LINE      CODE     ---       #203
      00FF3A5CH   LINE      CODE     ---       #205
      00FF3A5EH   LINE      CODE     ---       #206
      ---         BLOCKEND  ---      ---       LVL=0

      ---         MODULE    ---      ---       rs485
      00FF3C78H   PUBLIC    CODE     ---       Modbus_RxByte
      00FF3B9DH   PUBLIC    CODE     ---       Modbus_TimerTick
      00FF3EE6H   PUBLIC    CODE     ---       Modbus_Init
      00FF3EBFH   PUBLIC    CODE     ---       Modbus_Poll
      000000A2H   PUBLIC    EDATA    BYTE      modbus_coils
      000000A4H   PUBLIC    EDATA    ---       modbus_regs
      000000D0H   SFRSYM    DATA     BYTE      PSW
      0000009DH   SFRSYM    DATA     BYTE      IRCBAND
      00000097H   SFRSYM    DATA     BYTE      AUXR2
      000000EFH   SFRSYM    DATA     BYTE      AUXINTIF
      000000FDH   SFRSYM    DATA     BYTE      S4CON
      000000ACH   SFRSYM    DATA     BYTE      S3CON
      0000009AH   SFRSYM    DATA     BYTE      S2CON
      000000B7H   SFRSYM    DATA     BYTE      IPH
      000000CDH   SFRSYM    DATA     BYTE      SPSTAT
      000000DDH   SFRSYM    DATA     BYTE      T4T3M
      000000C1H   SFRSYM    DATA     BYTE      WDT_CONTR
      000000DFH   SFRSYM    DATA     BYTE      IP3
      000000F4H   SFRSYM    DATA     BYTE      USBCON
      000000B5H   SFRSYM    DATA     BYTE      IP2
      000000FFH   SFRSYM    DATA     BYTE      RSTCFG
      000000E0H   SFRSYM    DATA     BYTE      ACC
      000000C7H   SFRSYM    DATA     BYTE      IAP_CONTR
      000000F9H   SFRSYM    DATA     BYTE      LINICR
      0000008EH   SFRSYM    DATA     BYTE      AUXR
      000000F0H   SFRSYM    DATA     BYTE      B
      000000AFH   SFRSYM    DATA     BYTE      IE2
L251 LINKER/LOCATER V4.66.93.0                                                        03/20/2026  12:58:05  PAGE 33


      00000088H   SFRSYM    DATA     BYTE      TCON
      00000089H   SFRSYM    DATA     BYTE      TMOD
      00000098H   SFRSYM    DATA     BYTE      SCON
      000000F1H   SFRSYM    DATA     BYTE      CANICR
      00000087H   SFRSYM    DATA     BYTE      PCON
      000000BCH   SFRSYM    DATA     BYTE      ADC_CONTR
      000000E7H   SFRSYM    DATA     BYTE      CMPCR2
      000000E6H   SFRSYM    DATA     BYTE      CMPCR1
      000000DEH   SFRSYM    DATA     BYTE      ADCCFG
      000000B8H   SFRSYM    DATA     BYTE      IP
      0000008FH   SFRSYM    DATA     BYTE      INTCLKO
      000000EEH   SFRSYM    DATA     BYTE      IP3H
      000000B6H   SFRSYM    DATA     BYTE      IP2H
      000000A8H   SFRSYM    DATA     BYTE      IE
      000000BBH   SFRSYM    DATA     BYTE      P_SW3
      000000BAH   SFRSYM    DATA     BYTE      P_SW2
      000000A2H   SFRSYM    DATA     BYTE      P_SW1
      000000CEH   SFRSYM    DATA     BYTE      SPCTL
      000000F8H   SFRSYM    DATA     BYTE      P7
      000000E8H   SFRSYM    DATA     BYTE      P6
      000000C8H   SFRSYM    DATA     BYTE      P5
      000000C0H   SFRSYM    DATA     BYTE      P4
      000000B0H   SFRSYM    DATA     BYTE      P3
      000000A0H   SFRSYM    DATA     BYTE      P2
      00000090H   SFRSYM    DATA     BYTE      P1
      00000080H   SFRSYM    DATA     BYTE      P0
      00FF3A5FH   SYMBOL    CODE     ---       CRC16
      00FF3DC5H   SYMBOL    CODE     ---       SendException
      00FF2263H   SYMBOL    CODE     ---       ProcessFrame
      00FF3A99H   SYMBOL    CODE     ---       SendResponse
      00000021H   SYMBOL    EDATA    ---       rx_buf
      00000061H   SYMBOL    EDATA    ---       tx_buf
      000000A1H   SYMBOL    EDATA    BYTE      rx_len
      000000A3H   SYMBOL    EDATA    BYTE      tx_len
      000000C4H   SYMBOL    EDATA    BYTE      timeout_cnt
      000000C5H   SYMBOL    EDATA    BYTE      rx_active
      000000C6H   SYMBOL    EDATA    BYTE      rx_done

      00FF3A5FH   BLOCK     CODE     ---       LVL=0
      REG=7       REGSYM    ---      ---       buf
      R10         REGSYM    ---      BYTE      len
      00FF3A63H   BLOCK     CODE     NEAR LAB  LVL=1
      WR6         REGSYM    ---      WORD      crc
      R5          REGSYM    ---      BYTE      i
      R4          REGSYM    ---      BYTE      j
      ---         BLOCKEND  ---      ---       LVL=1
      00FF3A5FH   LINE      CODE     ---       #40
      00FF3A63H   LINE      CODE     ---       #41
      00FF3A63H   LINE      CODE     ---       #42
      00FF3A67H   LINE      CODE     ---       #45
      00FF3A6BH   LINE      CODE     ---       #47
      00FF3A78H   LINE      CODE     ---       #48
      00FF3A7AH   LINE      CODE     ---       #50
      00FF3A82H   LINE      CODE     ---       #51
      00FF3A8AH   LINE      CODE     ---       #53
      00FF3A8CH   LINE      CODE     ---       #54
      00FF3A92H   LINE      CODE     ---       #55
      00FF3A98H   LINE      CODE     ---       #56
      00FF3A98H   LINE      CODE     ---       #57
      ---         BLOCKEND  ---      ---       LVL=0

      00FF3A99H   BLOCK     CODE     ---       LVL=0
      R15         REGSYM    ---      BYTE      len
      00FF3A9BH   BLOCK     CODE     NEAR LAB  LVL=1
      WR6         REGSYM    ---      WORD      crc
L251 LINKER/LOCATER V4.66.93.0                                                        03/20/2026  12:58:05  PAGE 34


      R15         REGSYM    ---      BYTE      i
      ---         BLOCKEND  ---      ---       LVL=1
      00FF3A99H   LINE      CODE     ---       #62
      00FF3A9BH   LINE      CODE     ---       #63
      00FF3A9BH   LINE      CODE     ---       #67
      00FF3AA2H   LINE      CODE     ---       #68
      00FF3AA8H   LINE      CODE     ---       #69
      00FF3AAEH   LINE      CODE     ---       #70
      00FF3AB6H   LINE      CODE     ---       #73
      00FF3ABAH   LINE      CODE     ---       #74
      00FF3ACDH   LINE      CODE     ---       #75
      00FF3ACDH   LINE      CODE     ---       #76
      ---         BLOCKEND  ---      ---       LVL=0

      00FF3DC5H   BLOCK     CODE     ---       LVL=0
      R7          REGSYM    ---      BYTE      func
      R10         REGSYM    ---      BYTE      ex_code
      00FF3DC5H   LINE      CODE     ---       #81
      00FF3DC9H   LINE      CODE     ---       #83
      00FF3DCFH   LINE      CODE     ---       #84
      00FF3DD7H   LINE      CODE     ---       #85
      00FF3DDBH   LINE      CODE     ---       #86
      ---         BLOCKEND  ---      ---       LVL=0

      00FF2263H   BLOCK     CODE     ---       LVL=0
      00FF2265H   BLOCK     CODE     NEAR LAB  LVL=1
      000000CDH   SYMBOL    EDATA    WORD      crc_recv
      WR6         REGSYM    ---      WORD      crc_calc
      R10         REGSYM    ---      BYTE      func
      WR8         REGSYM    ---      WORD      start_addr
      WR6         REGSYM    ---      WORD      quantity
      R13         REGSYM    ---      BYTE      byte_cnt
      WR14        REGSYM    ---      WORD      i
      R11         REGSYM    ---      BYTE      coil_val
      ---         BLOCKEND  ---      ---       LVL=1
      00FF2263H   LINE      CODE     ---       #106
      00FF2265H   LINE      CODE     ---       #107
      00FF2265H   LINE      CODE     ---       #116
      00FF2271H   LINE      CODE     ---       #117
      00FF2271H   LINE      CODE     ---       #120
      00FF227DH   LINE      CODE     ---       #121
      00FF227DH   LINE      CODE     ---       #124
      00FF228DH   LINE      CODE     ---       #125
      00FF229CH   LINE      CODE     ---       #126
      00FF22A5H   LINE      CODE     ---       #127
      00FF22A5H   LINE      CODE     ---       #130
      00FF22A9H   LINE      CODE     ---       #131
      00FF22B9H   LINE      CODE     ---       #132
      00FF22C9H   LINE      CODE     ---       #135
      00FF22EDH   LINE      CODE     ---       #144
      00FF22EDH   LINE      CODE     ---       #146
      00FF22FCH   LINE      CODE     ---       #148
      00FF22FCH   LINE      CODE     ---       #149
      00FF22FFH   LINE      CODE     ---       #150
      00FF22FFH   LINE      CODE     ---       #152
      00FF2309H   LINE      CODE     ---       #154
      00FF2309H   LINE      CODE     ---       #155
      00FF230CH   LINE      CODE     ---       #156
      00FF230CH   LINE      CODE     ---       #158
      00FF2318H   LINE      CODE     ---       #160
      00FF231EH   LINE      CODE     ---       #161
      00FF2322H   LINE      CODE     ---       #162
      00FF2326H   LINE      CODE     ---       #164
      00FF232AH   LINE      CODE     ---       #165
      00FF234DH   LINE      CODE     ---       #166
L251 LINKER/LOCATER V4.66.93.0                                                        03/20/2026  12:58:05  PAGE 35


      00FF234FH   LINE      CODE     ---       #167
      00FF2351H   LINE      CODE     ---       #176
      00FF2351H   LINE      CODE     ---       #178
      00FF2360H   LINE      CODE     ---       #180
      00FF2360H   LINE      CODE     ---       #181
      00FF2363H   LINE      CODE     ---       #182
      00FF2363H   LINE      CODE     ---       #184
      00FF236DH   LINE      CODE     ---       #186
      00FF236DH   LINE      CODE     ---       #187
      00FF2370H   LINE      CODE     ---       #188
      00FF2370H   LINE      CODE     ---       #190
      00FF2374H   LINE      CODE     ---       #192
      00FF237AH   LINE      CODE     ---       #193
      00FF2380H   LINE      CODE     ---       #194
      00FF2384H   LINE      CODE     ---       #196
      00FF2388H   LINE      CODE     ---       #198
      00FF239AH   LINE      CODE     ---       #199
      00FF239EH   LINE      CODE     ---       #200
      00FF23A4H   LINE      CODE     ---       #201
      00FF23AAH   LINE      CODE     ---       #202
      00FF23ADH   LINE      CODE     ---       #211
      00FF23ADH   LINE      CODE     ---       #213
      00FF23B3H   LINE      CODE     ---       #215
      00FF23B3H   LINE      CODE     ---       #216
      00FF23B6H   LINE      CODE     ---       #217
      00FF23B6H   LINE      CODE     ---       #219
      00FF23C2H   LINE      CODE     ---       #221
      00FF23C4H   LINE      CODE     ---       #222
      00FF23D7H   LINE      CODE     ---       #224
      00FF23EFH   LINE      CODE     ---       #227
      00FF23F7H   LINE      CODE     ---       #228
      00FF23FFH   LINE      CODE     ---       #229
      00FF2407H   LINE      CODE     ---       #230
      00FF240FH   LINE      CODE     ---       #231
      00FF2417H   LINE      CODE     ---       #232
      00FF241FH   LINE      CODE     ---       #233
      00FF2421H   LINE      CODE     ---       #234
      00FF2424H   LINE      CODE     ---       #243
      00FF2424H   LINE      CODE     ---       #245
      00FF242AH   LINE      CODE     ---       #247
      00FF242AH   LINE      CODE     ---       #248
      00FF242CH   LINE      CODE     ---       #249
      00FF242CH   LINE      CODE     ---       #251
      00FF2434H   LINE      CODE     ---       #253
      00FF243CH   LINE      CODE     ---       #254
      00FF2444H   LINE      CODE     ---       #255
      00FF244CH   LINE      CODE     ---       #256
      00FF2454H   LINE      CODE     ---       #257
      00FF245CH   LINE      CODE     ---       #258
      00FF2464H   LINE      CODE     ---       #259
      00FF2466H   LINE      CODE     ---       #260
      00FF2469H   LINE      CODE     ---       #269
      00FF2469H   LINE      CODE     ---       #271
      00FF2475H   LINE      CODE     ---       #273
      00FF2475H   LINE      CODE     ---       #274
      00FF2477H   LINE      CODE     ---       #275
      00FF2477H   LINE      CODE     ---       #277
      00FF2481H   LINE      CODE     ---       #279
      00FF2486H   LINE      CODE     ---       #280
      00FF2488H   LINE      CODE     ---       #281
      00FF2488H   LINE      CODE     ---       #283
      00FF248CH   LINE      CODE     ---       #284
      00FF2496H   LINE      CODE     ---       #286
      00FF249BH   LINE      CODE     ---       #287
      00FF249DH   LINE      CODE     ---       #288
L251 LINKER/LOCATER V4.66.93.0                                                        03/20/2026  12:58:05  PAGE 36


      00FF249DH   LINE      CODE     ---       #290
      00FF24A1H   LINE      CODE     ---       #293
      00FF24BFH   LINE      CODE     ---       #294
      00FF24C5H   LINE      CODE     ---       #296
      00FF24CBH   LINE      CODE     ---       #297
      00FF24D1H   LINE      CODE     ---       #298
      00FF24D9H   LINE      CODE     ---       #299
      00FF24E1H   LINE      CODE     ---       #300
      00FF24E9H   LINE      CODE     ---       #301
      00FF24F1H   LINE      CODE     ---       #302
      00FF24F6H   LINE      CODE     ---       #303
      00FF24F8H   LINE      CODE     ---       #308
      00FF24F8H   LINE      CODE     ---       #309
      00FF2500H   LINE      CODE     ---       #310
      00FF2500H   LINE      CODE     ---       #311
      00FF2500H   LINE      CODE     ---       #312
      ---         BLOCKEND  ---      ---       LVL=0

      00FF3EE6H   BLOCK     CODE     ---       LVL=0
      00FF3EE6H   LINE      CODE     ---       #318
      00FF3EE6H   LINE      CODE     ---       #321
      00FF3EEBH   LINE      CODE     ---       #322
      00FF3EEFH   LINE      CODE     ---       #323
      00FF3EF3H   LINE      CODE     ---       #324
      00FF3EF7H   LINE      CODE     ---       #325
      ---         BLOCKEND  ---      ---       LVL=0

      00FF3B9DH   BLOCK     CODE     ---       LVL=0
      00FF3B9DH   LINE      CODE     ---       #338
      00FF3B9DH   LINE      CODE     ---       #340
      00FF3BA3H   LINE      CODE     ---       #342
      00FF3BACH   LINE      CODE     ---       #343
      00FF3BB5H   LINE      CODE     ---       #346
      00FF3BBAH   LINE      CODE     ---       #347
      00FF3BBEH   LINE      CODE     ---       #348
      00FF3BC7H   LINE      CODE     ---       #349
      00FF3BCDH   LINE      CODE     ---       #350
      00FF3BCDH   LINE      CODE     ---       #351
      00FF3BCDH   LINE      CODE     ---       #352
      ---         BLOCKEND  ---      ---       LVL=0

      00FF3C78H   BLOCK     CODE     ---       LVL=0
      R10         REGSYM    ---      BYTE      dat
      00FF3C78H   LINE      CODE     ---       #357
      00FF3C7AH   LINE      CODE     ---       #360
      00FF3C7FH   LINE      CODE     ---       #361
      00FF3C85H   LINE      CODE     ---       #363
      00FF3C8EH   LINE      CODE     ---       #364
      00FF3C9FH   LINE      CODE     ---       #368
      ---         BLOCKEND  ---      ---       LVL=0

      00FF3EBFH   BLOCK     CODE     ---       LVL=0
      00FF3EBFH   LINE      CODE     ---       #373
      00FF3EBFH   LINE      CODE     ---       #375
      00FF3EC5H   LINE      CODE     ---       #376
      00FF3EC5H   LINE      CODE     ---       #378
      00FF3ECAH   LINE      CODE     ---       #379
      00FF3ECDH   LINE      CODE     ---       #380
      00FF3ED2H   LINE      CODE     ---       #381
      ---         BLOCKEND  ---      ---       LVL=0

      ---         MODULE    ---      ---       isr

      00FF018BH   BLOCK     CODE     NEAR LAB  LVL=0
      00FF018BH   LINE      CODE     ---       #7
L251 LINKER/LOCATER V4.66.93.0                                                        03/20/2026  12:58:05  PAGE 37


      ---         BLOCKEND  ---      ---       LVL=0

      ---         MODULE    ---      ---       key
      00FF3D2FH   PUBLIC    CODE     ---       Key_Scan
      00FF39E0H   PUBLIC    CODE     ---       Buzzer_PlayTone
      00FF3649H   PUBLIC    CODE     ---       Key_Init
      00FF3AD0H   PUBLIC    CODE     ---       Key_IsPressed
      00FF3D70H   PUBLIC    CODE     ---       Key_GetEvent
      00FF3F11H   PUBLIC    CODE     ---       Buzzer_IsBusy
      00FF3318H   PUBLIC    CODE     ---       Buzzer_Update
      00FF297FH   PUBLIC    CODE     ---       Key_HandleEvent
      00FF3D50H   PUBLIC    CODE     ---       Key_ClearEvent
      00000240H   PUBLIC    EDATA    ---       key1
      0000024DH   PUBLIC    EDATA    ---       key2
      0000025AH   PUBLIC    EDATA    ---       key3
      000000D0H   SFRSYM    DATA     BYTE      PSW
      0000009DH   SFRSYM    DATA     BYTE      IRCBAND
      00000097H   SFRSYM    DATA     BYTE      AUXR2
      000000EFH   SFRSYM    DATA     BYTE      AUXINTIF
      000000FDH   SFRSYM    DATA     BYTE      S4CON
      000000ACH   SFRSYM    DATA     BYTE      S3CON
      0000009AH   SFRSYM    DATA     BYTE      S2CON
      000000C0H.2 SFRSYM    DATA     BIT       KEY3_PIN
      000000C0H.3 SFRSYM    DATA     BIT       KEY2_PIN
      00000090H.3 SFRSYM    DATA     BIT       BUZZER
      000000C0H.4 SFRSYM    DATA     BIT       KEY1_PIN
      000000B7H   SFRSYM    DATA     BYTE      IPH
      000000CDH   SFRSYM    DATA     BYTE      SPSTAT
      000000DDH   SFRSYM    DATA     BYTE      T4T3M
      000000C1H   SFRSYM    DATA     BYTE      WDT_CONTR
      000000DFH   SFRSYM    DATA     BYTE      IP3
      000000F4H   SFRSYM    DATA     BYTE      USBCON
      000000B5H   SFRSYM    DATA     BYTE      IP2
      000000FFH   SFRSYM    DATA     BYTE      RSTCFG
      000000E0H   SFRSYM    DATA     BYTE      ACC
      000000C7H   SFRSYM    DATA     BYTE      IAP_CONTR
      000000F9H   SFRSYM    DATA     BYTE      LINICR
      0000008EH   SFRSYM    DATA     BYTE      AUXR
      000000F0H   SFRSYM    DATA     BYTE      B
      000000AFH   SFRSYM    DATA     BYTE      IE2
      00000088H   SFRSYM    DATA     BYTE      TCON
      00000089H   SFRSYM    DATA     BYTE      TMOD
      00000098H   SFRSYM    DATA     BYTE      SCON
      000000F1H   SFRSYM    DATA     BYTE      CANICR
      00000087H   SFRSYM    DATA     BYTE      PCON
      000000BCH   SFRSYM    DATA     BYTE      ADC_CONTR
      000000E7H   SFRSYM    DATA     BYTE      CMPCR2
      000000E6H   SFRSYM    DATA     BYTE      CMPCR1
      000000DEH   SFRSYM    DATA     BYTE      ADCCFG
      000000B8H   SFRSYM    DATA     BYTE      IP
      0000008FH   SFRSYM    DATA     BYTE      INTCLKO
      000000EEH   SFRSYM    DATA     BYTE      IP3H
      000000B6H   SFRSYM    DATA     BYTE      IP2H
      000000A8H   SFRSYM    DATA     BYTE      IE
      000000BBH   SFRSYM    DATA     BYTE      P_SW3
      000000BAH   SFRSYM    DATA     BYTE      P_SW2
      000000A2H   SFRSYM    DATA     BYTE      P_SW1
      000000CEH   SFRSYM    DATA     BYTE      SPCTL
      000000F8H   SFRSYM    DATA     BYTE      P7
      000000E8H   SFRSYM    DATA     BYTE      P6
      000000C8H   SFRSYM    DATA     BYTE      P5
      000000C0H   SFRSYM    DATA     BYTE      P4
      000000B0H   SFRSYM    DATA     BYTE      P3
      000000A0H   SFRSYM    DATA     BYTE      P2
      00000090H   SFRSYM    DATA     BYTE      P1
L251 LINKER/LOCATER V4.66.93.0                                                        03/20/2026  12:58:05  PAGE 38


      00000080H   SFRSYM    DATA     BYTE      P0
      00000091H   SFRSYM    DATA     BYTE      P1M1
      00000092H   SFRSYM    DATA     BYTE      P1M0
      00FF40D0H   SYMBOL    HCONST   ---       adj_steps
      00FF40DCH   SYMBOL    HCONST   ---       g_tone_segments
      00FF36C5H   SYMBOL    CODE     ---       Key_AdjustTarget
      00FF0046H   SYMBOL    CODE     ---       Key_ScanSingle
      0000023AH   SYMBOL    EDATA    ---       g_buzzer

      00FF3318H   BLOCK     CODE     ---       LVL=0
      WR26        REGSYM    ---      WORD      elapsed_ms
      00FF3318H   LINE      CODE     ---       #88
      00FF3318H   LINE      CODE     ---       #89
      00FF3318H   LINE      CODE     ---       #93
      00FF3321H   LINE      CODE     ---       #94
      00FF3321H   LINE      CODE     ---       #97
      00FF3329H   LINE      CODE     ---       #100
      00FF335EH   LINE      CODE     ---       #102
      00FF3363H   LINE      CODE     ---       #103
      00FF336BH   LINE      CODE     ---       #106
      00FF338BH   LINE      CODE     ---       #108
      00FF338DH   LINE      CODE     ---       #109
      00FF3392H   LINE      CODE     ---       #110
      00FF3396H   LINE      CODE     ---       #111
      00FF3397H   LINE      CODE     ---       #112
      00FF3397H   LINE      CODE     ---       #115
      00FF33A4H   LINE      CODE     ---       #116
      00FF33A7H   LINE      CODE     ---       #118
      00FF33A9H   LINE      CODE     ---       #119
      ---         BLOCKEND  ---      ---       LVL=0

      00FF39E0H   BLOCK     CODE     ---       LVL=0
      R10         REGSYM    ---      BYTE      tone_type
      00FF39E0H   LINE      CODE     ---       #123
      00FF39E2H   LINE      CODE     ---       #125
      00FF39EBH   LINE      CODE     ---       #126
      00FF39EBH   LINE      CODE     ---       #128
      00FF39F1H   LINE      CODE     ---       #129
      00FF39F5H   LINE      CODE     ---       #130
      00FF39FAH   LINE      CODE     ---       #131
      00FF3A02H   LINE      CODE     ---       #134
      00FF3A1AH   LINE      CODE     ---       #135
      00FF3A1DH   LINE      CODE     ---       #137
      00FF3A1FH   LINE      CODE     ---       #138
      ---         BLOCKEND  ---      ---       LVL=0

      00FF3F11H   BLOCK     CODE     ---       LVL=0
      00FF3F11H   LINE      CODE     ---       #143
      00FF3F11H   LINE      CODE     ---       #145
      00FF3F1BH   LINE      CODE     ---       #146
      ---         BLOCKEND  ---      ---       LVL=0

      00FF3649H   BLOCK     CODE     ---       LVL=0
      00FF3649H   LINE      CODE     ---       #148
      00FF3649H   LINE      CODE     ---       #155
      00FF364CH   LINE      CODE     ---       #156
      00FF364FH   LINE      CODE     ---       #159
      00FF3655H   LINE      CODE     ---       #160
      00FF365AH   LINE      CODE     ---       #161
      00FF365EH   LINE      CODE     ---       #162
      00FF3664H   LINE      CODE     ---       #163
      00FF3668H   LINE      CODE     ---       #164
      00FF366CH   LINE      CODE     ---       #165
      00FF3670H   LINE      CODE     ---       #166
      00FF3674H   LINE      CODE     ---       #169
L251 LINKER/LOCATER V4.66.93.0                                                        03/20/2026  12:58:05  PAGE 39


      00FF367AH   LINE      CODE     ---       #170
      00FF367FH   LINE      CODE     ---       #171
      00FF3683H   LINE      CODE     ---       #172
      00FF3687H   LINE      CODE     ---       #173
      00FF368BH   LINE      CODE     ---       #174
      00FF368FH   LINE      CODE     ---       #175
      00FF3693H   LINE      CODE     ---       #176
      00FF3697H   LINE      CODE     ---       #179
      00FF369DH   LINE      CODE     ---       #180
      00FF36A2H   LINE      CODE     ---       #181
      00FF36A6H   LINE      CODE     ---       #182
      00FF36AAH   LINE      CODE     ---       #183
      00FF36AEH   LINE      CODE     ---       #184
      00FF36B2H   LINE      CODE     ---       #185
      00FF36B6H   LINE      CODE     ---       #186
      00FF36BAH   LINE      CODE     ---       #188
      ---         BLOCKEND  ---      ---       LVL=0

      00FF0046H   BLOCK     CODE     ---       LVL=0
      REG=7       REGSYM    ---      ---       pkey
      R11         REGSYM    ---      BYTE      pin
      00FF0046H   LINE      CODE     ---       #201
      00FF0048H   LINE      CODE     ---       #203
      00FF004BH   LINE      CODE     ---       #206
      00FF0053H   LINE      CODE     ---       #208
      00FF005BH   LINE      CODE     ---       #210
      00FF0069H   LINE      CODE     ---       #211
      00FF0076H   LINE      CODE     ---       #213
      00FF007CH   LINE      CODE     ---       #214
      00FF0082H   LINE      CODE     ---       #215
      00FF0082H   LINE      CODE     ---       #216
      00FF0085H   LINE      CODE     ---       #218
      00FF008DH   LINE      CODE     ---       #220
      00FF009BH   LINE      CODE     ---       #223
      00FF00A5H   LINE      CODE     ---       #225
      00FF00ABH   LINE      CODE     ---       #226
      00FF00B0H   LINE      CODE     ---       #227
      00FF00B6H   LINE      CODE     ---       #228
      00FF00B9H   LINE      CODE     ---       #230
      00FF00CFH   LINE      CODE     ---       #233
      00FF00D5H   LINE      CODE     ---       #234
      00FF00D5H   LINE      CODE     ---       #236
      00FF00D8H   LINE      CODE     ---       #241
      00FF00DFH   LINE      CODE     ---       #243
      00FF00EDH   LINE      CODE     ---       #244
      00FF00F7H   LINE      CODE     ---       #246
      00FF00FCH   LINE      CODE     ---       #247
      00FF0102H   LINE      CODE     ---       #250
      00FF010CH   LINE      CODE     ---       #253
      00FF0119H   LINE      CODE     ---       #255
      00FF0122H   LINE      CODE     ---       #258
      00FF0128H   LINE      CODE     ---       #259
      00FF012CH   LINE      CODE     ---       #260
      00FF012EH   LINE      CODE     ---       #261
      00FF0133H   LINE      CODE     ---       #264
      00FF0139H   LINE      CODE     ---       #265
      00FF013FH   LINE      CODE     ---       #266
      00FF0144H   LINE      CODE     ---       #267
      00FF0146H   LINE      CODE     ---       #272
      00FF014CH   LINE      CODE     ---       #273
      00FF0151H   LINE      CODE     ---       #274
      00FF0157H   LINE      CODE     ---       #275
      00FF0157H   LINE      CODE     ---       #276
      00FF0159H   LINE      CODE     ---       #280
      00FF015FH   LINE      CODE     ---       #281
L251 LINKER/LOCATER V4.66.93.0                                                        03/20/2026  12:58:05  PAGE 40


      00FF015FH   LINE      CODE     ---       #282
      00FF015FH   LINE      CODE     ---       #285
      00FF0169H   LINE      CODE     ---       #287
      00FF0174H   LINE      CODE     ---       #290
      00FF017CH   LINE      CODE     ---       #296
      00FF0181H   LINE      CODE     ---       #297
      00FF0181H   LINE      CODE     ---       #299
      ---         BLOCKEND  ---      ---       LVL=0

      00FF3D2FH   BLOCK     CODE     ---       LVL=0
      00FF3D2FH   LINE      CODE     ---       #304
      00FF3D2FH   LINE      CODE     ---       #306
      00FF3D3AH   LINE      CODE     ---       #307
      00FF3D45H   LINE      CODE     ---       #308
      ---         BLOCKEND  ---      ---       LVL=0

      00FF3D70H   BLOCK     CODE     ---       LVL=0
      R7          REGSYM    ---      BYTE      key_id
      00FF3D70H   LINE      CODE     ---       #314
      00FF3D72H   LINE      CODE     ---       #316
      00FF3D7EH   LINE      CODE     ---       #318
      00FF3D7EH   LINE      CODE     ---       #319
      00FF3D83H   LINE      CODE     ---       #320
      00FF3D83H   LINE      CODE     ---       #321
      00FF3D88H   LINE      CODE     ---       #322
      00FF3D88H   LINE      CODE     ---       #323
      00FF3D8DH   LINE      CODE     ---       #324
      00FF3D8DH   LINE      CODE     ---       #325
      00FF3D8EH   LINE      CODE     ---       #326
      00FF3D8EH   LINE      CODE     ---       #327
      ---         BLOCKEND  ---      ---       LVL=0

      00FF3D50H   BLOCK     CODE     ---       LVL=0
      R7          REGSYM    ---      BYTE      key_id
      00FF3D50H   LINE      CODE     ---       #332
      00FF3D52H   LINE      CODE     ---       #334
      00FF3D5EH   LINE      CODE     ---       #336
      00FF3D5EH   LINE      CODE     ---       #337
      00FF3D63H   LINE      CODE     ---       #338
      00FF3D64H   LINE      CODE     ---       #339
      00FF3D64H   LINE      CODE     ---       #340
      00FF3D69H   LINE      CODE     ---       #341
      00FF3D6AH   LINE      CODE     ---       #342
      00FF3D6AH   LINE      CODE     ---       #343
      00FF3D6FH   LINE      CODE     ---       #344
      00FF3D6FH   LINE      CODE     ---       #345
      00FF3D6FH   LINE      CODE     ---       #346
      ---         BLOCKEND  ---      ---       LVL=0

      00FF3AD0H   BLOCK     CODE     ---       LVL=0
      R7          REGSYM    ---      BYTE      key_id
      00FF3AD0H   LINE      CODE     ---       #351
      00FF3AD2H   LINE      CODE     ---       #353
      00FF3ADEH   LINE      CODE     ---       #355
      00FF3ADEH   LINE      CODE     ---       #356
      00FF3AEAH   LINE      CODE     ---       #357
      00FF3AEAH   LINE      CODE     ---       #358
      00FF3AF6H   LINE      CODE     ---       #359
      00FF3AF6H   LINE      CODE     ---       #360
      00FF3B02H   LINE      CODE     ---       #361
      00FF3B02H   LINE      CODE     ---       #362
      00FF3B03H   LINE      CODE     ---       #363
      00FF3B03H   LINE      CODE     ---       #364
      ---         BLOCKEND  ---      ---       LVL=0

L251 LINKER/LOCATER V4.66.93.0                                                        03/20/2026  12:58:05  PAGE 41


      00FF36C5H   BLOCK     CODE     ---       LVL=0
      WR6         REGSYM    ---      INT       step
      00FF36C7H   BLOCK     CODE     NEAR LAB  LVL=1
      WR14        REGSYM    ---      INT       sv
      ---         BLOCKEND  ---      ---       LVL=1
      00FF36C5H   LINE      CODE     ---       #369
      00FF36C7H   LINE      CODE     ---       #370
      00FF36C7H   LINE      CODE     ---       #372
      00FF36D1H   LINE      CODE     ---       #374
      00FF36D1H   LINE      CODE     ---       #375
      00FF36D7H   LINE      CODE     ---       #376
      00FF36E1H   LINE      CODE     ---       #377
      00FF36EBH   LINE      CODE     ---       #378
      00FF36EFH   LINE      CODE     ---       #379
      00FF36FBH   LINE      CODE     ---       #380
      00FF36FDH   LINE      CODE     ---       #382
      00FF36FDH   LINE      CODE     ---       #383
      00FF3703H   LINE      CODE     ---       #384
      00FF370DH   LINE      CODE     ---       #385
      00FF3717H   LINE      CODE     ---       #386
      00FF371BH   LINE      CODE     ---       #387
      00FF372AH   LINE      CODE     ---       #388
      00FF372AH   LINE      CODE     ---       #390
      00FF372AH   LINE      CODE     ---       #391
      00FF372AH   LINE      CODE     ---       #392
      00FF372AH   LINE      CODE     ---       #393
      ---         BLOCKEND  ---      ---       LVL=0

      00FF297FH   BLOCK     CODE     ---       LVL=0
      R11         REGSYM    ---      BYTE      event
      00FF297FH   LINE      CODE     ---       #404
      00FF297FH   LINE      CODE     ---       #405
      00FF297FH   LINE      CODE     ---       #409
      00FF2984H   LINE      CODE     ---       #410
      00FF2987H   LINE      CODE     ---       #412
      00FF299AH   LINE      CODE     ---       #413
      00FF299FH   LINE      CODE     ---       #414
      00FF29B4H   LINE      CODE     ---       #415
      00FF29B6H   LINE      CODE     ---       #416
      00FF29B9H   LINE      CODE     ---       #417
      00FF29B9H   LINE      CODE     ---       #418
      00FF29BEH   LINE      CODE     ---       #421
      00FF29C3H   LINE      CODE     ---       #422
      00FF29C6H   LINE      CODE     ---       #424
      00FF29E3H   LINE      CODE     ---       #425
      00FF29E8H   LINE      CODE     ---       #426
      00FF29EAH   LINE      CODE     ---       #427
      00FF29EDH   LINE      CODE     ---       #428
      00FF29EDH   LINE      CODE     ---       #429
      00FF29F0H   LINE      CODE     ---       #431
      00FF2A0DH   LINE      CODE     ---       #432
      00FF2A12H   LINE      CODE     ---       #433
      00FF2A14H   LINE      CODE     ---       #434
      00FF2A17H   LINE      CODE     ---       #435
      00FF2A17H   LINE      CODE     ---       #436
      00FF2A1AH   LINE      CODE     ---       #438
      00FF2A37H   LINE      CODE     ---       #439
      00FF2A39H   LINE      CODE     ---       #440
      00FF2A3CH   LINE      CODE     ---       #441
      00FF2A3CH   LINE      CODE     ---       #442
      00FF2A41H   LINE      CODE     ---       #445
      00FF2A46H   LINE      CODE     ---       #446
      00FF2A49H   LINE      CODE     ---       #448
      00FF2A6CH   LINE      CODE     ---       #449
      00FF2A71H   LINE      CODE     ---       #450
L251 LINKER/LOCATER V4.66.93.0                                                        03/20/2026  12:58:05  PAGE 42


      00FF2A73H   LINE      CODE     ---       #451
      00FF2A75H   LINE      CODE     ---       #452
      00FF2A75H   LINE      CODE     ---       #453
      00FF2A78H   LINE      CODE     ---       #455
      00FF2A9BH   LINE      CODE     ---       #456
      00FF2AA0H   LINE      CODE     ---       #457
      00FF2AA2H   LINE      CODE     ---       #458
      00FF2AA4H   LINE      CODE     ---       #459
      00FF2AA4H   LINE      CODE     ---       #460
      00FF2AA7H   LINE      CODE     ---       #462
      00FF2ACAH   LINE      CODE     ---       #463
      00FF2ACFH   LINE      CODE     ---       #464
      00FF2AD2H   LINE      CODE     ---       #465
      00FF2AD2H   LINE      CODE     ---       #466
      00FF2AD7H   LINE      CODE     ---       #468
      00FF2AD8H   LINE      CODE     ---       #469
      ---         BLOCKEND  ---      ---       LVL=0

      ---         MODULE    ---      ---       pid
      00FF2E63H   PUBLIC    CODE     ---       PID_Calc
      00FF3DE0H   PUBLIC    CODE     ---       PID_Reset
      00FF3B04H   PUBLIC    CODE     ---       PID_Init
      000000C5H   PUBLIC    EDATA    ---       ?PID_Init?BYTE

      00FF3B04H   BLOCK     CODE     ---       LVL=0
      REG=2       REGSYM    ---      ---       pid
      WR6         REGSYM    ---      INT       kp
      WR4         REGSYM    ---      INT       ki
      000000CDH   SYMBOL    EDATA    INT       kd
      000000CFH   SYMBOL    EDATA    LONG      out_max
      000000D3H   SYMBOL    EDATA    LONG      out_min
      000000D7H   SYMBOL    EDATA    INT       dead_band
      00FF3B04H   LINE      CODE     ---       #18
      00FF3B06H   LINE      CODE     ---       #23
      00FF3B09H   LINE      CODE     ---       #24
      00FF3B0DH   LINE      CODE     ---       #25
      00FF3B15H   LINE      CODE     ---       #26
      00FF3B21H   LINE      CODE     ---       #27
      00FF3B2DH   LINE      CODE     ---       #28
      00FF3B35H   LINE      CODE     ---       #29
      ---         BLOCKEND  ---      ---       LVL=0

      00FF3DE0H   BLOCK     CODE     ---       LVL=0
      REG=2       REGSYM    ---      ---       pid
      00FF3DE0H   LINE      CODE     ---       #35
      00FF3DE2H   LINE      CODE     ---       #37
      00FF3DE8H   LINE      CODE     ---       #38
      00FF3DF2H   LINE      CODE     ---       #39
      00FF3DFAH   LINE      CODE     ---       #40
      ---         BLOCKEND  ---      ---       LVL=0

      00FF2E63H   BLOCK     CODE     ---       LVL=0
      REG=6       REGSYM    ---      ---       pid
      WR6         REGSYM    ---      INT       setpoint
      WR4         REGSYM    ---      INT       feedback
      00FF2E65H   BLOCK     CODE     NEAR LAB  LVL=1
      WR22        REGSYM    ---      INT       err
      WR8         REGSYM    ---      INT       derivative
      DR4         REGSYM    ---      LONG      output
      00FF2EA3H   BLOCK     CODE     NEAR LAB  LVL=2
      DR4         REGSYM    ---      LONG      ilimit
      ---         BLOCKEND  ---      ---       LVL=2
      ---         BLOCKEND  ---      ---       LVL=1
      00FF2E63H   LINE      CODE     ---       #59
      00FF2E65H   LINE      CODE     ---       #60
L251 LINKER/LOCATER V4.66.93.0                                                        03/20/2026  12:58:05  PAGE 43


      00FF2E65H   LINE      CODE     ---       #66
      00FF2E69H   LINE      CODE     ---       #69
      00FF2E7BH   LINE      CODE     ---       #70
      00FF2E7DH   LINE      CODE     ---       #73
      00FF2E99H   LINE      CODE     ---       #76
      00FF2EA3H   LINE      CODE     ---       #77
      00FF2EA3H   LINE      CODE     ---       #78
      00FF2EBBH   LINE      CODE     ---       #79
      00FF2ECFH   LINE      CODE     ---       #80
      00FF2EEDH   LINE      CODE     ---       #81
      00FF2EEDH   LINE      CODE     ---       #84
      00FF2EF5H   LINE      CODE     ---       #85
      00FF2EF9H   LINE      CODE     ---       #90
      00FF2F3AH   LINE      CODE     ---       #94
      00FF2F48H   LINE      CODE     ---       #95
      00FF2F56H   LINE      CODE     ---       #97
      00FF2F5EH   LINE      CODE     ---       #98
      00FF2F5EH   LINE      CODE     ---       #99
      ---         BLOCKEND  ---      ---       LVL=0

      ---         MODULE    ---      ---       SPRINTF
      00000106H   PUBLIC    EDATA    ---       ?SPRINTF?BYTE
      00FF1A36H   PUBLIC    CODE     NEAR LAB  SPRINTF

      ---         MODULE    ---      ---       VSPRINTF
      00000155H   PUBLIC    EDATA    ---       ?VSPRINTF?BYTE
      00FF1A56H   PUBLIC    CODE     NEAR LAB  VSPRINTF

      ---         MODULE    ---      ---       ?C?PRNFMT
      00FF1A9FH   PUBLIC    CODE     ---       ?C?PRNFMT

      ---         MODULE    ---      ---       ?C?FPCONVERT
      00FF1EBCH   PUBLIC    CODE     ---       ?C?FPCONVERT
      00FF1F74H   PUBLIC    CODE     ---       ?C?FPROUND

      ---         MODULE    ---      ---       ?C?FPMUL
      00FF1FB7H   PUBLIC    CODE     ---       ?C?FPMUL

      ---         MODULE    ---      ---       ?C?FPDIV
      00FF2057H   PUBLIC    CODE     ---       ?C?FPDIV

      ---         MODULE    ---      ---       ?C?FTNPWR
      00FF2108H   PUBLIC    CODE     ---       ?C?FTNPWR

      ---         MODULE    ---      ---       ?C?FPGETOPN
      00FF213FH   PUBLIC    CODE     ---       ?C?FPGETOPN2
      00FF217CH   PUBLIC    CODE     ---       ?C?FPNANRESULT
      00FF2184H   PUBLIC    CODE     ---       ?C?FPOVERFLOW
      00FF2158H   PUBLIC    CODE     ---       ?C?FPRESULT
      00FF216EH   PUBLIC    CODE     ---       ?C?FPRESULT2
      00FF2181H   PUBLIC    CODE     ---       ?C?FPUNDERFLOW

      ---         MODULE    ---      ---       ?C_START
      00FF0000H   PUBLIC    CODE     ---       ?C?STARTUP
      00FF0000H   PUBLIC    CODE     ---       ?C_STARTUP

      ---         MODULE    ---      ---       ?C?INITEDATA
      00FF3934H   PUBLIC    CODE     ---       ?C?INITEDATA

      ---         MODULE    ---      ---       ?C?SIDIV
      00FF2190H   PUBLIC    CODE     ---       ?C?SIDIV

      ---         MODULE    ---      ---       ?C?LMUL
      00FF21C2H   PUBLIC    CODE     ---       ?C?LMUL

L251 LINKER/LOCATER V4.66.93.0                                                        03/20/2026  12:58:05  PAGE 44


      ---         MODULE    ---      ---       ?C?LIMUL
      00FF21D3H   PUBLIC    CODE     ---       ?C?LIMUL

      ---         MODULE    ---      ---       ?C?SLDIV
      00FF21DCH   PUBLIC    CODE     NEAR LAB  ?C?SLDIV

      ---         MODULE    ---      ---       STRLEN
      00FF3EF8H   PUBLIC    CODE     ---       strlen?_

      ---         MODULE    ---      ---       memset
      00FF3DFBH   PUBLIC    CODE     ---       memset?_

      ---         MODULE    ---      ---       ?C?INITEDATA_END
      00FF41D9H   PUBLIC    HCONST   WORD      ?C?INITEDATA_END

      ---         MODULE    ---      ---       ?C?ULDIV
      00FF2212H   PUBLIC    CODE     NEAR LAB  ?C?ULDIV
      00FF2210H   PUBLIC    CODE     NEAR LAB  ?C?ULIDIV



*** WARNING L57: UNCALLED FUNCTION, IGNORED FOR OVERLAY PROCESS
    NAME:    OLED_BuffShowCircle/oled

*** WARNING L57: UNCALLED FUNCTION, IGNORED FOR OVERLAY PROCESS
    NAME:    OLED_BuffShowNum02F/oled

*** WARNING L57: UNCALLED FUNCTION, IGNORED FOR OVERLAY PROCESS
    NAME:    OLED_BuffShowBMP/oled

*** WARNING L57: UNCALLED FUNCTION, IGNORED FOR OVERLAY PROCESS
    NAME:    OLED_BuffShowChar32/oled

*** WARNING L57: UNCALLED FUNCTION, IGNORED FOR OVERLAY PROCESS
    NAME:    OLED_BuffShowRectangle/oled

*** WARNING L57: UNCALLED FUNCTION, IGNORED FOR OVERLAY PROCESS
    NAME:    OLED_BuffShowNum/oled

*** WARNING L57: UNCALLED FUNCTION, IGNORED FOR OVERLAY PROCESS
    NAME:    OLED_DrawBMP/oled

*** WARNING L57: UNCALLED FUNCTION, IGNORED FOR OVERLAY PROCESS
    NAME:    OLED_DisplayOff/oled

*** WARNING L57: UNCALLED FUNCTION, IGNORED FOR OVERLAY PROCESS
    NAME:    UART2_SendString/uart

*** WARNING L57: UNCALLED FUNCTION, IGNORED FOR OVERLAY PROCESS
    NAME:    UART2_ReadByte/uart

*** WARNING L57: UNCALLED FUNCTION, IGNORED FOR OVERLAY PROCESS
    NAME:    Key_IsPressed/key

*** WARNING L57: UNCALLED FUNCTION, IGNORED FOR OVERLAY PROCESS
    NAME:    Buzzer_IsBusy/key

Program Size: data=8.4 edata+hdata=863 xdata=1047 const=716 code=16149
L251 RUN COMPLETE.  12 WARNING(S),  0 ERROR(S)
