L251 LINKER/LOCATER V4.66.93.0                                                          03/15/2026  14:26:01  PAGE 1


L251 LINKER/LOCATER V4.66.93.0, INVOKED BY:
D:\KEIL MDK\C251\BIN\L251.EXE .\Objects\main.obj, .\Objects\oled.obj, .\Objects\spi.obj, .\Objects\uart.obj, .\Objects\t
>> imer.obj, .\Objects\rs485.obj, .\Objects\isr.obj, .\Objects\key.obj TO .\Objects\STC32G_Test_06_SPIĶØŠÅOLEDĘĮ PRINT (
>> .\Listings\STC32G_Test_06_SPIĶØŠÅOLEDĘĮ.map) CASE CLASSES (EDATA (0X0-0XFFF), HDATA (0X0-0XFFF))


CPU MODE:     251 SOURCE MODE
INTR FRAME:   2 BYTES SAVED ON INTERRUPT
MEMORY MODEL: XSMALL WITH FLOATING POINT ARITHMETIC


INPUT MODULES INCLUDED:
  .\Objects\main.obj (main)
         COMMENT TYPE 0: C251 V5.60.0
  .\Objects\oled.obj (oled)
         COMMENT TYPE 0: C251 V5.60.0
  .\Objects\spi.obj (spi)
         COMMENT TYPE 0: C251 V5.60.0
  .\Objects\uart.obj (uart)
         COMMENT TYPE 0: C251 V5.60.0
  .\Objects\timer.obj (timer)
         COMMENT TYPE 0: C251 V5.60.0
  .\Objects\rs485.obj (rs485)
         COMMENT TYPE 0: C251 V5.60.0
  .\Objects\isr.obj (isr)
         COMMENT TYPE 0: A251 V4.69.13.0
  .\Objects\key.obj (key)
         COMMENT TYPE 0: C251 V5.60.0
  D:\KEIL MDK\C251\LIB\C2SFPXS.LIB (SPRINTF)
         COMMENT TYPE 0: A251 V4.69.6.0
  D:\KEIL MDK\C251\LIB\C2SFPXS.LIB (VSPRINTF)
         COMMENT TYPE 0: A251 V4.69.6.0
  D:\KEIL MDK\C251\LIB\C2SFPXS.LIB (?C?PRNFMT)
         COMMENT TYPE 0: A251 V4.69.6.0
  D:\KEIL MDK\C251\LIB\C2SFPXS.LIB (?C?FPCONVERT)
         COMMENT TYPE 0: A251 V4.69.6.0
  D:\KEIL MDK\C251\LIB\C2SFPXS.LIB (?C?FPMUL)
         COMMENT TYPE 0: A251 V4.69.6.0
  D:\KEIL MDK\C251\LIB\C2SFPXS.LIB (?C?FPDIV)
         COMMENT TYPE 0: A251 V4.69.6.0
  D:\KEIL MDK\C251\LIB\C2SFPXS.LIB (?C?FTNPWR)
         COMMENT TYPE 0: A251 V4.69.6.0
  D:\KEIL MDK\C251\LIB\C2SFPXS.LIB (?C?FPGETOPN)
         COMMENT TYPE 0: A251 V4.69.6.0
  D:\KEIL MDK\C251\LIB\C2SXS.LIB (?C_START)
         COMMENT TYPE 0: A251 V4.69.6.0
  D:\KEIL MDK\C251\LIB\C2SXS.LIB (?C?INITEDATA)
         COMMENT TYPE 0: A251 V4.69.6.0
  D:\KEIL MDK\C251\LIB\C2SXS.LIB (?C?SIDIV)
         COMMENT TYPE 0: A251 V4.69.6.0
  D:\KEIL MDK\C251\LIB\C2SXS.LIB (?C?LIMUL)
         COMMENT TYPE 0: A251 V4.69.6.0
  D:\KEIL MDK\C251\LIB\C2SXS.LIB (?C?ULDIV)
         COMMENT TYPE 0: A251 V4.69.6.0
  D:\KEIL MDK\C251\LIB\C2SXS.LIB (?C?SLDIV)
         COMMENT TYPE 0: A251 V4.69.6.0
  D:\KEIL MDK\C251\LIB\C2SXS.LIB (STRLEN)
         COMMENT TYPE 0: C251 V5.58.7
  D:\KEIL MDK\C251\LIB\C2SXS.LIB (memset)
         COMMENT TYPE 0: C251 V5.58.7
  D:\KEIL MDK\C251\LIB\C2SXS.LIB (?C?INITEDATA_END)
         COMMENT TYPE 0: A251 V4.69.6.0


ACTIVE MEMORY CLASSES OF MODULE:  .\Objects\STC32G_Test_06_SPIĶØŠÅOLEDĘĮ (main)

L251 LINKER/LOCATER V4.66.93.0                                                        03/15/2026  14:26:01  PAGE 2


BASE        START       END         USED      MEMORY CLASS
==========================================================
000000H     000000H     000FFFH     0003AAH   EDATA
000000H     000000H     000FFFH               HDATA
000000H     FF0000H     FFFFFFH     0001BDH   HCONST
FF0000H     FF0000H     FFFFFFH     0037DFH   CODE
000020H.0   000020H.0   00002FH.7   000000H.3 BIT
010000H     010000H     01FFFFH     000417H   XDATA
FF0000H     FF0000H     FFFFFFH     000004H   CONST
000000H     000000H     00007FH     000008H   DATA


MEMORY MAP OF MODULE:  .\Objects\STC32G_Test_06_SPIĶØŠÅOLEDĘĮ (main)


START     STOP      LENGTH    ALIGN  RELOC    MEMORY CLASS   SEGMENT NAME
=========================================================================
000000H   000007H   000008H   ---    AT..     DATA           "REG BANK 0"
000008H   00001EH   000017H   BYTE   UNIT     EDATA          ?ED?MAIN
00001FH.0 00001FH.7 000001H.0 ---    ---      **GAP**
000020H.0 000020H.1 000000H.2 BIT    UNIT     BIT            ?BI?MAIN
000020H.2 000020H.2 000000H.1 BIT    UNIT     BIT            ?BI?UART
000020H.3 000020H   000000H.5 ---    ---      **GAP**
000021H   000148H   000128H   BYTE   UNIT     EDATA          _EDATA_GROUP_
000149H   0001EEH   0000A6H   BYTE   UNIT     EDATA          ?ED?RS485
0001EFH   000272H   000084H   BYTE   UNIT     EDATA          ?ED?UART
000273H   00029CH   00002AH   BYTE   UNIT     EDATA          ?ED?KEY
00029DH   0002A8H   00000CH   BYTE   UNIT     EDATA          ?ED?OLED_BUFFSHOWCIRCLE?OLED
0002A9H   0002ADH   000005H   BYTE   UNIT     EDATA          ?ED?OLED_DRAWBMP?OLED
0002AEH   0002B1H   000004H   BYTE   UNIT     EDATA          ?ED?OLED_BUFFSHOWNUM02F?OLED
0002B2H   0002B3H   000002H   BYTE   UNIT     EDATA          ?ED?OLED_BUFFSHOWLINE?OLED
0002B4H   0003B3H   000100H   BYTE   UNIT     EDATA          ?STACK
0003B4H   00FFFFH   00FC4CH   ---    ---      **GAP**
010000H   0103FFH   000400H   BYTE   INSEG    XDATA          ?XD?OLED
010400H   010409H   00000AH   BYTE   UNIT     XDATA          ?XD?OLED_BUFFSHOWNUM02F?OLED
01040AH   010413H   00000AH   BYTE   UNIT     XDATA          _XDATA_GROUP_
010414H   010416H   000003H   BYTE   UNIT     XDATA          ?XD?OLED_DRAWBMP?OLED
010417H   FEFFFFH   FDFBE9H   ---    ---      **GAP**
FF0000H   FF0002H   000003H   ---    OFFS..   CODE           ?CO?start251?4
FF0003H   FF0003H   000001H   BYTE   INSEG    CODE           ?PR?SPI_DMA_WAIT?SPI
FF0004H   FF0007H   000004H   BYTE   UNIT     CONST          ?CO?PRINTF
FF0008H   FF000AH   000003H   ---    ---      **GAP**
FF000BH   FF000DH   000003H   ---    OFFS..   CODE           ?PR?IV?1
FF000EH   FF0022H   000015H   BYTE   INSEG    CODE           ?PR?UART1_ISR?MAIN
FF0023H   FF0025H   000003H   ---    OFFS..   CODE           ?PR?IV?4
FF0026H   FF0042H   00001DH   BYTE   INSEG    CODE           ?PR?OLED_WR_BYTE?OLED
FF0043H   FF0045H   000003H   ---    OFFS..   CODE           ?PR?IV?8
FF0046H   FF014CH   000107H   BYTE   INSEG    CODE           ?PR?_M?MAIN
FF014DH   FF0186H   00003AH   BYTE   INSEG    CODE           ?PR?CRC16?RS485
FF0187H   FF018AH   000004H   ---    ---      **GAP**
FF018BH   FF018DH   000003H   ---    OFFS..   CODE           ?CO?isr?1
FF018EH   FF0E35H   000CA8H   BYTE   UNIT     CODE           ?CO?OLED
FF0E36H   FF1A35H   000C00H   BYTE   UNIT     CODE           ?CO?MAIN
FF1A36H   FF2251H   00081CH   BYTE   UNIT     CODE           ?C?LIB_CODE
FF2252H   FF24F1H   0002A0H   BYTE   INSEG    CODE           ?PR?PROCESSFRAME?RS485
FF24F2H   FF264CH   00015BH   BYTE   INSEG    CODE           ?PR?KEY_SCANSINGLE?KEY
FF264DH   FF27A4H   000158H   BYTE   INSEG    CODE           ?PR?KEY_HANDLEEVENT?KEY
FF27A5H   FF28A7H   000103H   BYTE   INSEG    CODE           ?PR?OLED_BUFFSHOWCIRCLE?OLED
FF28A8H   FF2989H   0000E2H   BYTE   INSEG    CODE           ?PR?OLED_INIT?OLED
FF298AH   FF2A5EH   0000D5H   BYTE   INSEG    CODE           ?PR?MOTOR_CONTROLUPDATE?MAIN
FF2A5FH   FF2B27H   0000C9H   BYTE   INSEG    CODE           ?PR?TIMER0_ISR?MAIN
FF2B28H   FF2BEAH   0000C3H   BYTE   INSEG    CODE           ?PR?OLED_BUFFSHOWLINE?OLED
FF2BEBH   FF2CA8H   0000BEH   BYTE   INSEG    CODE           ?PR?OLED_BUFFSHOWGBK?OLED
FF2CA9H   FF2D49H   0000A1H   BYTE   INSEG    CODE           ?PR?PWM_INIT?TIMER
FF2D4AH   FF2DD4H   00008BH   BYTE   INSEG    CODE           ?PR?OLED_BUFFSHOWCHAR?OLED
L251 LINKER/LOCATER V4.66.93.0                                                        03/15/2026  14:26:01  PAGE 3


FF2DD5H   FF2E5CH   000088H   BYTE   INSEG    CODE           ?PR?OLED_BUFFSHOWSTRING?OLED
FF2E5DH   FF2EE3H   000087H   BYTE   INSEG    CODE           ?PR?PWMB_ENCODER_INIT?TIMER
FF2EE4H   FF2F67H   000084H   BYTE   INSEG    CODE           ?PR?OLED_DRAWBMP?OLED
FF2F68H   FF2FE8H   000081H   BYTE   INSEG    CODE           ?PR?OLED_BUFFSHOWCHAR32?OLED
FF2FE9H   FF305EH   000076H   BYTE   INSEG    CODE           ?PR?KEY_INIT?KEY
FF305FH   FF30CEH   000070H   BYTE   INSEG    CODE           ?PR?MODBUS_SYNCREGS?MAIN
FF30CFH   FF3133H   000065H   BYTE   INSEG    CODE           ?PR?UART2_ISR?MAIN
FF3134H   FF318AH   000057H   BYTE   INSEG    CODE           ?PR?OLED_BUFFSHOWBMP?OLED
FF318BH   FF31D9H   00004FH   BYTE   INSEG    CODE           ?PR?OLED_BUFFSHOWNUM02F?OLED
FF31DAH   FF3228H   00004FH   BYTE   INSEG    CODE           ?PR?OLED_BUFFSHOWNUM?OLED
FF3229H   FF3273H   00004BH   BYTE   INSEG    CODE           ?PR?OLED_BUFFSHOW?OLED
FF3274H   FF32BCH   000049H   BYTE   INSEG    CODE           ?PR?OLED_BUFFSHOWPOINT?OLED
FF32BDH   FF3300H   000044H   BYTE   INSEG    CODE           ?PR?UART2_SENDBYTE?UART
FF3301H   FF3344H   000044H   BYTE   INSEG    CODE           ?PR?MODBUS_RXBYTE?RS485
FF3345H   FF3357H   000013H   BYTE   UNIT     CODE           ?C_C51STARTUP
FF3358H   FF335BH   000004H   BYTE   UNIT     CODE           ?C_C51STARTUP?1
FF335CH   FF3384H   000029H   BYTE   UNIT     CODE           ?C_C51STARTUP?2
FF3385H   FF3387H   000003H   BYTE   UNIT     CODE           ?C_C51STARTUP?3
FF3388H   FF33C7H   000040H   BYTE   INSEG    CODE           ?PR?SYS_INIT?MAIN
FF33C8H   FF3406H   00003FH   BYTE   INSEG    CODE           ?PR?ENCODER_READ?TIMER
FF3407H   FF343DH   000037H   BYTE   INSEG    CODE           ?PR?SENDRESPONSE?RS485
FF343EH   FF3471H   000034H   BYTE   INSEG    CODE           ?PR?KEY_ISPRESSED?KEY
FF3472H   FF34A4H   000033H   BYTE   INSEG    CODE           ?PR?OLED_BUFFSHOWRECTANGLE?OLED
FF34A5H   FF34D6H   000032H   BYTE   INSEG    CODE           ?PR?CLK_INIT?MAIN
FF34D7H   FF3507H   000031H   BYTE   INSEG    CODE           ?PR?MODBUS_TIMERTICK?RS485
FF3508H   FF3534H   00002DH   BYTE   INSEG    CODE           ?PR?SPI_INIT?SPI
FF3535H   FF355EH   00002AH   BYTE   INSEG    CODE           ?PR?UART2_READBYTE?UART
FF355FH   FF3588H   00002AH   BYTE   INSEG    CODE           ?PR?UART2_INIT?UART
FF3589H   FF35B1H   000029H   BYTE   INSEG    CODE           ?PR?OLED_SET_POS?OLED
FF35B2H   FF35D6H   000025H   BYTE   INSEG    CODE           ?PR?UART1_INIT?UART
FF35D7H   FF35FBH   000025H   BYTE   INSEG    CODE           ?PR?PWM_SETDUTY?TIMER
FF35FCH   FF361EH   000023H   BYTE   INSEG    CODE           ?PR?SPI_TRANSMIT?SPI
FF361FH   FF3640H   000022H   BYTE   INSEG    CODE           ?PR?PRINTF?UART
FF3641H   FF3661H   000021H   BYTE   INSEG    CODE           ?PR?KEY_SCAN?KEY
FF3662H   FF3681H   000020H   BYTE   INSEG    CODE           ?PR?KEY_CLEAREVENT?KEY
FF3682H   FF36A0H   00001FH   BYTE   INSEG    CODE           ?PR?KEY_GETEVENT?KEY
FF36A1H   FF36BBH   00001BH   BYTE   INSEG    CODE           ?PR?MAIN?MAIN
FF36BCH   FF36D6H   00001BH   BYTE   INSEG    CODE           ?PR?OLED_BUFFCLEAR?OLED
FF36D7H   FF36F1H   00001BH   BYTE   INSEG    CODE           ?PR?SENDEXCEPTION?RS485
FF36F2H   FF370BH   00001AH   BYTE   INSEG    CODE           ?PR?MEMSET?_?MEMSET
FF370CH   FF3722H   000017H   BYTE   INSEG    CODE           ?PR?DELAY_MS?OLED
FF3723H   FF3738H   000016H   BYTE   INSEG    CODE           ?PR?UART1_SENDSTR?UART
FF3739H   FF374EH   000016H   BYTE   INSEG    CODE           ?PR?UART2_SENDSTRING?UART
FF374FH   FF3763H   000015H   BYTE   INSEG    CODE           ?PR?OLED_DISPLAYON?OLED
FF3764H   FF3778H   000015H   BYTE   INSEG    CODE           ?PR?OLED_DISPLAYOFF?OLED
FF3779H   FF378DH   000015H   BYTE   INSEG    CODE           ?PR?TIMER0_INIT?TIMER
FF378EH   FF37A1H   000014H   BYTE   INSEG    CODE           ?PR?SPI_WRITEBYTE?SPI
FF37A2H   FF37B5H   000014H   BYTE   INSEG    CODE           ?PR?MODBUS_POLL?RS485
FF37B6H   FF37C7H   000012H   BYTE   INSEG    CODE           ?PR?MODBUS_INIT?RS485
FF37C8H   FF37D5H   00000EH   BYTE   INSEG    CODE           ?PR?STRLEN?_?STRLEN
FF37D6H   FF37E0H   00000BH   BYTE   INSEG    CODE           ?PR?DELAY?OLED
FF37E1H   FF37E9H   000009H   BYTE   INSEG    CODE           ?PR?UART1_SENDBYTE?UART
FF37EAH   FF38CBH   0000E2H   BYTE   UNIT     HCONST         ?HC?KEY
FF38CCH   FF3951H   000086H   BYTE   UNIT     HCONST         ?C_INITEDATA
FF3952H   FF398CH   00003BH   BYTE   UNIT     HCONST         ?HC?MAIN
FF398DH   FF399DH   000011H   BYTE   UNIT     HCONST         ?HC?RS485
FF399EH   FF39A6H   000009H   BYTE   UNIT     HCONST         ?HC?OLED



OVERLAY MAP OF MODULE:   .\Objects\STC32G_Test_06_SPIĶØŠÅOLEDĘĮ (main)


FUNCTION/MODULE                  EDATA_GROUP  XDATA_GROUP
--> CALLED FUNCTION/MODULE       START  STOP  START  STOP
L251 LINKER/LOCATER V4.66.93.0                                                        03/15/2026  14:26:01  PAGE 4


=========================================================
Timer0_ISR/main                  ----- -----  ----- -----
  +--> Modbus_TimerTick/rs485
  +--> Key_Scan/key
  +--> Encoder_Read/timer
  +--> ?C?SLDIV/?C?SLDIV

Modbus_TimerTick/rs485           ----- -----  ----- -----

Key_Scan/key                     ----- -----  ----- -----
  +--> Key_ScanSingle/key

Key_ScanSingle/key               ----- -----  ----- -----

Encoder_Read/timer               ----- -----  ----- -----

?C?SLDIV/?C?SLDIV                ----- -----  ----- -----
  +--> ?C?ULIDIV/?C?ULDIV

?C?ULIDIV/?C?ULDIV               ----- -----  ----- -----

*** NEW ROOT *******************

UART1_ISR/main                   ----- -----  ----- -----

*** NEW ROOT *******************

UART2_ISR/main                   ----- -----  ----- -----
  +--> Modbus_RxByte/rs485

Modbus_RxByte/rs485              ----- -----  ----- -----
  +--> Printf/uart

Printf/uart                      00B5H 0144H  ----- -----
  +--> VSPRINTF/VSPRINTF
  +--> UART1_SendStr/uart

VSPRINTF/VSPRINTF                0145H 0148H  ----- -----
  +--> OUT/VSPRINTF

OUT/VSPRINTF                     ----- -----  ----- -----
  +--> PUTCH/VSPRINTF

PUTCH/VSPRINTF                   ----- -----  ----- -----

UART1_SendStr/uart               ----- -----  ----- -----
  +--> UART1_SendByte/uart

UART1_SendByte/uart              ----- -----  ----- -----

*** NEW ROOT *******************

?C_C51STARTUP?1                  ----- -----  ----- -----

*** NEW ROOT *******************

?C_C51STARTUP                    ----- -----  ----- -----

*** NEW ROOT *******************

?C_C51STARTUP?3                  ----- -----  ----- -----
  +--> main/main

main/main                        ----- -----  ----- -----
  +--> _m/main
L251 LINKER/LOCATER V4.66.93.0                                                        03/15/2026  14:26:01  PAGE 5


  +--> SPRINTF/SPRINTF
  +--> strlen?_/STRLEN

_m/main                          ----- -----  ----- -----
  +--> Sys_init/main
  +--> CLK_Init/main
  +--> SPI_Init/spi
  +--> UART1_Init/uart
  +--> UART2_Init/uart
  +--> Timer0_Init/timer
  +--> PWM_Init/timer
  +--> PWMB_Encoder_Init/timer
  +--> Modbus_Init/rs485
  +--> PWM_SetDuty/timer
  +--> OLED_Init/oled
  +--> OLED_BuffClear/oled
  +--> OLED_BuffShow/oled
  +--> OLED_BuffShowString/oled
  +--> Modbus_SyncRegs/main
  +--> Modbus_Poll/rs485
  +--> Motor_ControlUpdate/main
  +--> Key_HandleEvent/key
  +--> OLED_BuffShowNum/oled
  +--> Printf/uart

Sys_init/main                    ----- -----  ----- -----

CLK_Init/main                    ----- -----  ----- -----

SPI_Init/spi                     ----- -----  ----- -----

UART1_Init/uart                  ----- -----  ----- -----

UART2_Init/uart                  ----- -----  ----- -----

Timer0_Init/timer                ----- -----  ----- -----

PWM_Init/timer                   ----- -----  ----- -----

PWMB_Encoder_Init/timer          ----- -----  ----- -----

Modbus_Init/rs485                ----- -----  ----- -----

PWM_SetDuty/timer                ----- -----  ----- -----

OLED_Init/oled                   ----- -----  ----- -----
  +--> SPI_Init/spi
  +--> delay_ms/oled
  +--> OLED_WR_Byte/oled
  +--> OLED_DisplayOn/oled

delay_ms/oled                    ----- -----  ----- -----

OLED_WR_Byte/oled                ----- -----  ----- -----
  +--> SPI_WriteByte/spi
  +--> delay/oled

SPI_WriteByte/spi                ----- -----  ----- -----

delay/oled                       ----- -----  ----- -----

OLED_DisplayOn/oled              ----- -----  ----- -----
  +--> OLED_WR_Byte/oled

OLED_BuffClear/oled              ----- -----  ----- -----
L251 LINKER/LOCATER V4.66.93.0                                                        03/15/2026  14:26:01  PAGE 6



OLED_BuffShow/oled               ----- -----  ----- -----
  +--> SPI_WriteByte/spi
  +--> SPI_Transmit/spi
  +--> SPI_DMA_Wait/spi

SPI_Transmit/spi                 ----- -----  ----- -----

SPI_DMA_Wait/spi                 ----- -----  ----- -----

OLED_BuffShowString/oled         00B9H 00BDH  ----- -----
  +--> OLED_BuffShowChar/oled
  +--> OLED_BuffShowGBK/oled

OLED_BuffShowChar/oled           ----- -----  ----- -----

OLED_BuffShowGBK/oled            ----- -----  ----- -----

Modbus_SyncRegs/main             ----- -----  ----- -----

Modbus_Poll/rs485                ----- -----  ----- -----
  +--> ProcessFrame/rs485

ProcessFrame/rs485               00B5H 00B6H  ----- -----
  +--> CRC16/rs485
  +--> SendResponse/rs485
  +--> SendException/rs485

CRC16/rs485                      ----- -----  ----- -----

SendResponse/rs485               ----- -----  ----- -----
  +--> CRC16/rs485
  +--> UART2_SendByte/uart

UART2_SendByte/uart              ----- -----  ----- -----

SendException/rs485              ----- -----  ----- -----
  +--> SendResponse/rs485

Motor_ControlUpdate/main         ----- -----  ----- -----
  +--> PWM_SetDuty/timer
  +--> ?C?ULIDIV/?C?ULDIV

Key_HandleEvent/key              ----- -----  ----- -----
  +--> Key_GetEvent/key
  +--> Printf/uart
  +--> Key_ClearEvent/key

Key_GetEvent/key                 ----- -----  ----- -----

Key_ClearEvent/key               ----- -----  ----- -----

OLED_BuffShowNum/oled            00B5H 00B8H  040AH 0413H
  +--> memset?_/memset
  +--> SPRINTF/SPRINTF
  +--> OLED_BuffShowString/oled

memset?_/memset                  ----- -----  ----- -----

SPRINTF/SPRINTF                  00B9H 00E0H  ----- -----
  +--> OUT/SPRINTF

OUT/SPRINTF                      ----- -----  ----- -----
  +--> PUTCH/SPRINTF

L251 LINKER/LOCATER V4.66.93.0                                                        03/15/2026  14:26:01  PAGE 7


PUTCH/SPRINTF                    ----- -----  ----- -----

strlen?_/STRLEN                  ----- -----  ----- -----

*** NEW ROOT *******************

?C_C51STARTUP?2                  ----- -----  ----- -----



PUBLIC SYMBOLS OF MODULE:  .\Objects\STC32G_Test_06_SPIĶØŠÅOLEDĘĮ (main)


      VALUE       CLASS    TYPE      PUBLIC SYMBOL NAME
      =================================================
      000000FFH   NUMBER   ---       ?C?CODESEG
      00FF1EBCH   CODE     ---       ?C?FPCONVERT
      00FF2057H   CODE     ---       ?C?FPDIV
      00FF213FH   CODE     ---       ?C?FPGETOPN2
      00FF1FB7H   CODE     ---       ?C?FPMUL
      00FF217CH   CODE     ---       ?C?FPNANRESULT
      00FF2184H   CODE     ---       ?C?FPOVERFLOW
      00FF2158H   CODE     ---       ?C?FPRESULT
      00FF216EH   CODE     ---       ?C?FPRESULT2
      00FF1F74H   CODE     ---       ?C?FPROUND
      00FF2181H   CODE     ---       ?C?FPUNDERFLOW
      00FF2108H   CODE     ---       ?C?FTNPWR
      00FF335CH   CODE     ---       ?C?INITEDATA
      00FF3950H   HCONST   WORD      ?C?INITEDATA_END
      00FF21C2H   CODE     ---       ?C?LIMUL
      00FF1A9FH   CODE     ---       ?C?PRNFMT
      00FF2190H   CODE     ---       ?C?SIDIV
      00FF221EH   CODE     NEAR LAB  ?C?SLDIV
      00FF0000H   CODE     ---       ?C?STARTUP
      00FF21CDH   CODE     NEAR LAB  ?C?ULDIV
      00FF21CBH   CODE     NEAR LAB  ?C?ULIDIV
      00000001H   NUMBER   ---       ?C?XDATASEG
      00FF0000H   CODE     ---       ?C_STARTUP
      000000DDH   EDATA    BYTE      ?Printf?BYTE
      000000E1H   EDATA    ---       ?sprintf?BYTE
      0000013DH   EDATA    ---       ?vsprintf?BYTE
      00FF0046H   CODE     ---       _m
*SFR* 000000E0H   DATA     BYTE      ACC
*SFR* 000000BCH   DATA     BYTE      ADC_CONTR
*SFR* 000000DEH   DATA     BYTE      ADCCFG
      00FF048EH   CODE     ---       Ascll_16
*SFR* 000000EFH   DATA     BYTE      AUXINTIF
*SFR* 0000008EH   DATA     BYTE      AUXR
*SFR* 00000097H   DATA     BYTE      AUXR2
*SFR* 000000F0H   DATA     BYTE      B
      00000020H.1 BIT      BIT       B_Change
*SFR* 000000F1H   DATA     BYTE      CANICR
*SFR* 000000EAH   DATA     BYTE      CKCON
      00FF34A5H   CODE     ---       CLK_Init
*SFR* 000000E6H   DATA     BYTE      CMPCR1
*SFR* 000000E7H   DATA     BYTE      CMPCR2
*SFR* 000000CEH.2 DATA     BIT       CPHA
*SFR* 000000CEH.3 DATA     BIT       CPOL
      00FF370CH   CODE     ---       delay_ms
      00000020H.0 BIT      BIT       disp_flag
*SFR* 000000CEH.5 DATA     BIT       DORD
*SFR* 000000A8H.7 DATA     BIT       EA
*SFR* 000000BAH.7 DATA     BIT       EAXFR
      00FF33C8H   CODE     ---       Encoder_Read
*SFR* 000000A8H.4 DATA     BIT       ES
L251 LINKER/LOCATER V4.66.93.0                                                        03/15/2026  14:26:01  PAGE 8


*SFR* 000000A8H.1 DATA     BIT       ET0
      0000000AH   EDATA    BYTE      g_ctrl_mode
      00000013H   EDATA    INT       g_enc_cnt
      0000000BH   EDATA    LONG      g_enc_total
      00000019H   EDATA    INT       g_motor_angle
      0000001DH   EDATA    INT       g_motor_speed
      00000008H   EDATA    INT       g_set_angle
      0000000FH   EDATA    INT       g_set_speed
      00000017H   EDATA    WORD      g_status_flags
      00FF0A7EH   CODE     ---       GBK16
*SFR* 000000C7H   DATA     BYTE      IAP_CONTR
*SFR* 000000A8H   DATA     BYTE      IE
*SFR* 000000AFH   DATA     BYTE      IE2
*SFR* 0000008FH   DATA     BYTE      INTCLKO
*SFR* 000000B8H   DATA     BYTE      IP
*SFR* 000000B5H   DATA     BYTE      IP2
*SFR* 000000B6H   DATA     BYTE      IP2H
*SFR* 000000DFH   DATA     BYTE      IP3
*SFR* 000000EEH   DATA     BYTE      IP3H
*SFR* 000000B7H   DATA     BYTE      IPH
*SFR* 0000009DH   DATA     BYTE      IRCBAND
      00000276H   EDATA    ---       key1
*SFR* 000000C0H.4 DATA     BIT       KEY1_PIN
      00000283H   EDATA    ---       key2
*SFR* 000000C0H.3 DATA     BIT       KEY2_PIN
      00000290H   EDATA    ---       key3
*SFR* 000000C0H.2 DATA     BIT       KEY3_PIN
      00FF3662H   CODE     ---       Key_ClearEvent
      00FF3682H   CODE     ---       Key_GetEvent
      00FF264DH   CODE     ---       Key_HandleEvent
      00FF2FE9H   CODE     ---       Key_Init
      00FF343EH   CODE     ---       Key_IsPressed
      00FF3641H   CODE     ---       Key_Scan
      00FF0E36H   CODE     ---       LCD12864_IMG
      00FF018EH   CODE     ---       lib_num1632
*SFR* 000000F9H   DATA     BYTE      LINICR
      00FF36A1H   CODE     ---       main
      00FF36F2H   CODE     ---       memset?_
      000001CAH   EDATA    BYTE      modbus_coils
      00FF37B6H   CODE     ---       Modbus_Init
      00FF37A2H   CODE     ---       Modbus_Poll
      000001CCH   EDATA    ---       modbus_regs
      00FF3301H   CODE     ---       Modbus_RxByte
      00FF34D7H   CODE     ---       Modbus_TimerTick
      0000001BH   EDATA    WORD      ms_tick
*SFR* 000000CEH.4 DATA     BIT       MSTR
      00FF1636H   CODE     ---       OLED12864_IMG
      00FF1236H   CODE     ---       OLED12864_ZWU_LOGO
      00FF36BCH   CODE     ---       OLED_BuffClear
      00FF3229H   CODE     ---       OLED_BuffShow
      00FF3134H   CODE     ---       OLED_BuffShowBMP
      00FF2D4AH   CODE     ---       OLED_BuffShowChar
      00FF2F68H   CODE     ---       OLED_BuffShowChar32
      00FF27A5H   CODE     ---       OLED_BuffShowCircle
      00FF2BEBH   CODE     ---       OLED_BuffShowGBK
      00FF2B28H   CODE     ---       OLED_BuffShowLine
      00FF31DAH   CODE     ---       OLED_BuffShowNum
      00FF318BH   CODE     ---       OLED_BuffShowNum02F
      00FF3274H   CODE     ---       OLED_BuffShowPoint
      00FF3472H   CODE     ---       OLED_BuffShowRectangle
      00FF2DD5H   CODE     ---       OLED_BuffShowString
*SFR* 000000C0H.5 DATA     BIT       OLED_CS
*SFR* 000000A0H.7 DATA     BIT       OLED_DC
      00FF3764H   CODE     ---       OLED_DisplayOff
      00FF374FH   CODE     ---       OLED_DisplayOn
L251 LINKER/LOCATER V4.66.93.0                                                        03/15/2026  14:26:01  PAGE 9


      00FF2EE4H   CODE     ---       OLED_DrawBMP
      00FF28A8H   CODE     ---       OLED_Init
*SFR* 000000A0H.6 DATA     BIT       OLED_REST
      00FF3589H   CODE     ---       OLED_Set_Pos
      00FF0026H   CODE     ---       OLED_WR_Byte
*SFR* 00000080H   DATA     BYTE      P0
*SFR* 00000094H   DATA     BYTE      P0M0
*SFR* 00000093H   DATA     BYTE      P0M1
*SFR* 00000090H   DATA     BYTE      P1
*SFR* 00000092H   DATA     BYTE      P1M0
*SFR* 00000091H   DATA     BYTE      P1M1
*SFR* 000000A0H   DATA     BYTE      P2
*SFR* 00000096H   DATA     BYTE      P2M0
*SFR* 00000095H   DATA     BYTE      P2M1
*SFR* 000000B0H   DATA     BYTE      P3
*SFR* 000000B2H   DATA     BYTE      P3M0
*SFR* 000000B1H   DATA     BYTE      P3M1
*SFR* 000000C0H   DATA     BYTE      P4
*SFR* 000000B4H   DATA     BYTE      P4M0
*SFR* 000000B3H   DATA     BYTE      P4M1
*SFR* 000000C8H   DATA     BYTE      P5
*SFR* 000000CAH   DATA     BYTE      P5M0
*SFR* 000000C9H   DATA     BYTE      P5M1
*SFR* 000000E8H   DATA     BYTE      P6
*SFR* 000000CCH   DATA     BYTE      P6M0
*SFR* 000000CBH   DATA     BYTE      P6M1
*SFR* 000000F8H   DATA     BYTE      P7
*SFR* 000000E2H   DATA     BYTE      P7M0
*SFR* 000000E1H   DATA     BYTE      P7M1
*SFR* 000000A2H   DATA     BYTE      P_SW1
*SFR* 000000BAH   DATA     BYTE      P_SW2
*SFR* 000000BBH   DATA     BYTE      P_SW3
*SFR* 00000087H   DATA     BYTE      PCON
      00FF361FH   CODE     ---       Printf
*SFR* 000000D0H   DATA     BYTE      PSW
      00FF2CA9H   CODE     ---       PWM_Init
      00FF35D7H   CODE     ---       PWM_SetDuty
      00FF2E5DH   CODE     ---       PWMB_Encoder_Init
*SFR* 00000098H.0 DATA     BIT       RI
*SFR* 000000FFH   DATA     BYTE      RSTCFG
*SFR* 000000BAH.0 DATA     BIT       S2_S
*SFR* 0000009BH   DATA     BYTE      S2BUF
*SFR* 0000009AH   DATA     BYTE      S2CON
*SFR* 000000ACH   DATA     BYTE      S3CON
*SFR* 000000FDH   DATA     BYTE      S4CON
*SFR* 00000099H   DATA     BYTE      SBUF
*SFR* 00000098H   DATA     BYTE      SCON
      00010000H   XDATA    ---       ShowBUFF
*SFR* 000000CEH   DATA     BYTE      SPCTL
*SFR* 000000CFH   DATA     BYTE      SPDAT
*SFR* 000000CEH.6 DATA     BIT       SPEN
      00FF0003H   CODE     ---       SPI_DMA_Wait
      00FF3508H   CODE     ---       SPI_Init
*SFR* 000000A0H.3 DATA     BIT       SPI_MOSI
*SFR* 000000A0H.5 DATA     BIT       SPI_SCK
      00FF35FCH   CODE     ---       SPI_Transmit
      00FF378EH   CODE     ---       SPI_WriteByte
*SFR* 000000CDH.7 DATA     BIT       SPIF
      00FF1A36H   CODE     NEAR LAB  sprintf
*SFR* 000000CDH   DATA     BYTE      SPSTAT
*SFR* 000000CEH.7 DATA     BIT       SSIG
      00FF37C8H   CODE     ---       strlen?_
      00FF3388H   CODE     ---       Sys_init
*SFR* 000000D6H   DATA     BYTE      T2H
*SFR* 000000D7H   DATA     BYTE      T2L
L251 LINKER/LOCATER V4.66.93.0                                                        03/15/2026  14:26:01  PAGE 10


*SFR* 000000DDH   DATA     BYTE      T4T3M
*SFR* 00000088H   DATA     BYTE      TCON
      00000015H   EDATA    WORD      test_pwmb
*SFR* 00000088H.5 DATA     BIT       TF0
*SFR* 0000008CH   DATA     BYTE      TH0
*SFR* 0000008DH   DATA     BYTE      TH1
*SFR* 00000098H.1 DATA     BIT       TI
      00FF3779H   CODE     ---       Timer0_Init
      00FF2A5FH   CODE     ---       Timer0_ISR
*SFR* 0000008AH   DATA     BYTE      TL0
*SFR* 0000008BH   DATA     BYTE      TL1
*SFR* 00000089H   DATA     BYTE      TMOD
*SFR* 00000088H.4 DATA     BIT       TR0
*SFR* 00000088H.6 DATA     BIT       TR1
      00FF35B2H   CODE     ---       UART1_Init
      00FF000EH   CODE     ---       UART1_ISR
      00FF37E1H   CODE     ---       UART1_SendByte
      00FF3723H   CODE     ---       UART1_SendStr
      00FF355FH   CODE     ---       UART2_Init
      00FF30CFH   CODE     ---       UART2_ISR
      00FF3535H   CODE     ---       UART2_ReadByte
      000001F3H   EDATA    ---       uart2_rx_buf
      000001EFH   EDATA    BYTE      uart2_rx_head
      000001F1H   EDATA    BYTE      uart2_rx_tail
      00FF32BDH   CODE     ---       UART2_SendByte
      00FF3739H   CODE     ---       UART2_SendString
      00000233H   EDATA    ---       uart2_tx_buf
      00000020H.2 BIT      BIT       uart2_tx_busy
      000001F0H   EDATA    BYTE      uart2_tx_head
      000001F2H   EDATA    BYTE      uart2_tx_tail
*SFR* 000000F4H   DATA     BYTE      USBCON
      00FF1A56H   CODE     NEAR LAB  vsprintf
*SFR* 000000CDH.6 DATA     BIT       WCOL
*SFR* 000000C1H   DATA     BYTE      WDT_CONTR
*SFR* 000000E9H   DATA     BYTE      WTST



SYMBOL TABLE OF MODULE:  .\Objects\STC32G_Test_06_SPIĶØŠÅOLEDĘĮ (main)

      VALUE       REP       CLASS    TYPE      SYMBOL NAME
      ====================================================
      ---         MODULE    ---      ---       main
      00FF2A5FH   PUBLIC    CODE     ---       Timer0_ISR
      00FF36A1H   PUBLIC    CODE     ---       main
      00FF000EH   PUBLIC    CODE     ---       UART1_ISR
      00FF30CFH   PUBLIC    CODE     ---       UART2_ISR
      00FF0046H   PUBLIC    CODE     ---       _m
      00FF34A5H   PUBLIC    CODE     ---       CLK_Init
      00FF3388H   PUBLIC    CODE     ---       Sys_init
      00000008H   PUBLIC    EDATA    INT       g_set_angle
      0000000AH   PUBLIC    EDATA    BYTE      g_ctrl_mode
      0000000BH   PUBLIC    EDATA    LONG      g_enc_total
      0000000FH   PUBLIC    EDATA    INT       g_set_speed
      00000013H   PUBLIC    EDATA    INT       g_enc_cnt
      00000015H   PUBLIC    EDATA    WORD      test_pwmb
      00000017H   PUBLIC    EDATA    WORD      g_status_flags
      00000019H   PUBLIC    EDATA    INT       g_motor_angle
      0000001BH   PUBLIC    EDATA    WORD      ms_tick
      0000001DH   PUBLIC    EDATA    INT       g_motor_speed
      00FF0E36H   PUBLIC    CODE     ---       LCD12864_IMG
      00FF1236H   PUBLIC    CODE     ---       OLED12864_ZWU_LOGO
      00FF1636H   PUBLIC    CODE     ---       OLED12864_IMG
      00000020H.0 PUBLIC    BIT      BIT       disp_flag
      00000020H.1 PUBLIC    BIT      BIT       B_Change
L251 LINKER/LOCATER V4.66.93.0                                                        03/15/2026  14:26:01  PAGE 11


      00000094H   SFRSYM    DATA     BYTE      P0M0
      000000D0H   SFRSYM    DATA     BYTE      PSW
      000000BAH.7 SFRSYM    DATA     BIT       EAXFR
      0000009DH   SFRSYM    DATA     BYTE      IRCBAND
      00000097H   SFRSYM    DATA     BYTE      AUXR2
      000000EAH   SFRSYM    DATA     BYTE      CKCON
      000000EFH   SFRSYM    DATA     BYTE      AUXINTIF
      000000FDH   SFRSYM    DATA     BYTE      S4CON
      000000ACH   SFRSYM    DATA     BYTE      S3CON
      0000009AH   SFRSYM    DATA     BYTE      S2CON
      0000009BH   SFRSYM    DATA     BYTE      S2BUF
      000000B7H   SFRSYM    DATA     BYTE      IPH
      000000CDH   SFRSYM    DATA     BYTE      SPSTAT
      000000DDH   SFRSYM    DATA     BYTE      T4T3M
      000000C1H   SFRSYM    DATA     BYTE      WDT_CONTR
      000000E9H   SFRSYM    DATA     BYTE      WTST
      000000DFH   SFRSYM    DATA     BYTE      IP3
      000000F4H   SFRSYM    DATA     BYTE      USBCON
      000000B5H   SFRSYM    DATA     BYTE      IP2
      000000FFH   SFRSYM    DATA     BYTE      RSTCFG
      000000E0H   SFRSYM    DATA     BYTE      ACC
      000000C7H   SFRSYM    DATA     BYTE      IAP_CONTR
      000000F9H   SFRSYM    DATA     BYTE      LINICR
      0000008EH   SFRSYM    DATA     BYTE      AUXR
      000000F0H   SFRSYM    DATA     BYTE      B
      000000AFH   SFRSYM    DATA     BYTE      IE2
      00000088H   SFRSYM    DATA     BYTE      TCON
      00000089H   SFRSYM    DATA     BYTE      TMOD
      00000098H   SFRSYM    DATA     BYTE      SCON
      000000F1H   SFRSYM    DATA     BYTE      CANICR
      00000087H   SFRSYM    DATA     BYTE      PCON
      00000099H   SFRSYM    DATA     BYTE      SBUF
      000000BCH   SFRSYM    DATA     BYTE      ADC_CONTR
      000000E7H   SFRSYM    DATA     BYTE      CMPCR2
      000000E6H   SFRSYM    DATA     BYTE      CMPCR1
      00000098H.1 SFRSYM    DATA     BIT       TI
      00000098H.0 SFRSYM    DATA     BIT       RI
      000000DEH   SFRSYM    DATA     BYTE      ADCCFG
      000000B8H   SFRSYM    DATA     BYTE      IP
      0000008FH   SFRSYM    DATA     BYTE      INTCLKO
      000000EEH   SFRSYM    DATA     BYTE      IP3H
      000000B6H   SFRSYM    DATA     BYTE      IP2H
      000000A8H   SFRSYM    DATA     BYTE      IE
      000000BBH   SFRSYM    DATA     BYTE      P_SW3
      000000BAH   SFRSYM    DATA     BYTE      P_SW2
      000000A2H   SFRSYM    DATA     BYTE      P_SW1
      000000CEH   SFRSYM    DATA     BYTE      SPCTL
      000000F8H   SFRSYM    DATA     BYTE      P7
      000000E1H   SFRSYM    DATA     BYTE      P7M1
      000000E8H   SFRSYM    DATA     BYTE      P6
      000000C8H   SFRSYM    DATA     BYTE      P5
      000000CBH   SFRSYM    DATA     BYTE      P6M1
      000000E2H   SFRSYM    DATA     BYTE      P7M0
      000000C0H   SFRSYM    DATA     BYTE      P4
      000000C9H   SFRSYM    DATA     BYTE      P5M1
      000000CCH   SFRSYM    DATA     BYTE      P6M0
      000000B0H   SFRSYM    DATA     BYTE      P3
      000000B3H   SFRSYM    DATA     BYTE      P4M1
      000000CAH   SFRSYM    DATA     BYTE      P5M0
      000000A0H   SFRSYM    DATA     BYTE      P2
      000000B1H   SFRSYM    DATA     BYTE      P3M1
      000000B4H   SFRSYM    DATA     BYTE      P4M0
      00000090H   SFRSYM    DATA     BYTE      P1
      00000095H   SFRSYM    DATA     BYTE      P2M1
      000000B2H   SFRSYM    DATA     BYTE      P3M0
L251 LINKER/LOCATER V4.66.93.0                                                        03/15/2026  14:26:01  PAGE 12


      00000080H   SFRSYM    DATA     BYTE      P0
      00000091H   SFRSYM    DATA     BYTE      P1M1
      00000096H   SFRSYM    DATA     BYTE      P2M0
      00000092H   SFRSYM    DATA     BYTE      P1M0
      00000093H   SFRSYM    DATA     BYTE      P0M1
      00FF305FH   SYMBOL    CODE     ---       Modbus_SyncRegs
      00FF298AH   SYMBOL    CODE     ---       Motor_ControlUpdate
      00000011H   SYMBOL    EDATA    INT       g_enc_last

      00FF305FH   BLOCK     CODE     ---       LVL=0
      R7          REGSYM    ---      BYTE      k
      00FF305FH   LINE      CODE     ---       #96
      00FF305FH   LINE      CODE     ---       #97
      00FF305FH   LINE      CODE     ---       #101
      00FF3067H   LINE      CODE     ---       #102
      00FF306FH   LINE      CODE     ---       #103
      00FF3079H   LINE      CODE     ---       #104
      00FF307DH   LINE      CODE     ---       #105
      00FF3085H   LINE      CODE     ---       #106
      00FF308DH   LINE      CODE     ---       #109
      00FF3090H   LINE      CODE     ---       #110
      00FF30A0H   LINE      CODE     ---       #113
      00FF30A8H   LINE      CODE     ---       #114
      00FF30B0H   LINE      CODE     ---       #115
      00FF30B8H   LINE      CODE     ---       #118
      00FF30C4H   LINE      CODE     ---       #120
      00FF30C8H   LINE      CODE     ---       #121
      00FF30CEH   LINE      CODE     ---       #122
      ---         BLOCKEND  ---      ---       LVL=0

      00FF298AH   BLOCK     CODE     ---       LVL=0
      00FF298EH   BLOCK     CODE     NEAR LAB  LVL=1
      WR14        REGSYM    ---      WORD      pwm_duty
      ---         BLOCKEND  ---      ---       LVL=1
      00FF298AH   LINE      CODE     ---       #130
      00FF298EH   LINE      CODE     ---       #131
      00FF298EH   LINE      CODE     ---       #135
      00FF299AH   LINE      CODE     ---       #137
      00FF299FH   LINE      CODE     ---       #138
      00FF29A2H   LINE      CODE     ---       #139
      00FF29A2H   LINE      CODE     ---       #141
      00FF29B3H   LINE      CODE     ---       #144
      00FF29B3H   LINE      CODE     ---       #149
      00FF29BDH   LINE      CODE     ---       #151
      00FF29C5H   LINE      CODE     ---       #152
      00FF29D6H   LINE      CODE     ---       #153
      00FF29D8H   LINE      CODE     ---       #156
      00FF29E0H   LINE      CODE     ---       #157
      00FF29F3H   LINE      CODE     ---       #158
      00FF29F3H   LINE      CODE     ---       #159
      00FF29FDH   LINE      CODE     ---       #160
      00FF29FDH   LINE      CODE     ---       #161
      00FF29FFH   LINE      CODE     ---       #164
      00FF29FFH   LINE      CODE     ---       #169
      00FF2A09H   LINE      CODE     ---       #171
      00FF2A14H   LINE      CODE     ---       #172
      00FF2A14H   LINE      CODE     ---       #173
      00FF2A16H   LINE      CODE     ---       #176
      00FF2A21H   LINE      CODE     ---       #178
      00FF2A21H   LINE      CODE     ---       #179
      00FF2A23H   LINE      CODE     ---       #182
      00FF2A23H   LINE      CODE     ---       #183
      00FF2A27H   LINE      CODE     ---       #184
      00FF2A31H   LINE      CODE     ---       #185
      00FF2A33H   LINE      CODE     ---       #186
L251 LINKER/LOCATER V4.66.93.0                                                        03/15/2026  14:26:01  PAGE 13


      00FF2A35H   LINE      CODE     ---       #188
      00FF2A35H   LINE      CODE     ---       #189
      00FF2A3AH   LINE      CODE     ---       #190
      00FF2A3AH   LINE      CODE     ---       #191
      00FF2A3AH   LINE      CODE     ---       #194
      00FF2A46H   LINE      CODE     ---       #195
      00FF2A4FH   LINE      CODE     ---       #197
      00FF2A5AH   LINE      CODE     ---       #198
      ---         BLOCKEND  ---      ---       LVL=0

      00FF34A5H   BLOCK     CODE     ---       LVL=0
      00FF34A5H   LINE      CODE     ---       #203
      00FF34A5H   LINE      CODE     ---       #205
      00FF34A8H   LINE      CODE     ---       #206
      00FF34B5H   LINE      CODE     ---       #207
      00FF34C3H   LINE      CODE     ---       #208
      00FF34CFH   LINE      CODE     ---       #209
      00FF34D6H   LINE      CODE     ---       #210
      ---         BLOCKEND  ---      ---       LVL=0

      00FF3388H   BLOCK     CODE     ---       LVL=0
      00FF3388H   LINE      CODE     ---       #212
      00FF3388H   LINE      CODE     ---       #214
      00FF338BH   LINE      CODE     ---       #215
      00FF338EH   LINE      CODE     ---       #216
      00FF3391H   LINE      CODE     ---       #218
      00FF3397H   LINE      CODE     ---       #219
      00FF339DH   LINE      CODE     ---       #220
      00FF33A3H   LINE      CODE     ---       #221
      00FF33A9H   LINE      CODE     ---       #222
      00FF33AFH   LINE      CODE     ---       #223
      00FF33B5H   LINE      CODE     ---       #224
      00FF33BBH   LINE      CODE     ---       #225
      00FF33C1H   LINE      CODE     ---       #227
      00FF33C4H   LINE      CODE     ---       #228
      00FF33C7H   LINE      CODE     ---       #229
      ---         BLOCKEND  ---      ---       LVL=0

      00FF36A1H   BLOCK     CODE     ---       LVL=0
      00FF36A1H   LINE      CODE     ---       #234
      ---         BLOCKEND  ---      ---       LVL=0

      00FF0046H   BLOCK     CODE     ---       LVL=0
      00FF0046H   LINE      CODE     ---       #234
      00FF0046H   LINE      CODE     ---       #235
      00FF0046H   LINE      CODE     ---       #238
      00FF0049H   LINE      CODE     ---       #239
      00FF004CH   LINE      CODE     ---       #240
      00FF004FH   LINE      CODE     ---       #241
      00FF0052H   LINE      CODE     ---       #242
      00FF0055H   LINE      CODE     ---       #243
      00FF0058H   LINE      CODE     ---       #244
      00FF005BH   LINE      CODE     ---       #245
      00FF005EH   LINE      CODE     ---       #246
      00FF0061H   LINE      CODE     ---       #247
      00FF0066H   LINE      CODE     ---       #250
      00FF006CH   LINE      CODE     ---       #251
      00FF0070H   LINE      CODE     ---       #252
      00FF0074H   LINE      CODE     ---       #253
      00FF0078H   LINE      CODE     ---       #256
      00FF007DH   LINE      CODE     ---       #259
      00FF0080H   LINE      CODE     ---       #260
      00FF0083H   LINE      CODE     ---       #261
      00FF0086H   LINE      CODE     ---       #262
      00FF0096H   LINE      CODE     ---       #263
L251 LINKER/LOCATER V4.66.93.0                                                        03/15/2026  14:26:01  PAGE 14


      00FF00A7H   LINE      CODE     ---       #264
      00FF00AAH   LINE      CODE     ---       #266
      00FF00AAH   LINE      CODE     ---       #269
      00FF00ADH   LINE      CODE     ---       #272
      00FF00B0H   LINE      CODE     ---       #275
      00FF00B3H   LINE      CODE     ---       #278
      00FF00B6H   LINE      CODE     ---       #281
      00FF00B9H   LINE      CODE     ---       #283
      00FF00BBH   LINE      CODE     ---       #285
      00FF00CCH   LINE      CODE     ---       #287
      00FF00EFH   LINE      CODE     ---       #289
      00FF00F2H   LINE      CODE     ---       #290
      00FF00F2H   LINE      CODE     ---       #292
      00FF014AH   LINE      CODE     ---       #300
      ---         BLOCKEND  ---      ---       LVL=0

      00FF000EH   BLOCK     CODE     ---       LVL=0
      00FF0012H   BLOCK     CODE     NEAR LAB  LVL=1
      ---         BLOCKEND  ---      ---       LVL=1
      00FF000EH   LINE      CODE     ---       #306
      00FF0012H   LINE      CODE     ---       #307
      00FF0012H   LINE      CODE     ---       #309
      00FF0015H   LINE      CODE     ---       #311
      00FF0017H   LINE      CODE     ---       #312
      00FF0019H   LINE      CODE     ---       #313
      00FF0019H   LINE      CODE     ---       #314
      00FF001CH   LINE      CODE     ---       #316
      00FF001EH   LINE      CODE     ---       #317
      ---         BLOCKEND  ---      ---       LVL=0

      00FF30CFH   BLOCK     CODE     ---       LVL=0
      00FF30CFH   LINE      CODE     ---       #323
      00FF30E5H   LINE      CODE     ---       #325
      00FF30EAH   LINE      CODE     ---       #327
      00FF30EDH   LINE      CODE     ---       #328
      00FF30F2H   LINE      CODE     ---       #329
      00FF30F2H   LINE      CODE     ---       #331
      00FF30F7H   LINE      CODE     ---       #333
      00FF30FAH   LINE      CODE     ---       #334
      00FF3104H   LINE      CODE     ---       #336
      00FF310CH   LINE      CODE     ---       #337
      00FF3119H   LINE      CODE     ---       #338
      00FF311BH   LINE      CODE     ---       #341
      00FF311DH   LINE      CODE     ---       #342
      00FF311DH   LINE      CODE     ---       #343
      ---         BLOCKEND  ---      ---       LVL=0

      00FF2A5FH   BLOCK     CODE     ---       LVL=0
      00FF2A75H   BLOCK     CODE     NEAR LAB  LVL=1
      WR4         REGSYM    ---      INT       enc_now
      WR6         REGSYM    ---      INT       enc_delta
      00FF2ACCH   BLOCK     CODE     NEAR LAB  LVL=2
      DR4         REGSYM    ---      LONG      rem
      ---         BLOCKEND  ---      ---       LVL=2
      ---         BLOCKEND  ---      ---       LVL=1
      00FF2A5FH   LINE      CODE     ---       #349
      00FF2A75H   LINE      CODE     ---       #350
      00FF2A75H   LINE      CODE     ---       #354
      00FF2A7FH   LINE      CODE     ---       #357
      00FF2A82H   LINE      CODE     ---       #360
      00FF2A85H   LINE      CODE     ---       #363
      00FF2A93H   LINE      CODE     ---       #365
      00FF2A98H   LINE      CODE     ---       #366
      00FF2A9CH   LINE      CODE     ---       #367
      00FF2AA0H   LINE      CODE     ---       #368
L251 LINKER/LOCATER V4.66.93.0                                                        03/15/2026  14:26:01  PAGE 15


      00FF2AA4H   LINE      CODE     ---       #371
      00FF2AB4H   LINE      CODE     ---       #380
      00FF2ACCH   LINE      CODE     ---       #389
      00FF2ACCH   LINE      CODE     ---       #390
      00FF2AD7H   LINE      CODE     ---       #391
      00FF2AE1H   LINE      CODE     ---       #392
      00FF2AF1H   LINE      CODE     ---       #394
      00FF2AF1H   LINE      CODE     ---       #397
      00FF2AFFH   LINE      CODE     ---       #399
      00FF2B01H   LINE      CODE     ---       #400
      00FF2B01H   LINE      CODE     ---       #402
      00FF2B11H   LINE      CODE     ---       #403
      ---         BLOCKEND  ---      ---       LVL=0

      ---         MODULE    ---      ---       oled
      00FF2BEBH   PUBLIC    CODE     ---       OLED_BuffShowGBK
      00FF27A5H   PUBLIC    CODE     ---       OLED_BuffShowCircle
      00FF318BH   PUBLIC    CODE     ---       OLED_BuffShowNum02F
      00FF3134H   PUBLIC    CODE     ---       OLED_BuffShowBMP
      00FF2F68H   PUBLIC    CODE     ---       OLED_BuffShowChar32
      00FF28A8H   PUBLIC    CODE     ---       OLED_Init
      00FF374FH   PUBLIC    CODE     ---       OLED_DisplayOn
      00FF0026H   PUBLIC    CODE     ---       OLED_WR_Byte
      00FF2DD5H   PUBLIC    CODE     ---       OLED_BuffShowString
      00FF3229H   PUBLIC    CODE     ---       OLED_BuffShow
      00FF2D4AH   PUBLIC    CODE     ---       OLED_BuffShowChar
      00FF2B28H   PUBLIC    CODE     ---       OLED_BuffShowLine
      00FF3274H   PUBLIC    CODE     ---       OLED_BuffShowPoint
      00FF3589H   PUBLIC    CODE     ---       OLED_Set_Pos
      00FF3472H   PUBLIC    CODE     ---       OLED_BuffShowRectangle
      00FF370CH   PUBLIC    CODE     ---       delay_ms
      00FF31DAH   PUBLIC    CODE     ---       OLED_BuffShowNum
      00FF36BCH   PUBLIC    CODE     ---       OLED_BuffClear
      00FF2EE4H   PUBLIC    CODE     ---       OLED_DrawBMP
      00FF3764H   PUBLIC    CODE     ---       OLED_DisplayOff
      00FF018EH   PUBLIC    CODE     ---       lib_num1632
      00FF048EH   PUBLIC    CODE     ---       Ascll_16
      00FF0A7EH   PUBLIC    CODE     ---       GBK16
      00010000H   PUBLIC    XDATA    ---       ShowBUFF
      000000D0H   SFRSYM    DATA     BYTE      PSW
      0000009DH   SFRSYM    DATA     BYTE      IRCBAND
      00000097H   SFRSYM    DATA     BYTE      AUXR2
      000000EFH   SFRSYM    DATA     BYTE      AUXINTIF
      000000FDH   SFRSYM    DATA     BYTE      S4CON
      000000ACH   SFRSYM    DATA     BYTE      S3CON
      0000009AH   SFRSYM    DATA     BYTE      S2CON
      000000B7H   SFRSYM    DATA     BYTE      IPH
      000000CDH   SFRSYM    DATA     BYTE      SPSTAT
      000000DDH   SFRSYM    DATA     BYTE      T4T3M
      000000C1H   SFRSYM    DATA     BYTE      WDT_CONTR
      000000DFH   SFRSYM    DATA     BYTE      IP3
      000000F4H   SFRSYM    DATA     BYTE      USBCON
      000000B5H   SFRSYM    DATA     BYTE      IP2
      000000FFH   SFRSYM    DATA     BYTE      RSTCFG
      000000E0H   SFRSYM    DATA     BYTE      ACC
      000000A0H.6 SFRSYM    DATA     BIT       OLED_REST
      000000C7H   SFRSYM    DATA     BYTE      IAP_CONTR
      000000F9H   SFRSYM    DATA     BYTE      LINICR
      0000008EH   SFRSYM    DATA     BYTE      AUXR
      000000F0H   SFRSYM    DATA     BYTE      B
      000000AFH   SFRSYM    DATA     BYTE      IE2
      00000088H   SFRSYM    DATA     BYTE      TCON
      00000089H   SFRSYM    DATA     BYTE      TMOD
      00000098H   SFRSYM    DATA     BYTE      SCON
      000000F1H   SFRSYM    DATA     BYTE      CANICR
L251 LINKER/LOCATER V4.66.93.0                                                        03/15/2026  14:26:01  PAGE 16


      00000087H   SFRSYM    DATA     BYTE      PCON
      000000BCH   SFRSYM    DATA     BYTE      ADC_CONTR
      000000E7H   SFRSYM    DATA     BYTE      CMPCR2
      000000E6H   SFRSYM    DATA     BYTE      CMPCR1
      000000C0H.5 SFRSYM    DATA     BIT       OLED_CS
      000000DEH   SFRSYM    DATA     BYTE      ADCCFG
      000000B8H   SFRSYM    DATA     BYTE      IP
      0000008FH   SFRSYM    DATA     BYTE      INTCLKO
      000000EEH   SFRSYM    DATA     BYTE      IP3H
      000000B6H   SFRSYM    DATA     BYTE      IP2H
      000000A8H   SFRSYM    DATA     BYTE      IE
      000000BBH   SFRSYM    DATA     BYTE      P_SW3
      000000BAH   SFRSYM    DATA     BYTE      P_SW2
      000000A0H.7 SFRSYM    DATA     BIT       OLED_DC
      000000A2H   SFRSYM    DATA     BYTE      P_SW1
      000000CEH   SFRSYM    DATA     BYTE      SPCTL
      000000F8H   SFRSYM    DATA     BYTE      P7
      000000E8H   SFRSYM    DATA     BYTE      P6
      000000C8H   SFRSYM    DATA     BYTE      P5
      000000C0H   SFRSYM    DATA     BYTE      P4
      000000B0H   SFRSYM    DATA     BYTE      P3
      000000A0H   SFRSYM    DATA     BYTE      P2
      00000090H   SFRSYM    DATA     BYTE      P1
      00000080H   SFRSYM    DATA     BYTE      P0
      00FF37D6H   SYMBOL    CODE     ---       delay

      00FF37D6H   BLOCK     CODE     ---       LVL=0
      WR6         REGSYM    ---      INT       i
      00FF37D6H   LINE      CODE     ---       #28
      00FF37D6H   LINE      CODE     ---       #29
      00FF37D6H   LINE      CODE     ---       #31
      00FF37E0H   LINE      CODE     ---       #32
      ---         BLOCKEND  ---      ---       LVL=0

      00FF370CH   BLOCK     CODE     ---       LVL=0
      WR4         REGSYM    ---      WORD      ms
      00FF370EH   BLOCK     CODE     NEAR LAB  LVL=1
      WR6         REGSYM    ---      WORD      i
      ---         BLOCKEND  ---      ---       LVL=1
      00FF370CH   LINE      CODE     ---       #34
      00FF370EH   LINE      CODE     ---       #35
      00FF370EH   LINE      CODE     ---       #37
      00FF370EH   LINE      CODE     ---       #38
      00FF3712H   LINE      CODE     ---       #39
      00FF371AH   LINE      CODE     ---       #40
      00FF3722H   LINE      CODE     ---       #41
      ---         BLOCKEND  ---      ---       LVL=0

      00FF0026H   BLOCK     CODE     ---       LVL=0
      R7          REGSYM    ---      BYTE      dat
      R10         REGSYM    ---      BYTE      cmd
      00FF0026H   LINE      CODE     ---       #48
      00FF002AH   LINE      CODE     ---       #50
      00FF002EH   LINE      CODE     ---       #51
      00FF0032H   LINE      CODE     ---       #53
      00FF0034H   LINE      CODE     ---       #55
      00FF0036H   LINE      CODE     ---       #56
      00FF003BH   LINE      CODE     ---       #57
      00FF003EH   LINE      CODE     ---       #58
      00FF0040H   LINE      CODE     ---       #59
      00FF0042H   LINE      CODE     ---       #60
      ---         BLOCKEND  ---      ---       LVL=0

      00FF28A8H   BLOCK     CODE     ---       LVL=0
      00FF28A8H   LINE      CODE     ---       #65
L251 LINKER/LOCATER V4.66.93.0                                                        03/15/2026  14:26:01  PAGE 17


      00FF28A8H   LINE      CODE     ---       #67
      00FF28ABH   LINE      CODE     ---       #68
      00FF28B2H   LINE      CODE     ---       #69
      00FF28B4H   LINE      CODE     ---       #70
      00FF28BBH   LINE      CODE     ---       #71
      00FF28BDH   LINE      CODE     ---       #72
      00FF28C4H   LINE      CODE     ---       #73
      00FF28C6H   LINE      CODE     ---       #75
      00FF28CDH   LINE      CODE     ---       #76
      00FF28D3H   LINE      CODE     ---       #77
      00FF28DAH   LINE      CODE     ---       #78
      00FF28E1H   LINE      CODE     ---       #79
      00FF28E8H   LINE      CODE     ---       #80
      00FF28EFH   LINE      CODE     ---       #81
      00FF28F6H   LINE      CODE     ---       #82
      00FF28FDH   LINE      CODE     ---       #83
      00FF2904H   LINE      CODE     ---       #84
      00FF290BH   LINE      CODE     ---       #85
      00FF2912H   LINE      CODE     ---       #86
      00FF2919H   LINE      CODE     ---       #87
      00FF291FH   LINE      CODE     ---       #88
      00FF2926H   LINE      CODE     ---       #89
      00FF292DH   LINE      CODE     ---       #90
      00FF2934H   LINE      CODE     ---       #91
      00FF293BH   LINE      CODE     ---       #92
      00FF2942H   LINE      CODE     ---       #93
      00FF2949H   LINE      CODE     ---       #94
      00FF2950H   LINE      CODE     ---       #95
      00FF2957H   LINE      CODE     ---       #96
      00FF295EH   LINE      CODE     ---       #97
      00FF2964H   LINE      CODE     ---       #98
      00FF296BH   LINE      CODE     ---       #99
      00FF2972H   LINE      CODE     ---       #100
      00FF2979H   LINE      CODE     ---       #101
      00FF2980H   LINE      CODE     ---       #102
      00FF2987H   LINE      CODE     ---       #104
      ---         BLOCKEND  ---      ---       LVL=0

      00FF3589H   BLOCK     CODE     ---       LVL=0
      R15         REGSYM    ---      BYTE      x
      R10         REGSYM    ---      BYTE      y
      00FF3589H   LINE      CODE     ---       #110
      00FF358DH   LINE      CODE     ---       #112
      00FF3596H   LINE      CODE     ---       #113
      00FF35A4H   LINE      CODE     ---       #114
      00FF35AFH   LINE      CODE     ---       #115
      ---         BLOCKEND  ---      ---       LVL=0

      00FF3229H   BLOCK     CODE     ---       LVL=0
      00FF322DH   BLOCK     CODE     NEAR LAB  LVL=1
      R15         REGSYM    ---      BYTE      i
      REG=6       REGSYM    ---      ---       row
      ---         BLOCKEND  ---      ---       LVL=1
      00FF3229H   LINE      CODE     ---       #133
      00FF322DH   LINE      CODE     ---       #134
      00FF322DH   LINE      CODE     ---       #138
      00FF322FH   LINE      CODE     ---       #140
      00FF3238H   LINE      CODE     ---       #142
      00FF323AH   LINE      CODE     ---       #143
      00FF323CH   LINE      CODE     ---       #144
      00FF3245H   LINE      CODE     ---       #145
      00FF3249H   LINE      CODE     ---       #146
      00FF324EH   LINE      CODE     ---       #147
      00FF3250H   LINE      CODE     ---       #149
      00FF3252H   LINE      CODE     ---       #150
L251 LINKER/LOCATER V4.66.93.0                                                        03/15/2026  14:26:01  PAGE 18


      00FF3254H   LINE      CODE     ---       #151
      00FF3256H   LINE      CODE     ---       #153
      00FF3263H   LINE      CODE     ---       #154
      00FF3266H   LINE      CODE     ---       #156
      00FF3268H   LINE      CODE     ---       #157
      00FF326FH   LINE      CODE     ---       #158
      ---         BLOCKEND  ---      ---       LVL=0

      00FF36BCH   BLOCK     CODE     ---       LVL=0
      REG=3       REGSYM    ---      ---       p
      WR4         REGSYM    ---      WORD      n
      00FF36BCH   LINE      CODE     ---       #164
      00FF36BCH   LINE      CODE     ---       #165
      00FF36BCH   LINE      CODE     ---       #166
      00FF36C0H   LINE      CODE     ---       #168
      00FF36C2H   LINE      CODE     ---       #169
      00FF36D6H   LINE      CODE     ---       #170
      ---         BLOCKEND  ---      ---       LVL=0

      00FF374FH   BLOCK     CODE     ---       LVL=0
      00FF374FH   LINE      CODE     ---       #172
      00FF374FH   LINE      CODE     ---       #174
      00FF3756H   LINE      CODE     ---       #175
      00FF375DH   LINE      CODE     ---       #176
      ---         BLOCKEND  ---      ---       LVL=0

      00FF3764H   BLOCK     CODE     ---       LVL=0
      00FF3764H   LINE      CODE     ---       #179
      00FF3764H   LINE      CODE     ---       #181
      00FF376BH   LINE      CODE     ---       #182
      00FF3772H   LINE      CODE     ---       #183
      ---         BLOCKEND  ---      ---       LVL=0

      00FF2EE4H   BLOCK     CODE     ---       LVL=0
      000002A9H   SYMBOL    EDATA    BYTE      x0
      000002AAH   SYMBOL    EDATA    BYTE      y0
      000002ABH   SYMBOL    EDATA    BYTE      x1
      000002ACH   SYMBOL    EDATA    BYTE      y1
      REG=3       REGSYM    ---      ---       BMP
      00FF2EF8H   BLOCK     CODE     NEAR LAB  LVL=1
      00010414H   SYMBOL    XDATA    WORD      j
      00010416H   SYMBOL    XDATA    BYTE      x
      000002ADH   SYMBOL    EDATA    BYTE      y
      ---         BLOCKEND  ---      ---       LVL=1
      00FF2EE4H   LINE      CODE     ---       #186
      00FF2EF8H   LINE      CODE     ---       #188
      00FF2EF8H   LINE      CODE     ---       #189
      00FF2F00H   LINE      CODE     ---       #191
      00FF2F0AH   LINE      CODE     ---       #193
      00FF2F15H   LINE      CODE     ---       #194
      00FF2F1CH   LINE      CODE     ---       #195
      00FF2F46H   LINE      CODE     ---       #196
      00FF2F65H   LINE      CODE     ---       #197
      ---         BLOCKEND  ---      ---       LVL=0

      00FF3274H   BLOCK     CODE     ---       LVL=0
      R2          REGSYM    ---      BYTE      x
      R3          REGSYM    ---      BYTE      y
      00FF3274H   LINE      CODE     ---       #199
      00FF3278H   LINE      CODE     ---       #201
      00FF32BCH   LINE      CODE     ---       #202
      ---         BLOCKEND  ---      ---       LVL=0

      00FF2B28H   BLOCK     CODE     ---       LVL=0
      R14         REGSYM    ---      BYTE      x1
L251 LINKER/LOCATER V4.66.93.0                                                        03/15/2026  14:26:01  PAGE 19


      R15         REGSYM    ---      BYTE      y1
      R12         REGSYM    ---      BYTE      x2
      R13         REGSYM    ---      BYTE      y2
      00FF2B32H   BLOCK     CODE     NEAR LAB  LVL=1
      000002B2H   SYMBOL    EDATA    BYTE      x
      000002B3H   SYMBOL    EDATA    BYTE      y
      ---         BLOCKEND  ---      ---       LVL=1
      00FF2B28H   LINE      CODE     ---       #204
      00FF2B32H   LINE      CODE     ---       #206
      00FF2B32H   LINE      CODE     ---       #208
      00FF2B4AH   LINE      CODE     ---       #209
      00FF2B4EH   LINE      CODE     ---       #211
      00FF2B54H   LINE      CODE     ---       #213
      00FF2B58H   LINE      CODE     ---       #214
      00FF2B76H   LINE      CODE     ---       #216
      00FF2B95H   LINE      CODE     ---       #217
      00FF2BA4H   LINE      CODE     ---       #218
      00FF2BA6H   LINE      CODE     ---       #221
      00FF2BCAH   LINE      CODE     ---       #222
      00FF2BE8H   LINE      CODE     ---       #223
      00FF2BE8H   LINE      CODE     ---       #224
      ---         BLOCKEND  ---      ---       LVL=0

      00FF3472H   BLOCK     CODE     ---       LVL=0
      R12         REGSYM    ---      BYTE      x1
      R13         REGSYM    ---      BYTE      y1
      R14         REGSYM    ---      BYTE      x2
      R15         REGSYM    ---      BYTE      y2
      00FF3472H   LINE      CODE     ---       #226
      00FF347CH   LINE      CODE     ---       #229
      00FF3481H   LINE      CODE     ---       #230
      00FF348CH   LINE      CODE     ---       #231
      00FF3497H   LINE      CODE     ---       #232
      00FF34A2H   LINE      CODE     ---       #233
      ---         BLOCKEND  ---      ---       LVL=0

      00FF27A5H   BLOCK     CODE     ---       LVL=0
      R14         REGSYM    ---      BYTE      x
      R15         REGSYM    ---      BYTE      y
      R10         REGSYM    ---      BYTE      r
      00FF27ADH   BLOCK     CODE     NEAR LAB  LVL=1
      WR12        REGSYM    ---      INT       a
      0000029DH   SYMBOL    EDATA    INT       b
      0000029FH   SYMBOL    EDATA    INT       di
      000002A1H   SYMBOL    EDATA    BYTE      x_add_a
      000002A2H   SYMBOL    EDATA    BYTE      x_add_b
      000002A3H   SYMBOL    EDATA    BYTE      x_sub_a
      000002A4H   SYMBOL    EDATA    BYTE      x_sub_b
      000002A5H   SYMBOL    EDATA    BYTE      y_add_a
      000002A6H   SYMBOL    EDATA    BYTE      y_add_b
      000002A7H   SYMBOL    EDATA    BYTE      y_sub_a
      000002A8H   SYMBOL    EDATA    BYTE      y_sub_b
      ---         BLOCKEND  ---      ---       LVL=1
      00FF27A5H   LINE      CODE     ---       #235
      00FF27ADH   LINE      CODE     ---       #236
      00FF27ADH   LINE      CODE     ---       #240
      00FF27BFH   LINE      CODE     ---       #241
      00FF27C2H   LINE      CODE     ---       #243
      00FF27E6H   LINE      CODE     ---       #244
      00FF280AH   LINE      CODE     ---       #245
      00FF280DH   LINE      CODE     ---       #246
      00FF2818H   LINE      CODE     ---       #247
      00FF2823H   LINE      CODE     ---       #248
      00FF282EH   LINE      CODE     ---       #249
      00FF2839H   LINE      CODE     ---       #250
L251 LINKER/LOCATER V4.66.93.0                                                        03/15/2026  14:26:01  PAGE 20


      00FF2844H   LINE      CODE     ---       #251
      00FF284FH   LINE      CODE     ---       #252
      00FF285AH   LINE      CODE     ---       #253
      00FF285CH   LINE      CODE     ---       #254
      00FF287AH   LINE      CODE     ---       #255
      00FF289AH   LINE      CODE     ---       #256
      00FF28A5H   LINE      CODE     ---       #257
      ---         BLOCKEND  ---      ---       LVL=0

      00FF2D4AH   BLOCK     CODE     ---       LVL=0
      R9          REGSYM    ---      BYTE      x
      R0          REGSYM    ---      BYTE      y
      R1          REGSYM    ---      CHAR      asc
      R8          REGSYM    ---      BYTE      mode
      00FF2D52H   BLOCK     CODE     NEAR LAB  LVL=1
      R7          REGSYM    ---      BYTE      j
      R6          REGSYM    ---      BYTE      k
      ---         BLOCKEND  ---      ---       LVL=1
      00FF2D4AH   LINE      CODE     ---       #259
      00FF2D52H   LINE      CODE     ---       #261
      00FF2D52H   LINE      CODE     ---       #263
      00FF2D54H   LINE      CODE     ---       #264
      00FF2D56H   LINE      CODE     ---       #266
      00FF2D5AH   LINE      CODE     ---       #267
      00FF2D7DH   LINE      CODE     ---       #269
      00FF2DC7H   LINE      CODE     ---       #270
      00FF2DD4H   LINE      CODE     ---       #271
      ---         BLOCKEND  ---      ---       LVL=0

      00FF2BEBH   BLOCK     CODE     ---       LVL=0
      R0          REGSYM    ---      BYTE      x
      R1          REGSYM    ---      BYTE      y
      REG=7       REGSYM    ---      ---       gbk
      R9          REGSYM    ---      BYTE      mode
      00FF2BF3H   BLOCK     CODE     NEAR LAB  LVL=1
      R8          REGSYM    ---      BYTE      i
      R7          REGSYM    ---      BYTE      j
      R6          REGSYM    ---      BYTE      k
      ---         BLOCKEND  ---      ---       LVL=1
      00FF2BEBH   LINE      CODE     ---       #273
      00FF2BF3H   LINE      CODE     ---       #275
      00FF2BF3H   LINE      CODE     ---       #277
      00FF2BF5H   LINE      CODE     ---       #279
      00FF2C26H   LINE      CODE     ---       #281
      00FF2C28H   LINE      CODE     ---       #282
      00FF2C2AH   LINE      CODE     ---       #284
      00FF2C2EH   LINE      CODE     ---       #285
      00FF2C4CH   LINE      CODE     ---       #287
      00FF2C91H   LINE      CODE     ---       #288
      00FF2C9DH   LINE      CODE     ---       #289
      00FF2C9EH   LINE      CODE     ---       #290
      00FF2CA8H   LINE      CODE     ---       #292
      ---         BLOCKEND  ---      ---       LVL=0

      00FF2DD5H   BLOCK     CODE     ---       LVL=0
      000000B9H   SYMBOL    EDATA    BYTE      x
      000000BAH   SYMBOL    EDATA    BYTE      y
      REG=3       REGSYM    ---      ---       s
      000000BBH   SYMBOL    EDATA    BYTE      mode
      00FF2DE5H   BLOCK     CODE     NEAR LAB  LVL=1
      000000BCH   SYMBOL    EDATA    ---       s_num
      ---         BLOCKEND  ---      ---       LVL=1
      00FF2DD5H   LINE      CODE     ---       #294
      00FF2DE5H   LINE      CODE     ---       #296
      00FF2DE5H   LINE      CODE     ---       #298
L251 LINKER/LOCATER V4.66.93.0                                                        03/15/2026  14:26:01  PAGE 21


      00FF2DE7H   LINE      CODE     ---       #300
      00FF2DEFH   LINE      CODE     ---       #302
      00FF2E01H   LINE      CODE     ---       #303
      00FF2E0DH   LINE      CODE     ---       #304
      00FF2E0FH   LINE      CODE     ---       #307
      00FF2E1EH   LINE      CODE     ---       #308
      00FF2E31H   LINE      CODE     ---       #309
      00FF2E3DH   LINE      CODE     ---       #310
      00FF2E3DH   LINE      CODE     ---       #311
      00FF2E5AH   LINE      CODE     ---       #313
      ---         BLOCKEND  ---      ---       LVL=0

      00FF31DAH   BLOCK     CODE     ---       LVL=0
      R13         REGSYM    ---      BYTE      x
      R14         REGSYM    ---      BYTE      y
      000000B5H   SYMBOL    EDATA    LONG      num
      R15         REGSYM    ---      BYTE      mode
      00FF31E8H   BLOCK     CODE     NEAR LAB  LVL=1
      0001040AH   SYMBOL    XDATA    ---       str
      ---         BLOCKEND  ---      ---       LVL=1
      00FF31DAH   LINE      CODE     ---       #315
      00FF31E8H   LINE      CODE     ---       #317
      00FF31E8H   LINE      CODE     ---       #319
      00FF31F8H   LINE      CODE     ---       #320
      00FF3213H   LINE      CODE     ---       #321
      00FF3224H   LINE      CODE     ---       #322
      ---         BLOCKEND  ---      ---       LVL=0

      00FF318BH   BLOCK     CODE     ---       LVL=0
      R13         REGSYM    ---      BYTE      x
      R14         REGSYM    ---      BYTE      y
      000002AEH   SYMBOL    EDATA    FLOAT     num
      R15         REGSYM    ---      BYTE      mode
      00FF3199H   BLOCK     CODE     NEAR LAB  LVL=1
      00010400H   SYMBOL    XDATA    ---       str
      ---         BLOCKEND  ---      ---       LVL=1
      00FF318BH   LINE      CODE     ---       #324
      00FF3199H   LINE      CODE     ---       #326
      00FF3199H   LINE      CODE     ---       #328
      00FF31A9H   LINE      CODE     ---       #329
      00FF31C4H   LINE      CODE     ---       #330
      00FF31D5H   LINE      CODE     ---       #331
      ---         BLOCKEND  ---      ---       LVL=0

      00FF2F68H   BLOCK     CODE     ---       LVL=0
      R9          REGSYM    ---      BYTE      x
      R0          REGSYM    ---      BYTE      y
      R1          REGSYM    ---      BYTE      num
      R8          REGSYM    ---      BYTE      mode
      00FF2F70H   BLOCK     CODE     NEAR LAB  LVL=1
      R7          REGSYM    ---      BYTE      j
      R6          REGSYM    ---      BYTE      k
      ---         BLOCKEND  ---      ---       LVL=1
      00FF2F68H   LINE      CODE     ---       #333
      00FF2F70H   LINE      CODE     ---       #335
      00FF2F70H   LINE      CODE     ---       #337
      00FF2F72H   LINE      CODE     ---       #338
      00FF2F74H   LINE      CODE     ---       #340
      00FF2F78H   LINE      CODE     ---       #341
      00FF2F96H   LINE      CODE     ---       #343
      00FF2FDBH   LINE      CODE     ---       #344
      00FF2FE8H   LINE      CODE     ---       #345
      ---         BLOCKEND  ---      ---       LVL=0

      00FF3134H   BLOCK     CODE     ---       LVL=0
L251 LINKER/LOCATER V4.66.93.0                                                        03/15/2026  14:26:01  PAGE 22


      R15         REGSYM    ---      BYTE      x0
      R8          REGSYM    ---      BYTE      y0
      R9          REGSYM    ---      BYTE      x1
      R14         REGSYM    ---      BYTE      y1
      REG=7       REGSYM    ---      ---       BMP
      00FF3140H   BLOCK     CODE     NEAR LAB  LVL=1
      WR6         REGSYM    ---      WORD      num
      R5          REGSYM    ---      BYTE      k
      R10         REGSYM    ---      BYTE      j
      ---         BLOCKEND  ---      ---       LVL=1
      00FF3134H   LINE      CODE     ---       #347
      00FF3140H   LINE      CODE     ---       #349
      00FF3140H   LINE      CODE     ---       #350
      00FF3142H   LINE      CODE     ---       #352
      00FF3146H   LINE      CODE     ---       #353
      00FF314AH   LINE      CODE     ---       #354
      00FF3188H   LINE      CODE     ---       #355
      ---         BLOCKEND  ---      ---       LVL=0

      ---         MODULE    ---      ---       spi
      00FF0003H   PUBLIC    CODE     ---       SPI_DMA_Wait
      00FF35FCH   PUBLIC    CODE     ---       SPI_Transmit
      00FF3508H   PUBLIC    CODE     ---       SPI_Init
      00FF378EH   PUBLIC    CODE     ---       SPI_WriteByte
      000000CFH   SFRSYM    DATA     BYTE      SPDAT
      000000D0H   SFRSYM    DATA     BYTE      PSW
      0000009DH   SFRSYM    DATA     BYTE      IRCBAND
      00000097H   SFRSYM    DATA     BYTE      AUXR2
      000000EFH   SFRSYM    DATA     BYTE      AUXINTIF
      000000FDH   SFRSYM    DATA     BYTE      S4CON
      000000ACH   SFRSYM    DATA     BYTE      S3CON
      0000009AH   SFRSYM    DATA     BYTE      S2CON
      000000B7H   SFRSYM    DATA     BYTE      IPH
      000000CDH   SFRSYM    DATA     BYTE      SPSTAT
      000000DDH   SFRSYM    DATA     BYTE      T4T3M
      000000C1H   SFRSYM    DATA     BYTE      WDT_CONTR
      000000DFH   SFRSYM    DATA     BYTE      IP3
      000000F4H   SFRSYM    DATA     BYTE      USBCON
      000000B5H   SFRSYM    DATA     BYTE      IP2
      000000FFH   SFRSYM    DATA     BYTE      RSTCFG
      000000CEH.4 SFRSYM    DATA     BIT       MSTR
      000000E0H   SFRSYM    DATA     BYTE      ACC
      000000C7H   SFRSYM    DATA     BYTE      IAP_CONTR
      000000F9H   SFRSYM    DATA     BYTE      LINICR
      0000008EH   SFRSYM    DATA     BYTE      AUXR
      000000F0H   SFRSYM    DATA     BYTE      B
      000000AFH   SFRSYM    DATA     BYTE      IE2
      000000CEH.7 SFRSYM    DATA     BIT       SSIG
      000000CEH.6 SFRSYM    DATA     BIT       SPEN
      000000CDH.6 SFRSYM    DATA     BIT       WCOL
      00000088H   SFRSYM    DATA     BYTE      TCON
      00000089H   SFRSYM    DATA     BYTE      TMOD
      00000098H   SFRSYM    DATA     BYTE      SCON
      000000CDH.7 SFRSYM    DATA     BIT       SPIF
      000000F1H   SFRSYM    DATA     BYTE      CANICR
      00000087H   SFRSYM    DATA     BYTE      PCON
      000000BCH   SFRSYM    DATA     BYTE      ADC_CONTR
      000000CEH.3 SFRSYM    DATA     BIT       CPOL
      000000A0H.5 SFRSYM    DATA     BIT       SPI_SCK
      000000CEH.5 SFRSYM    DATA     BIT       DORD
      000000E7H   SFRSYM    DATA     BYTE      CMPCR2
      000000E6H   SFRSYM    DATA     BYTE      CMPCR1
      000000CEH.2 SFRSYM    DATA     BIT       CPHA
      000000DEH   SFRSYM    DATA     BYTE      ADCCFG
      000000B8H   SFRSYM    DATA     BYTE      IP
L251 LINKER/LOCATER V4.66.93.0                                                        03/15/2026  14:26:01  PAGE 23


      0000008FH   SFRSYM    DATA     BYTE      INTCLKO
      000000EEH   SFRSYM    DATA     BYTE      IP3H
      000000B6H   SFRSYM    DATA     BYTE      IP2H
      000000A8H   SFRSYM    DATA     BYTE      IE
      000000BBH   SFRSYM    DATA     BYTE      P_SW3
      000000BAH   SFRSYM    DATA     BYTE      P_SW2
      000000A2H   SFRSYM    DATA     BYTE      P_SW1
      000000CEH   SFRSYM    DATA     BYTE      SPCTL
      000000F8H   SFRSYM    DATA     BYTE      P7
      000000A0H.3 SFRSYM    DATA     BIT       SPI_MOSI
      000000E8H   SFRSYM    DATA     BYTE      P6
      000000C8H   SFRSYM    DATA     BYTE      P5
      000000C0H   SFRSYM    DATA     BYTE      P4
      000000B0H   SFRSYM    DATA     BYTE      P3
      000000A0H   SFRSYM    DATA     BYTE      P2
      00000090H   SFRSYM    DATA     BYTE      P1
      00000080H   SFRSYM    DATA     BYTE      P0

      00FF3508H   BLOCK     CODE     ---       LVL=0
      00FF3508H   LINE      CODE     ---       #26
      00FF3508H   LINE      CODE     ---       #29
      00FF3510H   LINE      CODE     ---       #30
      00FF3513H   LINE      CODE     ---       #31
      00FF3516H   LINE      CODE     ---       #32
      00FF3519H   LINE      CODE     ---       #33
      00FF351CH   LINE      CODE     ---       #34
      00FF351FH   LINE      CODE     ---       #35
      00FF3522H   LINE      CODE     ---       #36
      00FF352AH   LINE      CODE     ---       #37
      00FF352CH   LINE      CODE     ---       #38
      00FF352EH   LINE      CODE     ---       #39
      00FF3531H   LINE      CODE     ---       #40
      00FF3534H   LINE      CODE     ---       #62
      ---         BLOCKEND  ---      ---       LVL=0

      00FF378EH   BLOCK     CODE     ---       LVL=0
      R11         REGSYM    ---      BYTE      dat
      00FF378EH   LINE      CODE     ---       #67
      00FF378EH   LINE      CODE     ---       #69
      00FF3791H   LINE      CODE     ---       #70
      00FF3798H   LINE      CODE     ---       #71
      00FF379BH   LINE      CODE     ---       #72
      00FF379EH   LINE      CODE     ---       #73
      00FF37A1H   LINE      CODE     ---       #74
      ---         BLOCKEND  ---      ---       LVL=0

      00FF35FCH   BLOCK     CODE     ---       LVL=0
      REG=0       REGSYM    ---      ---       buf
      WR8         REGSYM    ---      WORD      len
      00FF35FEH   BLOCK     CODE     NEAR LAB  LVL=1
      WR6         REGSYM    ---      WORD      i
      ---         BLOCKEND  ---      ---       LVL=1
      00FF35FCH   LINE      CODE     ---       #79
      00FF35FEH   LINE      CODE     ---       #80
      00FF35FEH   LINE      CODE     ---       #96
      00FF3602H   LINE      CODE     ---       #98
      00FF360BH   LINE      CODE     ---       #99
      00FF3612H   LINE      CODE     ---       #100
      00FF3615H   LINE      CODE     ---       #101
      00FF3618H   LINE      CODE     ---       #102
      00FF361EH   LINE      CODE     ---       #104
      ---         BLOCKEND  ---      ---       LVL=0

      00FF0003H   BLOCK     CODE     ---       LVL=0
      00FF0003H   LINE      CODE     ---       #109
L251 LINKER/LOCATER V4.66.93.0                                                        03/15/2026  14:26:01  PAGE 24


      00FF0003H   LINE      CODE     ---       #114
      ---         BLOCKEND  ---      ---       LVL=0

      ---         MODULE    ---      ---       uart
      00FF3723H   PUBLIC    CODE     ---       UART1_SendStr
      00FF3739H   PUBLIC    CODE     ---       UART2_SendString
      00FF3535H   PUBLIC    CODE     ---       UART2_ReadByte
      00FF35B2H   PUBLIC    CODE     ---       UART1_Init
      00FF355FH   PUBLIC    CODE     ---       UART2_Init
      00FF37E1H   PUBLIC    CODE     ---       UART1_SendByte
      00FF32BDH   PUBLIC    CODE     ---       UART2_SendByte
      00FF361FH   PUBLIC    CODE     ---       Printf
      000001EFH   PUBLIC    EDATA    BYTE      uart2_rx_head
      000001F0H   PUBLIC    EDATA    BYTE      uart2_tx_head
      000001F1H   PUBLIC    EDATA    BYTE      uart2_rx_tail
      000001F2H   PUBLIC    EDATA    BYTE      uart2_tx_tail
      000001F3H   PUBLIC    EDATA    ---       uart2_rx_buf
      00000233H   PUBLIC    EDATA    ---       uart2_tx_buf
      00000020H.2 PUBLIC    BIT      BIT       uart2_tx_busy
      000000DDH   PUBLIC    EDATA    BYTE      ?Printf?BYTE
      000000D0H   SFRSYM    DATA     BYTE      PSW
      0000009DH   SFRSYM    DATA     BYTE      IRCBAND
      00000097H   SFRSYM    DATA     BYTE      AUXR2
      000000EFH   SFRSYM    DATA     BYTE      AUXINTIF
      000000FDH   SFRSYM    DATA     BYTE      S4CON
      000000ACH   SFRSYM    DATA     BYTE      S3CON
      0000009AH   SFRSYM    DATA     BYTE      S2CON
      0000009BH   SFRSYM    DATA     BYTE      S2BUF
      000000B7H   SFRSYM    DATA     BYTE      IPH
      000000CDH   SFRSYM    DATA     BYTE      SPSTAT
      000000DDH   SFRSYM    DATA     BYTE      T4T3M
      000000C1H   SFRSYM    DATA     BYTE      WDT_CONTR
      00000088H.6 SFRSYM    DATA     BIT       TR1
      000000D7H   SFRSYM    DATA     BYTE      T2L
      0000008BH   SFRSYM    DATA     BYTE      TL1
      000000D6H   SFRSYM    DATA     BYTE      T2H
      0000008DH   SFRSYM    DATA     BYTE      TH1
      000000DFH   SFRSYM    DATA     BYTE      IP3
      000000F4H   SFRSYM    DATA     BYTE      USBCON
      000000B5H   SFRSYM    DATA     BYTE      IP2
      000000FFH   SFRSYM    DATA     BYTE      RSTCFG
      000000E0H   SFRSYM    DATA     BYTE      ACC
      000000C7H   SFRSYM    DATA     BYTE      IAP_CONTR
      000000F9H   SFRSYM    DATA     BYTE      LINICR
      0000008EH   SFRSYM    DATA     BYTE      AUXR
      000000F0H   SFRSYM    DATA     BYTE      B
      000000AFH   SFRSYM    DATA     BYTE      IE2
      000000BAH.0 SFRSYM    DATA     BIT       S2_S
      00000088H   SFRSYM    DATA     BYTE      TCON
      00000089H   SFRSYM    DATA     BYTE      TMOD
      00000098H   SFRSYM    DATA     BYTE      SCON
      000000F1H   SFRSYM    DATA     BYTE      CANICR
      00000087H   SFRSYM    DATA     BYTE      PCON
      00000099H   SFRSYM    DATA     BYTE      SBUF
      000000BCH   SFRSYM    DATA     BYTE      ADC_CONTR
      000000E7H   SFRSYM    DATA     BYTE      CMPCR2
      000000E6H   SFRSYM    DATA     BYTE      CMPCR1
      00000098H.1 SFRSYM    DATA     BIT       TI
      000000DEH   SFRSYM    DATA     BYTE      ADCCFG
      000000B8H   SFRSYM    DATA     BYTE      IP
      000000A8H.4 SFRSYM    DATA     BIT       ES
      0000008FH   SFRSYM    DATA     BYTE      INTCLKO
      000000EEH   SFRSYM    DATA     BYTE      IP3H
      000000B6H   SFRSYM    DATA     BYTE      IP2H
      000000A8H   SFRSYM    DATA     BYTE      IE
L251 LINKER/LOCATER V4.66.93.0                                                        03/15/2026  14:26:01  PAGE 25


      000000BBH   SFRSYM    DATA     BYTE      P_SW3
      000000BAH   SFRSYM    DATA     BYTE      P_SW2
      000000A2H   SFRSYM    DATA     BYTE      P_SW1
      000000CEH   SFRSYM    DATA     BYTE      SPCTL
      000000F8H   SFRSYM    DATA     BYTE      P7
      000000A8H.7 SFRSYM    DATA     BIT       EA
      000000E8H   SFRSYM    DATA     BYTE      P6
      000000C8H   SFRSYM    DATA     BYTE      P5
      000000C0H   SFRSYM    DATA     BYTE      P4
      000000B0H   SFRSYM    DATA     BYTE      P3
      000000B3H   SFRSYM    DATA     BYTE      P4M1
      000000A0H   SFRSYM    DATA     BYTE      P2
      000000B1H   SFRSYM    DATA     BYTE      P3M1
      000000B4H   SFRSYM    DATA     BYTE      P4M0
      00000090H   SFRSYM    DATA     BYTE      P1
      000000B2H   SFRSYM    DATA     BYTE      P3M0
      00000080H   SFRSYM    DATA     BYTE      P0

      00FF35B2H   BLOCK     CODE     ---       LVL=0
      00FF35B2H   LINE      CODE     ---       #20
      00FF35B2H   LINE      CODE     ---       #23
      00FF35B5H   LINE      CODE     ---       #24
      00FF35B8H   LINE      CODE     ---       #29
      00FF35BBH   LINE      CODE     ---       #30
      00FF35BEH   LINE      CODE     ---       #33
      00FF35C1H   LINE      CODE     ---       #38
      00FF35C4H   LINE      CODE     ---       #39
      00FF35C7H   LINE      CODE     ---       #41
      00FF35CAH   LINE      CODE     ---       #45
      00FF35CDH   LINE      CODE     ---       #46
      00FF35D0H   LINE      CODE     ---       #49
      00FF35D2H   LINE      CODE     ---       #52
      00FF35D4H   LINE      CODE     ---       #53
      00FF35D6H   LINE      CODE     ---       #54
      ---         BLOCKEND  ---      ---       LVL=0

      00FF355FH   BLOCK     CODE     ---       LVL=0
      00FF355FH   LINE      CODE     ---       #58
      00FF355FH   LINE      CODE     ---       #61
      00FF3562H   LINE      CODE     ---       #62
      00FF3565H   LINE      CODE     ---       #63
      00FF3568H   LINE      CODE     ---       #64
      00FF356BH   LINE      CODE     ---       #69
      00FF356EH   LINE      CODE     ---       #72
      00FF3571H   LINE      CODE     ---       #75
      00FF3574H   LINE      CODE     ---       #76
      00FF3577H   LINE      CODE     ---       #79
      00FF357AH   LINE      CODE     ---       #80
      00FF357DH   LINE      CODE     ---       #84
      00FF3580H   LINE      CODE     ---       #86
      00FF3583H   LINE      CODE     ---       #89
      00FF3586H   LINE      CODE     ---       #90
      00FF3588H   LINE      CODE     ---       #91
      ---         BLOCKEND  ---      ---       LVL=0

      00FF37E1H   BLOCK     CODE     ---       LVL=0
      R11         REGSYM    ---      BYTE      dat
      00FF37E1H   LINE      CODE     ---       #94
      00FF37E1H   LINE      CODE     ---       #96
      00FF37E4H   LINE      CODE     ---       #97
      00FF37E7H   LINE      CODE     ---       #98
      00FF37E9H   LINE      CODE     ---       #99
      ---         BLOCKEND  ---      ---       LVL=0

      00FF3723H   BLOCK     CODE     ---       LVL=0
L251 LINKER/LOCATER V4.66.93.0                                                        03/15/2026  14:26:01  PAGE 26


      REG=3       REGSYM    ---      ---       str
      00FF3723H   LINE      CODE     ---       #101
      00FF3727H   LINE      CODE     ---       #103
      00FF3736H   LINE      CODE     ---       #105
      ---         BLOCKEND  ---      ---       LVL=0

      00FF32BDH   BLOCK     CODE     ---       LVL=0
      R10         REGSYM    ---      BYTE      dat
      00FF32BFH   BLOCK     CODE     NEAR LAB  LVL=1
      R7          REGSYM    ---      BYTE      next
      ---         BLOCKEND  ---      ---       LVL=1
      00FF32BDH   LINE      CODE     ---       #107
      00FF32BFH   LINE      CODE     ---       #108
      00FF32BFH   LINE      CODE     ---       #110
      00FF32D0H   LINE      CODE     ---       #111
      00FF32D8H   LINE      CODE     ---       #113
      00FF32E2H   LINE      CODE     ---       #114
      00FF32E6H   LINE      CODE     ---       #117
      00FF32E9H   LINE      CODE     ---       #119
      00FF32EBH   LINE      CODE     ---       #120
      00FF32F3H   LINE      CODE     ---       #121
      00FF3300H   LINE      CODE     ---       #122
      ---         BLOCKEND  ---      ---       LVL=0

      00FF3739H   BLOCK     CODE     ---       LVL=0
      REG=3       REGSYM    ---      ---       str
      00FF3739H   LINE      CODE     ---       #125
      00FF373DH   LINE      CODE     ---       #127
      00FF374CH   LINE      CODE     ---       #129
      ---         BLOCKEND  ---      ---       LVL=0

      00FF3535H   BLOCK     CODE     ---       LVL=0
      REG=2       REGSYM    ---      ---       dat
      00FF3535H   LINE      CODE     ---       #134
      00FF3537H   LINE      CODE     ---       #136
      00FF3541H   LINE      CODE     ---       #137
      00FF3543H   LINE      CODE     ---       #139
      00FF354CH   LINE      CODE     ---       #140
      00FF355DH   LINE      CODE     ---       #141
      00FF355EH   LINE      CODE     ---       #142
      ---         BLOCKEND  ---      ---       LVL=0

      00FF361FH   BLOCK     CODE     ---       LVL=0
      000000DDH   SYMBOL    EDATA    ---       fmt
      00FF3623H   BLOCK     CODE     NEAR LAB  LVL=1
      000000E1H   SYMBOL    EDATA    ---       buf
      REG=1       REGSYM    ---      ---       args
      ---         BLOCKEND  ---      ---       LVL=1
      00FF361FH   LINE      CODE     ---       #145
      00FF3623H   LINE      CODE     ---       #146
      00FF3623H   LINE      CODE     ---       #151
      00FF362BH   LINE      CODE     ---       #152
      00FF363AH   LINE      CODE     ---       #155
      ---         BLOCKEND  ---      ---       LVL=0

      ---         MODULE    ---      ---       timer
      00FF33C8H   PUBLIC    CODE     ---       Encoder_Read
      00FF3779H   PUBLIC    CODE     ---       Timer0_Init
      00FF35D7H   PUBLIC    CODE     ---       PWM_SetDuty
      00FF2E5DH   PUBLIC    CODE     ---       PWMB_Encoder_Init
      00FF2CA9H   PUBLIC    CODE     ---       PWM_Init
      000000D0H   SFRSYM    DATA     BYTE      PSW
      000000BAH.7 SFRSYM    DATA     BIT       EAXFR
      0000009DH   SFRSYM    DATA     BYTE      IRCBAND
      00000097H   SFRSYM    DATA     BYTE      AUXR2
L251 LINKER/LOCATER V4.66.93.0                                                        03/15/2026  14:26:01  PAGE 27


      000000EFH   SFRSYM    DATA     BYTE      AUXINTIF
      000000FDH   SFRSYM    DATA     BYTE      S4CON
      000000ACH   SFRSYM    DATA     BYTE      S3CON
      0000009AH   SFRSYM    DATA     BYTE      S2CON
      000000B7H   SFRSYM    DATA     BYTE      IPH
      000000CDH   SFRSYM    DATA     BYTE      SPSTAT
      000000DDH   SFRSYM    DATA     BYTE      T4T3M
      000000C1H   SFRSYM    DATA     BYTE      WDT_CONTR
      00000088H.4 SFRSYM    DATA     BIT       TR0
      0000008AH   SFRSYM    DATA     BYTE      TL0
      0000008CH   SFRSYM    DATA     BYTE      TH0
      000000DFH   SFRSYM    DATA     BYTE      IP3
      000000F4H   SFRSYM    DATA     BYTE      USBCON
      000000B5H   SFRSYM    DATA     BYTE      IP2
      000000FFH   SFRSYM    DATA     BYTE      RSTCFG
      00000088H.5 SFRSYM    DATA     BIT       TF0
      000000A8H.1 SFRSYM    DATA     BIT       ET0
      000000E0H   SFRSYM    DATA     BYTE      ACC
      000000C7H   SFRSYM    DATA     BYTE      IAP_CONTR
      000000F9H   SFRSYM    DATA     BYTE      LINICR
      0000008EH   SFRSYM    DATA     BYTE      AUXR
      000000F0H   SFRSYM    DATA     BYTE      B
      000000AFH   SFRSYM    DATA     BYTE      IE2
      00000088H   SFRSYM    DATA     BYTE      TCON
      00000089H   SFRSYM    DATA     BYTE      TMOD
      00000098H   SFRSYM    DATA     BYTE      SCON
      000000F1H   SFRSYM    DATA     BYTE      CANICR
      00000087H   SFRSYM    DATA     BYTE      PCON
      000000BCH   SFRSYM    DATA     BYTE      ADC_CONTR
      000000E7H   SFRSYM    DATA     BYTE      CMPCR2
      000000E6H   SFRSYM    DATA     BYTE      CMPCR1
      000000DEH   SFRSYM    DATA     BYTE      ADCCFG
      000000B8H   SFRSYM    DATA     BYTE      IP
      0000008FH   SFRSYM    DATA     BYTE      INTCLKO
      000000EEH   SFRSYM    DATA     BYTE      IP3H
      000000B6H   SFRSYM    DATA     BYTE      IP2H
      000000A8H   SFRSYM    DATA     BYTE      IE
      000000BBH   SFRSYM    DATA     BYTE      P_SW3
      000000BAH   SFRSYM    DATA     BYTE      P_SW2
      000000A2H   SFRSYM    DATA     BYTE      P_SW1
      000000CEH   SFRSYM    DATA     BYTE      SPCTL
      000000F8H   SFRSYM    DATA     BYTE      P7
      000000A8H.7 SFRSYM    DATA     BIT       EA
      000000E8H   SFRSYM    DATA     BYTE      P6
      000000C8H   SFRSYM    DATA     BYTE      P5
      000000C0H   SFRSYM    DATA     BYTE      P4
      000000B0H   SFRSYM    DATA     BYTE      P3
      000000A0H   SFRSYM    DATA     BYTE      P2
      00000090H   SFRSYM    DATA     BYTE      P1
      00000080H   SFRSYM    DATA     BYTE      P0
      00000091H   SFRSYM    DATA     BYTE      P1M1
      00000092H   SFRSYM    DATA     BYTE      P1M0

      00FF3779H   BLOCK     CODE     ---       LVL=0
      00FF3779H   LINE      CODE     ---       #4
      00FF3779H   LINE      CODE     ---       #8
      00FF377CH   LINE      CODE     ---       #11
      00FF377FH   LINE      CODE     ---       #14
      00FF3782H   LINE      CODE     ---       #15
      00FF3785H   LINE      CODE     ---       #18
      00FF3787H   LINE      CODE     ---       #19
      00FF3789H   LINE      CODE     ---       #20
      00FF378BH   LINE      CODE     ---       #23
      00FF378DH   LINE      CODE     ---       #24
      ---         BLOCKEND  ---      ---       LVL=0
L251 LINKER/LOCATER V4.66.93.0                                                        03/15/2026  14:26:01  PAGE 28



      00FF2CA9H   BLOCK     CODE     ---       LVL=0
      00FF2CA9H   LINE      CODE     ---       #27
      00FF2CA9H   LINE      CODE     ---       #29
      00FF2CACH   LINE      CODE     ---       #32
      00FF2CAFH   LINE      CODE     ---       #33
      00FF2CB2H   LINE      CODE     ---       #37
      00FF2CC2H   LINE      CODE     ---       #46
      00FF2CCBH   LINE      CODE     ---       #50
      00FF2CD7H   LINE      CODE     ---       #53
      00FF2CDEH   LINE      CODE     ---       #54
      00FF2CE5H   LINE      CODE     ---       #63
      00FF2CEEH   LINE      CODE     ---       #64
      00FF2CF7H   LINE      CODE     ---       #71
      00FF2D00H   LINE      CODE     ---       #74
      00FF2D09H   LINE      CODE     ---       #75
      00FF2D12H   LINE      CODE     ---       #82
      00FF2D1BH   LINE      CODE     ---       #89
      00FF2D24H   LINE      CODE     ---       #94
      00FF2D2DH   LINE      CODE     ---       #99
      00FF2D35H   LINE      CODE     ---       #103
      00FF2D3DH   LINE      CODE     ---       #106
      00FF2D46H   LINE      CODE     ---       #108
      00FF2D49H   LINE      CODE     ---       #109
      ---         BLOCKEND  ---      ---       LVL=0

      00FF35D7H   BLOCK     CODE     ---       LVL=0
      WR0         REGSYM    ---      WORD      duty
      00FF35D7H   LINE      CODE     ---       #115
      00FF35D9H   LINE      CODE     ---       #117
      00FF35E3H   LINE      CODE     ---       #118
      00FF35E6H   LINE      CODE     ---       #119
      00FF35F1H   LINE      CODE     ---       #120
      00FF35F8H   LINE      CODE     ---       #121
      00FF35FBH   LINE      CODE     ---       #122
      ---         BLOCKEND  ---      ---       LVL=0

      00FF2E5DH   BLOCK     CODE     ---       LVL=0
      00FF2E5DH   LINE      CODE     ---       #124
      00FF2E5DH   LINE      CODE     ---       #126
      00FF2E60H   LINE      CODE     ---       #127
      00FF2E63H   LINE      CODE     ---       #129
      00FF2E6FH   LINE      CODE     ---       #130
      00FF2E76H   LINE      CODE     ---       #133
      00FF2E7DH   LINE      CODE     ---       #134
      00FF2E84H   LINE      CODE     ---       #137
      00FF2E8DH   LINE      CODE     ---       #138
      00FF2E94H   LINE      CODE     ---       #141
      00FF2E9CH   LINE      CODE     ---       #142
      00FF2EA3H   LINE      CODE     ---       #147
      00FF2EACH   LINE      CODE     ---       #151
      00FF2EB3H   LINE      CODE     ---       #155
      00FF2EBCH   LINE      CODE     ---       #162
      00FF2EC5H   LINE      CODE     ---       #163
      00FF2ECCH   LINE      CODE     ---       #166
      00FF2ED4H   LINE      CODE     ---       #169
      00FF2EDDH   LINE      CODE     ---       #171
      00FF2EE0H   LINE      CODE     ---       #172
      00FF2EE3H   LINE      CODE     ---       #173
      ---         BLOCKEND  ---      ---       LVL=0

      00FF33C8H   BLOCK     CODE     ---       LVL=0
      WR10        REGSYM    ---      INT       cnt
      WR8         REGSYM    ---      WORD      raw
      00FF33C8H   LINE      CODE     ---       #175
L251 LINKER/LOCATER V4.66.93.0                                                        03/15/2026  14:26:01  PAGE 29


      00FF33C8H   LINE      CODE     ---       #176
      00FF33C8H   LINE      CODE     ---       #180
      00FF33CBH   LINE      CODE     ---       #181
      00FF33DAH   LINE      CODE     ---       #182
      00FF33E5H   LINE      CODE     ---       #183
      00FF33E8H   LINE      CODE     ---       #187
      00FF33F0H   LINE      CODE     ---       #188
      00FF3400H   LINE      CODE     ---       #189
      00FF3402H   LINE      CODE     ---       #190
      00FF3404H   LINE      CODE     ---       #191
      00FF3404H   LINE      CODE     ---       #193
      00FF3406H   LINE      CODE     ---       #194
      ---         BLOCKEND  ---      ---       LVL=0

      ---         MODULE    ---      ---       rs485
      00FF3301H   PUBLIC    CODE     ---       Modbus_RxByte
      00FF34D7H   PUBLIC    CODE     ---       Modbus_TimerTick
      00FF37B6H   PUBLIC    CODE     ---       Modbus_Init
      00FF37A2H   PUBLIC    CODE     ---       Modbus_Poll
      000001CAH   PUBLIC    EDATA    BYTE      modbus_coils
      000001CCH   PUBLIC    EDATA    ---       modbus_regs
      000000D0H   SFRSYM    DATA     BYTE      PSW
      0000009DH   SFRSYM    DATA     BYTE      IRCBAND
      00000097H   SFRSYM    DATA     BYTE      AUXR2
      000000EFH   SFRSYM    DATA     BYTE      AUXINTIF
      000000FDH   SFRSYM    DATA     BYTE      S4CON
      000000ACH   SFRSYM    DATA     BYTE      S3CON
      0000009AH   SFRSYM    DATA     BYTE      S2CON
      000000B7H   SFRSYM    DATA     BYTE      IPH
      000000CDH   SFRSYM    DATA     BYTE      SPSTAT
      000000DDH   SFRSYM    DATA     BYTE      T4T3M
      000000C1H   SFRSYM    DATA     BYTE      WDT_CONTR
      000000DFH   SFRSYM    DATA     BYTE      IP3
      000000F4H   SFRSYM    DATA     BYTE      USBCON
      000000B5H   SFRSYM    DATA     BYTE      IP2
      000000FFH   SFRSYM    DATA     BYTE      RSTCFG
      000000E0H   SFRSYM    DATA     BYTE      ACC
      000000C7H   SFRSYM    DATA     BYTE      IAP_CONTR
      000000F9H   SFRSYM    DATA     BYTE      LINICR
      0000008EH   SFRSYM    DATA     BYTE      AUXR
      000000F0H   SFRSYM    DATA     BYTE      B
      000000AFH   SFRSYM    DATA     BYTE      IE2
      00000088H   SFRSYM    DATA     BYTE      TCON
      00000089H   SFRSYM    DATA     BYTE      TMOD
      00000098H   SFRSYM    DATA     BYTE      SCON
      000000F1H   SFRSYM    DATA     BYTE      CANICR
      00000087H   SFRSYM    DATA     BYTE      PCON
      000000BCH   SFRSYM    DATA     BYTE      ADC_CONTR
      000000E7H   SFRSYM    DATA     BYTE      CMPCR2
      000000E6H   SFRSYM    DATA     BYTE      CMPCR1
      000000DEH   SFRSYM    DATA     BYTE      ADCCFG
      000000B8H   SFRSYM    DATA     BYTE      IP
      0000008FH   SFRSYM    DATA     BYTE      INTCLKO
      000000EEH   SFRSYM    DATA     BYTE      IP3H
      000000B6H   SFRSYM    DATA     BYTE      IP2H
      000000A8H   SFRSYM    DATA     BYTE      IE
      000000BBH   SFRSYM    DATA     BYTE      P_SW3
      000000BAH   SFRSYM    DATA     BYTE      P_SW2
      000000A2H   SFRSYM    DATA     BYTE      P_SW1
      000000CEH   SFRSYM    DATA     BYTE      SPCTL
      000000F8H   SFRSYM    DATA     BYTE      P7
      000000E8H   SFRSYM    DATA     BYTE      P6
      000000C8H   SFRSYM    DATA     BYTE      P5
      000000C0H   SFRSYM    DATA     BYTE      P4
      000000B0H   SFRSYM    DATA     BYTE      P3
L251 LINKER/LOCATER V4.66.93.0                                                        03/15/2026  14:26:01  PAGE 30


      000000A0H   SFRSYM    DATA     BYTE      P2
      00000090H   SFRSYM    DATA     BYTE      P1
      00000080H   SFRSYM    DATA     BYTE      P0
      00FF014DH   SYMBOL    CODE     ---       CRC16
      00FF36D7H   SYMBOL    CODE     ---       SendException
      00FF2252H   SYMBOL    CODE     ---       ProcessFrame
      00FF3407H   SYMBOL    CODE     ---       SendResponse
      00000149H   SYMBOL    EDATA    ---       rx_buf
      00000189H   SYMBOL    EDATA    ---       tx_buf
      000001C9H   SYMBOL    EDATA    BYTE      rx_len
      000001CBH   SYMBOL    EDATA    BYTE      tx_len
      000001ECH   SYMBOL    EDATA    BYTE      timeout_cnt
      000001EDH   SYMBOL    EDATA    BYTE      rx_active
      000001EEH   SYMBOL    EDATA    BYTE      rx_done

      00FF014DH   BLOCK     CODE     ---       LVL=0
      REG=7       REGSYM    ---      ---       buf
      R10         REGSYM    ---      BYTE      len
      00FF0151H   BLOCK     CODE     NEAR LAB  LVL=1
      WR6         REGSYM    ---      WORD      crc
      R5          REGSYM    ---      BYTE      i
      R4          REGSYM    ---      BYTE      j
      ---         BLOCKEND  ---      ---       LVL=1
      00FF014DH   LINE      CODE     ---       #40
      00FF0151H   LINE      CODE     ---       #41
      00FF0151H   LINE      CODE     ---       #42
      00FF0155H   LINE      CODE     ---       #45
      00FF0159H   LINE      CODE     ---       #47
      00FF0166H   LINE      CODE     ---       #48
      00FF0168H   LINE      CODE     ---       #50
      00FF0170H   LINE      CODE     ---       #51
      00FF0178H   LINE      CODE     ---       #53
      00FF017AH   LINE      CODE     ---       #54
      00FF0180H   LINE      CODE     ---       #55
      00FF0186H   LINE      CODE     ---       #56
      00FF0186H   LINE      CODE     ---       #57
      ---         BLOCKEND  ---      ---       LVL=0

      00FF3407H   BLOCK     CODE     ---       LVL=0
      R15         REGSYM    ---      BYTE      len
      00FF3409H   BLOCK     CODE     NEAR LAB  LVL=1
      WR6         REGSYM    ---      WORD      crc
      R15         REGSYM    ---      BYTE      i
      ---         BLOCKEND  ---      ---       LVL=1
      00FF3407H   LINE      CODE     ---       #62
      00FF3409H   LINE      CODE     ---       #63
      00FF3409H   LINE      CODE     ---       #67
      00FF3410H   LINE      CODE     ---       #68
      00FF3416H   LINE      CODE     ---       #69
      00FF341CH   LINE      CODE     ---       #70
      00FF3424H   LINE      CODE     ---       #73
      00FF3428H   LINE      CODE     ---       #74
      00FF343BH   LINE      CODE     ---       #75
      00FF343BH   LINE      CODE     ---       #76
      ---         BLOCKEND  ---      ---       LVL=0

      00FF36D7H   BLOCK     CODE     ---       LVL=0
      R7          REGSYM    ---      BYTE      func
      R10         REGSYM    ---      BYTE      ex_code
      00FF36D7H   LINE      CODE     ---       #81
      00FF36DBH   LINE      CODE     ---       #83
      00FF36E1H   LINE      CODE     ---       #84
      00FF36E9H   LINE      CODE     ---       #85
      00FF36EDH   LINE      CODE     ---       #86
      ---         BLOCKEND  ---      ---       LVL=0
L251 LINKER/LOCATER V4.66.93.0                                                        03/15/2026  14:26:01  PAGE 31



      00FF2252H   BLOCK     CODE     ---       LVL=0
      00FF2254H   BLOCK     CODE     NEAR LAB  LVL=1
      000000B5H   SYMBOL    EDATA    WORD      crc_recv
      WR6         REGSYM    ---      WORD      crc_calc
      R10         REGSYM    ---      BYTE      func
      WR8         REGSYM    ---      WORD      start_addr
      WR6         REGSYM    ---      WORD      quantity
      R13         REGSYM    ---      BYTE      byte_cnt
      WR14        REGSYM    ---      WORD      i
      R11         REGSYM    ---      BYTE      coil_val
      ---         BLOCKEND  ---      ---       LVL=1
      00FF2252H   LINE      CODE     ---       #92
      00FF2254H   LINE      CODE     ---       #93
      00FF2254H   LINE      CODE     ---       #102
      00FF2260H   LINE      CODE     ---       #103
      00FF2260H   LINE      CODE     ---       #106
      00FF226CH   LINE      CODE     ---       #107
      00FF226CH   LINE      CODE     ---       #110
      00FF227CH   LINE      CODE     ---       #111
      00FF228BH   LINE      CODE     ---       #112
      00FF2294H   LINE      CODE     ---       #113
      00FF2294H   LINE      CODE     ---       #115
      00FF2298H   LINE      CODE     ---       #116
      00FF22A8H   LINE      CODE     ---       #117
      00FF22B8H   LINE      CODE     ---       #120
      00FF22DCH   LINE      CODE     ---       #127
      00FF22DCH   LINE      CODE     ---       #128
      00FF22EBH   LINE      CODE     ---       #130
      00FF22EBH   LINE      CODE     ---       #131
      00FF22EEH   LINE      CODE     ---       #132
      00FF22EEH   LINE      CODE     ---       #133
      00FF22F8H   LINE      CODE     ---       #135
      00FF22F8H   LINE      CODE     ---       #136
      00FF22FBH   LINE      CODE     ---       #137
      00FF22FBH   LINE      CODE     ---       #138
      00FF2307H   LINE      CODE     ---       #139
      00FF230DH   LINE      CODE     ---       #140
      00FF2311H   LINE      CODE     ---       #141
      00FF2315H   LINE      CODE     ---       #143
      00FF2319H   LINE      CODE     ---       #144
      00FF233CH   LINE      CODE     ---       #145
      00FF233EH   LINE      CODE     ---       #146
      00FF2340H   LINE      CODE     ---       #151
      00FF2340H   LINE      CODE     ---       #152
      00FF234FH   LINE      CODE     ---       #154
      00FF234FH   LINE      CODE     ---       #155
      00FF2352H   LINE      CODE     ---       #156
      00FF2352H   LINE      CODE     ---       #157
      00FF235CH   LINE      CODE     ---       #159
      00FF235CH   LINE      CODE     ---       #160
      00FF235FH   LINE      CODE     ---       #161
      00FF235FH   LINE      CODE     ---       #162
      00FF2363H   LINE      CODE     ---       #163
      00FF2369H   LINE      CODE     ---       #164
      00FF236FH   LINE      CODE     ---       #165
      00FF2373H   LINE      CODE     ---       #166
      00FF2377H   LINE      CODE     ---       #168
      00FF2389H   LINE      CODE     ---       #169
      00FF238DH   LINE      CODE     ---       #170
      00FF2393H   LINE      CODE     ---       #171
      00FF2399H   LINE      CODE     ---       #172
      00FF239CH   LINE      CODE     ---       #178
      00FF239CH   LINE      CODE     ---       #179
      00FF23A2H   LINE      CODE     ---       #181
L251 LINKER/LOCATER V4.66.93.0                                                        03/15/2026  14:26:01  PAGE 32


      00FF23A2H   LINE      CODE     ---       #182
      00FF23A5H   LINE      CODE     ---       #183
      00FF23A5H   LINE      CODE     ---       #184
      00FF23B1H   LINE      CODE     ---       #185
      00FF23B3H   LINE      CODE     ---       #186
      00FF23C6H   LINE      CODE     ---       #188
      00FF23DEH   LINE      CODE     ---       #191
      00FF23E6H   LINE      CODE     ---       #192
      00FF23EEH   LINE      CODE     ---       #193
      00FF23F6H   LINE      CODE     ---       #194
      00FF23FEH   LINE      CODE     ---       #195
      00FF2406H   LINE      CODE     ---       #196
      00FF240EH   LINE      CODE     ---       #197
      00FF2410H   LINE      CODE     ---       #198
      00FF2413H   LINE      CODE     ---       #203
      00FF2413H   LINE      CODE     ---       #204
      00FF2419H   LINE      CODE     ---       #206
      00FF2419H   LINE      CODE     ---       #207
      00FF241BH   LINE      CODE     ---       #208
      00FF241BH   LINE      CODE     ---       #209
      00FF2423H   LINE      CODE     ---       #210
      00FF242BH   LINE      CODE     ---       #211
      00FF2433H   LINE      CODE     ---       #212
      00FF243BH   LINE      CODE     ---       #213
      00FF2443H   LINE      CODE     ---       #214
      00FF244BH   LINE      CODE     ---       #215
      00FF2453H   LINE      CODE     ---       #216
      00FF2455H   LINE      CODE     ---       #217
      00FF2458H   LINE      CODE     ---       #223
      00FF2458H   LINE      CODE     ---       #224
      00FF2464H   LINE      CODE     ---       #226
      00FF2464H   LINE      CODE     ---       #227
      00FF2466H   LINE      CODE     ---       #228
      00FF2466H   LINE      CODE     ---       #229
      00FF2470H   LINE      CODE     ---       #231
      00FF2475H   LINE      CODE     ---       #232
      00FF2477H   LINE      CODE     ---       #233
      00FF2477H   LINE      CODE     ---       #234
      00FF247BH   LINE      CODE     ---       #235
      00FF2485H   LINE      CODE     ---       #237
      00FF248AH   LINE      CODE     ---       #238
      00FF248CH   LINE      CODE     ---       #239
      00FF248CH   LINE      CODE     ---       #240
      00FF2490H   LINE      CODE     ---       #243
      00FF24AEH   LINE      CODE     ---       #244
      00FF24B4H   LINE      CODE     ---       #245
      00FF24BAH   LINE      CODE     ---       #246
      00FF24C0H   LINE      CODE     ---       #247
      00FF24C8H   LINE      CODE     ---       #248
      00FF24D0H   LINE      CODE     ---       #249
      00FF24D8H   LINE      CODE     ---       #250
      00FF24E0H   LINE      CODE     ---       #251
      00FF24E5H   LINE      CODE     ---       #252
      00FF24E7H   LINE      CODE     ---       #257
      00FF24E7H   LINE      CODE     ---       #258
      00FF24EFH   LINE      CODE     ---       #259
      00FF24EFH   LINE      CODE     ---       #260
      00FF24EFH   LINE      CODE     ---       #261
      ---         BLOCKEND  ---      ---       LVL=0

      00FF37B6H   BLOCK     CODE     ---       LVL=0
      00FF37B6H   LINE      CODE     ---       #267
      00FF37B6H   LINE      CODE     ---       #270
      00FF37BBH   LINE      CODE     ---       #271
      00FF37BFH   LINE      CODE     ---       #272
L251 LINKER/LOCATER V4.66.93.0                                                        03/15/2026  14:26:01  PAGE 33


      00FF37C3H   LINE      CODE     ---       #273
      00FF37C7H   LINE      CODE     ---       #274
      ---         BLOCKEND  ---      ---       LVL=0

      00FF34D7H   BLOCK     CODE     ---       LVL=0
      00FF34D7H   LINE      CODE     ---       #279
      00FF34D7H   LINE      CODE     ---       #281
      00FF34DDH   LINE      CODE     ---       #283
      00FF34E6H   LINE      CODE     ---       #284
      00FF34EFH   LINE      CODE     ---       #287
      00FF34F4H   LINE      CODE     ---       #288
      00FF34F8H   LINE      CODE     ---       #289
      00FF3501H   LINE      CODE     ---       #290
      00FF3507H   LINE      CODE     ---       #291
      00FF3507H   LINE      CODE     ---       #292
      00FF3507H   LINE      CODE     ---       #293
      ---         BLOCKEND  ---      ---       LVL=0

      00FF3301H   BLOCK     CODE     ---       LVL=0
      R10         REGSYM    ---      BYTE      dat
      00FF3301H   LINE      CODE     ---       #298
      00FF3303H   LINE      CODE     ---       #301
      00FF3308H   LINE      CODE     ---       #302
      00FF330EH   LINE      CODE     ---       #304
      00FF3317H   LINE      CODE     ---       #305
      00FF3328H   LINE      CODE     ---       #306
      ---         BLOCKEND  ---      ---       LVL=0

      00FF37A2H   BLOCK     CODE     ---       LVL=0
      00FF37A2H   LINE      CODE     ---       #314
      00FF37A2H   LINE      CODE     ---       #316
      00FF37A8H   LINE      CODE     ---       #317
      00FF37A8H   LINE      CODE     ---       #319
      00FF37ADH   LINE      CODE     ---       #320
      00FF37B0H   LINE      CODE     ---       #321
      00FF37B5H   LINE      CODE     ---       #322
      ---         BLOCKEND  ---      ---       LVL=0

      ---         MODULE    ---      ---       isr

      00FF018BH   BLOCK     CODE     NEAR LAB  LVL=0
      00FF018BH   LINE      CODE     ---       #7
      ---         BLOCKEND  ---      ---       LVL=0

      ---         MODULE    ---      ---       key
      00FF3641H   PUBLIC    CODE     ---       Key_Scan
      00FF2FE9H   PUBLIC    CODE     ---       Key_Init
      00FF343EH   PUBLIC    CODE     ---       Key_IsPressed
      00FF3682H   PUBLIC    CODE     ---       Key_GetEvent
      00FF264DH   PUBLIC    CODE     ---       Key_HandleEvent
      00FF3662H   PUBLIC    CODE     ---       Key_ClearEvent
      00000276H   PUBLIC    EDATA    ---       key1
      00000283H   PUBLIC    EDATA    ---       key2
      00000290H   PUBLIC    EDATA    ---       key3
      000000D0H   SFRSYM    DATA     BYTE      PSW
      0000009DH   SFRSYM    DATA     BYTE      IRCBAND
      00000097H   SFRSYM    DATA     BYTE      AUXR2
      000000EFH   SFRSYM    DATA     BYTE      AUXINTIF
      000000FDH   SFRSYM    DATA     BYTE      S4CON
      000000ACH   SFRSYM    DATA     BYTE      S3CON
      0000009AH   SFRSYM    DATA     BYTE      S2CON
      000000C0H.2 SFRSYM    DATA     BIT       KEY3_PIN
      000000C0H.3 SFRSYM    DATA     BIT       KEY2_PIN
      000000C0H.4 SFRSYM    DATA     BIT       KEY1_PIN
      000000B7H   SFRSYM    DATA     BYTE      IPH
L251 LINKER/LOCATER V4.66.93.0                                                        03/15/2026  14:26:01  PAGE 34


      000000CDH   SFRSYM    DATA     BYTE      SPSTAT
      000000DDH   SFRSYM    DATA     BYTE      T4T3M
      000000C1H   SFRSYM    DATA     BYTE      WDT_CONTR
      000000DFH   SFRSYM    DATA     BYTE      IP3
      000000F4H   SFRSYM    DATA     BYTE      USBCON
      000000B5H   SFRSYM    DATA     BYTE      IP2
      000000FFH   SFRSYM    DATA     BYTE      RSTCFG
      000000E0H   SFRSYM    DATA     BYTE      ACC
      000000C7H   SFRSYM    DATA     BYTE      IAP_CONTR
      000000F9H   SFRSYM    DATA     BYTE      LINICR
      0000008EH   SFRSYM    DATA     BYTE      AUXR
      000000F0H   SFRSYM    DATA     BYTE      B
      000000AFH   SFRSYM    DATA     BYTE      IE2
      00000088H   SFRSYM    DATA     BYTE      TCON
      00000089H   SFRSYM    DATA     BYTE      TMOD
      00000098H   SFRSYM    DATA     BYTE      SCON
      000000F1H   SFRSYM    DATA     BYTE      CANICR
      00000087H   SFRSYM    DATA     BYTE      PCON
      000000BCH   SFRSYM    DATA     BYTE      ADC_CONTR
      000000E7H   SFRSYM    DATA     BYTE      CMPCR2
      000000E6H   SFRSYM    DATA     BYTE      CMPCR1
      000000DEH   SFRSYM    DATA     BYTE      ADCCFG
      000000B8H   SFRSYM    DATA     BYTE      IP
      0000008FH   SFRSYM    DATA     BYTE      INTCLKO
      000000EEH   SFRSYM    DATA     BYTE      IP3H
      000000B6H   SFRSYM    DATA     BYTE      IP2H
      000000A8H   SFRSYM    DATA     BYTE      IE
      000000BBH   SFRSYM    DATA     BYTE      P_SW3
      000000BAH   SFRSYM    DATA     BYTE      P_SW2
      000000A2H   SFRSYM    DATA     BYTE      P_SW1
      000000CEH   SFRSYM    DATA     BYTE      SPCTL
      000000F8H   SFRSYM    DATA     BYTE      P7
      000000E8H   SFRSYM    DATA     BYTE      P6
      000000C8H   SFRSYM    DATA     BYTE      P5
      000000C0H   SFRSYM    DATA     BYTE      P4
      000000B0H   SFRSYM    DATA     BYTE      P3
      000000A0H   SFRSYM    DATA     BYTE      P2
      00000090H   SFRSYM    DATA     BYTE      P1
      00000080H   SFRSYM    DATA     BYTE      P0
      00FF24F2H   SYMBOL    CODE     ---       Key_ScanSingle
      00000273H   SYMBOL    EDATA    BYTE      last_event1
      00000274H   SYMBOL    EDATA    BYTE      last_event2
      00000275H   SYMBOL    EDATA    BYTE      last_event3

      00FF2FE9H   BLOCK     CODE     ---       LVL=0
      00FF2FE9H   LINE      CODE     ---       #18
      00FF2FE9H   LINE      CODE     ---       #25
      00FF2FEFH   LINE      CODE     ---       #26
      00FF2FF4H   LINE      CODE     ---       #27
      00FF2FF8H   LINE      CODE     ---       #28
      00FF2FFEH   LINE      CODE     ---       #29
      00FF3002H   LINE      CODE     ---       #30
      00FF3006H   LINE      CODE     ---       #31
      00FF300AH   LINE      CODE     ---       #32
      00FF300EH   LINE      CODE     ---       #35
      00FF3014H   LINE      CODE     ---       #36
      00FF3019H   LINE      CODE     ---       #37
      00FF301DH   LINE      CODE     ---       #38
      00FF3021H   LINE      CODE     ---       #39
      00FF3025H   LINE      CODE     ---       #40
      00FF3029H   LINE      CODE     ---       #41
      00FF302DH   LINE      CODE     ---       #42
      00FF3031H   LINE      CODE     ---       #45
      00FF3037H   LINE      CODE     ---       #46
      00FF303CH   LINE      CODE     ---       #47
L251 LINKER/LOCATER V4.66.93.0                                                        03/15/2026  14:26:01  PAGE 35


      00FF3040H   LINE      CODE     ---       #48
      00FF3044H   LINE      CODE     ---       #49
      00FF3048H   LINE      CODE     ---       #50
      00FF304CH   LINE      CODE     ---       #51
      00FF3050H   LINE      CODE     ---       #52
      00FF3054H   LINE      CODE     ---       #54
      ---         BLOCKEND  ---      ---       LVL=0

      00FF24F2H   BLOCK     CODE     ---       LVL=0
      REG=7       REGSYM    ---      ---       pkey
      R11         REGSYM    ---      BYTE      pin
      00FF24F2H   LINE      CODE     ---       #67
      00FF24F4H   LINE      CODE     ---       #69
      00FF24F7H   LINE      CODE     ---       #72
      00FF24FFH   LINE      CODE     ---       #74
      00FF2507H   LINE      CODE     ---       #76
      00FF2515H   LINE      CODE     ---       #77
      00FF2522H   LINE      CODE     ---       #79
      00FF2528H   LINE      CODE     ---       #80
      00FF252EH   LINE      CODE     ---       #81
      00FF252EH   LINE      CODE     ---       #82
      00FF2531H   LINE      CODE     ---       #84
      00FF2539H   LINE      CODE     ---       #86
      00FF2547H   LINE      CODE     ---       #89
      00FF2551H   LINE      CODE     ---       #91
      00FF2557H   LINE      CODE     ---       #92
      00FF255CH   LINE      CODE     ---       #93
      00FF2562H   LINE      CODE     ---       #94
      00FF2565H   LINE      CODE     ---       #96
      00FF257BH   LINE      CODE     ---       #99
      00FF2581H   LINE      CODE     ---       #100
      00FF2581H   LINE      CODE     ---       #102
      00FF2584H   LINE      CODE     ---       #107
      00FF258BH   LINE      CODE     ---       #109
      00FF2599H   LINE      CODE     ---       #110
      00FF25A3H   LINE      CODE     ---       #112
      00FF25A8H   LINE      CODE     ---       #113
      00FF25AEH   LINE      CODE     ---       #116
      00FF25B8H   LINE      CODE     ---       #119
      00FF25C5H   LINE      CODE     ---       #121
      00FF25CEH   LINE      CODE     ---       #124
      00FF25D4H   LINE      CODE     ---       #125
      00FF25D8H   LINE      CODE     ---       #126
      00FF25DAH   LINE      CODE     ---       #127
      00FF25DFH   LINE      CODE     ---       #130
      00FF25E5H   LINE      CODE     ---       #131
      00FF25EBH   LINE      CODE     ---       #132
      00FF25F0H   LINE      CODE     ---       #133
      00FF25F2H   LINE      CODE     ---       #138
      00FF25F8H   LINE      CODE     ---       #139
      00FF25FDH   LINE      CODE     ---       #140
      00FF2603H   LINE      CODE     ---       #141
      00FF2603H   LINE      CODE     ---       #142
      00FF2605H   LINE      CODE     ---       #146
      00FF260BH   LINE      CODE     ---       #147
      00FF260BH   LINE      CODE     ---       #148
      00FF260BH   LINE      CODE     ---       #151
      00FF2615H   LINE      CODE     ---       #153
      00FF2620H   LINE      CODE     ---       #156
      00FF2628H   LINE      CODE     ---       #159
      00FF2631H   LINE      CODE     ---       #163
      00FF263AH   LINE      CODE     ---       #165
      00FF2640H   LINE      CODE     ---       #166
      00FF2640H   LINE      CODE     ---       #167
      00FF2640H   LINE      CODE     ---       #168
L251 LINKER/LOCATER V4.66.93.0                                                        03/15/2026  14:26:01  PAGE 36


      00FF2642H   LINE      CODE     ---       #169
      00FF2647H   LINE      CODE     ---       #172
      00FF264CH   LINE      CODE     ---       #173
      00FF264CH   LINE      CODE     ---       #175
      00FF264CH   LINE      CODE     ---       #176
      ---         BLOCKEND  ---      ---       LVL=0

      00FF3641H   BLOCK     CODE     ---       LVL=0
      00FF3641H   LINE      CODE     ---       #181
      00FF3641H   LINE      CODE     ---       #183
      00FF364CH   LINE      CODE     ---       #184
      00FF3657H   LINE      CODE     ---       #185
      ---         BLOCKEND  ---      ---       LVL=0

      00FF3682H   BLOCK     CODE     ---       LVL=0
      R7          REGSYM    ---      BYTE      key_id
      00FF3682H   LINE      CODE     ---       #191
      00FF3684H   LINE      CODE     ---       #193
      00FF3690H   LINE      CODE     ---       #195
      00FF3690H   LINE      CODE     ---       #196
      00FF3695H   LINE      CODE     ---       #197
      00FF3695H   LINE      CODE     ---       #198
      00FF369AH   LINE      CODE     ---       #199
      00FF369AH   LINE      CODE     ---       #200
      00FF369FH   LINE      CODE     ---       #201
      00FF369FH   LINE      CODE     ---       #202
      00FF36A0H   LINE      CODE     ---       #203
      00FF36A0H   LINE      CODE     ---       #204
      ---         BLOCKEND  ---      ---       LVL=0

      00FF3662H   BLOCK     CODE     ---       LVL=0
      R7          REGSYM    ---      BYTE      key_id
      00FF3662H   LINE      CODE     ---       #209
      00FF3664H   LINE      CODE     ---       #211
      00FF3670H   LINE      CODE     ---       #213
      00FF3670H   LINE      CODE     ---       #214
      00FF3675H   LINE      CODE     ---       #215
      00FF3676H   LINE      CODE     ---       #216
      00FF3676H   LINE      CODE     ---       #217
      00FF367BH   LINE      CODE     ---       #218
      00FF367CH   LINE      CODE     ---       #219
      00FF367CH   LINE      CODE     ---       #220
      00FF3681H   LINE      CODE     ---       #221
      00FF3681H   LINE      CODE     ---       #222
      00FF3681H   LINE      CODE     ---       #223
      ---         BLOCKEND  ---      ---       LVL=0

      00FF343EH   BLOCK     CODE     ---       LVL=0
      R7          REGSYM    ---      BYTE      key_id
      00FF343EH   LINE      CODE     ---       #228
      00FF3440H   LINE      CODE     ---       #230
      00FF344CH   LINE      CODE     ---       #232
      00FF344CH   LINE      CODE     ---       #233
      00FF3458H   LINE      CODE     ---       #234
      00FF3458H   LINE      CODE     ---       #235
      00FF3464H   LINE      CODE     ---       #236
      00FF3464H   LINE      CODE     ---       #237
      00FF3470H   LINE      CODE     ---       #238
      00FF3470H   LINE      CODE     ---       #239
      00FF3471H   LINE      CODE     ---       #240
      00FF3471H   LINE      CODE     ---       #241
      ---         BLOCKEND  ---      ---       LVL=0

      00FF264DH   BLOCK     CODE     ---       LVL=0
      R10         REGSYM    ---      BYTE      event
L251 LINKER/LOCATER V4.66.93.0                                                        03/15/2026  14:26:01  PAGE 37


      00FF264DH   LINE      CODE     ---       #251
      00FF264DH   LINE      CODE     ---       #252
      00FF264DH   LINE      CODE     ---       #256
      00FF2654H   LINE      CODE     ---       #259
      00FF2660H   LINE      CODE     ---       #262
      00FF2660H   LINE      CODE     ---       #264
      00FF2660H   LINE      CODE     ---       #265
      00FF2660H   LINE      CODE     ---       #266
      00FF2662H   LINE      CODE     ---       #267
      00FF2662H   LINE      CODE     ---       #270
      00FF2667H   LINE      CODE     ---       #272
      00FF2672H   LINE      CODE     ---       #274
      00FF2677H   LINE      CODE     ---       #275
      00FF2679H   LINE      CODE     ---       #276
      00FF267BH   LINE      CODE     ---       #277
      00FF267BH   LINE      CODE     ---       #278
      00FF2680H   LINE      CODE     ---       #280
      00FF268BH   LINE      CODE     ---       #282
      00FF2690H   LINE      CODE     ---       #283
      00FF2692H   LINE      CODE     ---       #284
      00FF2694H   LINE      CODE     ---       #285
      00FF2694H   LINE      CODE     ---       #286
      00FF2699H   LINE      CODE     ---       #288
      00FF26A4H   LINE      CODE     ---       #289
      00FF26A9H   LINE      CODE     ---       #290
      00FF26ABH   LINE      CODE     ---       #291
      00FF26ADH   LINE      CODE     ---       #292
      00FF26ADH   LINE      CODE     ---       #293
      00FF26B2H   LINE      CODE     ---       #295
      00FF26BDH   LINE      CODE     ---       #296
      00FF26C2H   LINE      CODE     ---       #297
      00FF26C8H   LINE      CODE     ---       #298
      00FF26CBH   LINE      CODE     ---       #299
      00FF26CBH   LINE      CODE     ---       #301
      00FF26D0H   LINE      CODE     ---       #304
      00FF26D7H   LINE      CODE     ---       #306
      00FF26E3H   LINE      CODE     ---       #308
      00FF26E3H   LINE      CODE     ---       #309
      00FF26E3H   LINE      CODE     ---       #310
      00FF26E3H   LINE      CODE     ---       #311
      00FF26E5H   LINE      CODE     ---       #312
      00FF26E5H   LINE      CODE     ---       #314
      00FF26EAH   LINE      CODE     ---       #316
      00FF26F5H   LINE      CODE     ---       #317
      00FF26FAH   LINE      CODE     ---       #318
      00FF26FCH   LINE      CODE     ---       #319
      00FF26FEH   LINE      CODE     ---       #320
      00FF26FEH   LINE      CODE     ---       #321
      00FF2703H   LINE      CODE     ---       #323
      00FF270EH   LINE      CODE     ---       #324
      00FF2713H   LINE      CODE     ---       #325
      00FF2715H   LINE      CODE     ---       #326
      00FF2717H   LINE      CODE     ---       #327
      00FF2717H   LINE      CODE     ---       #328
      00FF271CH   LINE      CODE     ---       #330
      00FF2727H   LINE      CODE     ---       #331
      00FF272CH   LINE      CODE     ---       #332
      00FF2732H   LINE      CODE     ---       #333
      00FF2735H   LINE      CODE     ---       #334
      00FF2735H   LINE      CODE     ---       #336
      00FF273AH   LINE      CODE     ---       #339
      00FF2741H   LINE      CODE     ---       #341
      00FF274DH   LINE      CODE     ---       #343
      00FF274DH   LINE      CODE     ---       #344
      00FF274DH   LINE      CODE     ---       #345
L251 LINKER/LOCATER V4.66.93.0                                                        03/15/2026  14:26:01  PAGE 38


      00FF274DH   LINE      CODE     ---       #346
      00FF274FH   LINE      CODE     ---       #347
      00FF274FH   LINE      CODE     ---       #349
      00FF2754H   LINE      CODE     ---       #351
      00FF275FH   LINE      CODE     ---       #352
      00FF2764H   LINE      CODE     ---       #353
      00FF2766H   LINE      CODE     ---       #354
      00FF2768H   LINE      CODE     ---       #355
      00FF2768H   LINE      CODE     ---       #356
      00FF276DH   LINE      CODE     ---       #358
      00FF2778H   LINE      CODE     ---       #359
      00FF277DH   LINE      CODE     ---       #360
      00FF277FH   LINE      CODE     ---       #361
      00FF2781H   LINE      CODE     ---       #362
      00FF2781H   LINE      CODE     ---       #363
      00FF2786H   LINE      CODE     ---       #365
      00FF2791H   LINE      CODE     ---       #366
      00FF2796H   LINE      CODE     ---       #367
      00FF279CH   LINE      CODE     ---       #368
      00FF279FH   LINE      CODE     ---       #369
      00FF279FH   LINE      CODE     ---       #371
      00FF27A4H   LINE      CODE     ---       #372
      00FF27A4H   LINE      CODE     ---       #373
      ---         BLOCKEND  ---      ---       LVL=0

      ---         MODULE    ---      ---       SPRINTF
      000000E1H   PUBLIC    EDATA    ---       ?SPRINTF?BYTE
      00FF1A36H   PUBLIC    CODE     NEAR LAB  SPRINTF

      ---         MODULE    ---      ---       VSPRINTF
      0000013DH   PUBLIC    EDATA    ---       ?VSPRINTF?BYTE
      00FF1A56H   PUBLIC    CODE     NEAR LAB  VSPRINTF

      ---         MODULE    ---      ---       ?C?PRNFMT
      00FF1A9FH   PUBLIC    CODE     ---       ?C?PRNFMT

      ---         MODULE    ---      ---       ?C?FPCONVERT
      00FF1EBCH   PUBLIC    CODE     ---       ?C?FPCONVERT
      00FF1F74H   PUBLIC    CODE     ---       ?C?FPROUND

      ---         MODULE    ---      ---       ?C?FPMUL
      00FF1FB7H   PUBLIC    CODE     ---       ?C?FPMUL

      ---         MODULE    ---      ---       ?C?FPDIV
      00FF2057H   PUBLIC    CODE     ---       ?C?FPDIV

      ---         MODULE    ---      ---       ?C?FTNPWR
      00FF2108H   PUBLIC    CODE     ---       ?C?FTNPWR

      ---         MODULE    ---      ---       ?C?FPGETOPN
      00FF213FH   PUBLIC    CODE     ---       ?C?FPGETOPN2
      00FF217CH   PUBLIC    CODE     ---       ?C?FPNANRESULT
      00FF2184H   PUBLIC    CODE     ---       ?C?FPOVERFLOW
      00FF2158H   PUBLIC    CODE     ---       ?C?FPRESULT
      00FF216EH   PUBLIC    CODE     ---       ?C?FPRESULT2
      00FF2181H   PUBLIC    CODE     ---       ?C?FPUNDERFLOW

      ---         MODULE    ---      ---       ?C_START
      00FF0000H   PUBLIC    CODE     ---       ?C?STARTUP
      00FF0000H   PUBLIC    CODE     ---       ?C_STARTUP

      ---         MODULE    ---      ---       ?C?INITEDATA
      00FF335CH   PUBLIC    CODE     ---       ?C?INITEDATA

      ---         MODULE    ---      ---       ?C?SIDIV
L251 LINKER/LOCATER V4.66.93.0                                                        03/15/2026  14:26:01  PAGE 39


      00FF2190H   PUBLIC    CODE     ---       ?C?SIDIV

      ---         MODULE    ---      ---       ?C?LIMUL
      00FF21C2H   PUBLIC    CODE     ---       ?C?LIMUL

      ---         MODULE    ---      ---       ?C?ULDIV
      00FF21CDH   PUBLIC    CODE     NEAR LAB  ?C?ULDIV
      00FF21CBH   PUBLIC    CODE     NEAR LAB  ?C?ULIDIV

      ---         MODULE    ---      ---       ?C?SLDIV
      00FF221EH   PUBLIC    CODE     NEAR LAB  ?C?SLDIV

      ---         MODULE    ---      ---       STRLEN
      00FF37C8H   PUBLIC    CODE     ---       strlen?_

      ---         MODULE    ---      ---       memset
      00FF36F2H   PUBLIC    CODE     ---       memset?_

      ---         MODULE    ---      ---       ?C?INITEDATA_END
      00FF3950H   PUBLIC    HCONST   WORD      ?C?INITEDATA_END



*** WARNING L57: UNCALLED FUNCTION, IGNORED FOR OVERLAY PROCESS
    NAME:    OLED_BuffShowCircle/oled

*** WARNING L57: UNCALLED FUNCTION, IGNORED FOR OVERLAY PROCESS
    NAME:    OLED_BuffShowNum02F/oled

*** WARNING L57: UNCALLED FUNCTION, IGNORED FOR OVERLAY PROCESS
    NAME:    OLED_BuffShowBMP/oled

*** WARNING L57: UNCALLED FUNCTION, IGNORED FOR OVERLAY PROCESS
    NAME:    OLED_BuffShowChar32/oled

*** WARNING L57: UNCALLED FUNCTION, IGNORED FOR OVERLAY PROCESS
    NAME:    OLED_BuffShowRectangle/oled

*** WARNING L57: UNCALLED FUNCTION, IGNORED FOR OVERLAY PROCESS
    NAME:    OLED_DrawBMP/oled

*** WARNING L57: UNCALLED FUNCTION, IGNORED FOR OVERLAY PROCESS
    NAME:    OLED_DisplayOff/oled

*** WARNING L57: UNCALLED FUNCTION, IGNORED FOR OVERLAY PROCESS
    NAME:    UART2_SendString/uart

*** WARNING L57: UNCALLED FUNCTION, IGNORED FOR OVERLAY PROCESS
    NAME:    UART2_ReadByte/uart

*** WARNING L57: UNCALLED FUNCTION, IGNORED FOR OVERLAY PROCESS
    NAME:    Key_Init/key

*** WARNING L57: UNCALLED FUNCTION, IGNORED FOR OVERLAY PROCESS
    NAME:    Key_IsPressed/key

*** WARNING L15: MULTIPLE CALL TO FUNCTION
    NAME:    Printf/uart
    CALLER1: UART2_ISR/main
    CALLER2: ?C_C51STARTUP?3

*** WARNING L15: MULTIPLE CALL TO FUNCTION
    NAME:    VSPRINTF/VSPRINTF
    CALLER1: UART2_ISR/main
    CALLER2: ?C_C51STARTUP?3
L251 LINKER/LOCATER V4.66.93.0                                                        03/15/2026  14:26:01  PAGE 40



Program Size: data=8.3 edata+hdata=938 xdata=1047 const=449 code=14303
L251 RUN COMPLETE.  13 WARNING(S),  0 ERROR(S)
