L251 LINKER/LOCATER V4.66.93.0                                                          03/15/2026  15:45:09  PAGE 1


L251 LINKER/LOCATER V4.66.93.0, INVOKED BY:
D:\KEIL MDK\C251\BIN\L251.EXE .\Objects\main.obj, .\Objects\oled.obj, .\Objects\spi.obj, .\Objects\uart.obj, .\Objects\t
>> imer.obj, .\Objects\rs485.obj, .\Objects\isr.obj, .\Objects\key.obj, .\Objects\pid.obj TO .\Objects\STC32G_Test_06_SP
>> IĶØŠÅOLEDĘĮ PRINT (.\Listings\STC32G_Test_06_SPIĶØŠÅOLEDĘĮ.map) CASE CLASSES (EDATA (0X0-0XFFF), HDATA (0X0-0XFFF))


CPU MODE:     251 SOURCE MODE
INTR FRAME:   2 BYTES SAVED ON INTERRUPT
MEMORY MODEL: XSMALL WITH FLOATING POINT ARITHMETIC


INPUT MODULES INCLUDED:
  .\Objects\main.obj (main)
         COMMENT TYPE 0: C251 V5.60.0
  .\Objects\oled.obj (oled)
         COMMENT TYPE 0: C251 V5.60.0
  .\Objects\spi.obj (spi)
         COMMENT TYPE 0: C251 V5.60.0
  .\Objects\uart.obj (uart)
         COMMENT TYPE 0: C251 V5.60.0
  .\Objects\timer.obj (timer)
         COMMENT TYPE 0: C251 V5.60.0
  .\Objects\rs485.obj (rs485)
         COMMENT TYPE 0: C251 V5.60.0
  .\Objects\isr.obj (isr)
         COMMENT TYPE 0: A251 V4.69.13.0
  .\Objects\key.obj (key)
         COMMENT TYPE 0: C251 V5.60.0
  .\Objects\pid.obj (pid)
         COMMENT TYPE 0: C251 V5.60.0
  D:\KEIL MDK\C251\LIB\C2SFPXS.LIB (SPRINTF)
         COMMENT TYPE 0: A251 V4.69.6.0
  D:\KEIL MDK\C251\LIB\C2SFPXS.LIB (VSPRINTF)
         COMMENT TYPE 0: A251 V4.69.6.0
  D:\KEIL MDK\C251\LIB\C2SFPXS.LIB (?C?PRNFMT)
         COMMENT TYPE 0: A251 V4.69.6.0
  D:\KEIL MDK\C251\LIB\C2SFPXS.LIB (?C?FPCONVERT)
         COMMENT TYPE 0: A251 V4.69.6.0
  D:\KEIL MDK\C251\LIB\C2SFPXS.LIB (?C?FPMUL)
         COMMENT TYPE 0: A251 V4.69.6.0
  D:\KEIL MDK\C251\LIB\C2SFPXS.LIB (?C?FPDIV)
         COMMENT TYPE 0: A251 V4.69.6.0
  D:\KEIL MDK\C251\LIB\C2SFPXS.LIB (?C?FTNPWR)
         COMMENT TYPE 0: A251 V4.69.6.0
  D:\KEIL MDK\C251\LIB\C2SFPXS.LIB (?C?FPGETOPN)
         COMMENT TYPE 0: A251 V4.69.6.0
  D:\KEIL MDK\C251\LIB\C2SXS.LIB (?C_START)
         COMMENT TYPE 0: A251 V4.69.6.0
  D:\KEIL MDK\C251\LIB\C2SXS.LIB (?C?INITEDATA)
         COMMENT TYPE 0: A251 V4.69.6.0
  D:\KEIL MDK\C251\LIB\C2SXS.LIB (?C?SIDIV)
         COMMENT TYPE 0: A251 V4.69.6.0
  D:\KEIL MDK\C251\LIB\C2SXS.LIB (?C?LMUL)
         COMMENT TYPE 0: A251 V4.69.6.0
  D:\KEIL MDK\C251\LIB\C2SXS.LIB (?C?LIMUL)
         COMMENT TYPE 0: A251 V4.69.6.0
  D:\KEIL MDK\C251\LIB\C2SXS.LIB (?C?SLDIV)
         COMMENT TYPE 0: A251 V4.69.6.0
  D:\KEIL MDK\C251\LIB\C2SXS.LIB (STRLEN)
         COMMENT TYPE 0: C251 V5.58.7
  D:\KEIL MDK\C251\LIB\C2SXS.LIB (memset)
         COMMENT TYPE 0: C251 V5.58.7
  D:\KEIL MDK\C251\LIB\C2SXS.LIB (?C?INITEDATA_END)
         COMMENT TYPE 0: A251 V4.69.6.0
  D:\KEIL MDK\C251\LIB\C2SXS.LIB (?C?ULDIV)
         COMMENT TYPE 0: A251 V4.69.6.0
L251 LINKER/LOCATER V4.66.93.0                                                        03/15/2026  15:45:09  PAGE 2




ACTIVE MEMORY CLASSES OF MODULE:  .\Objects\STC32G_Test_06_SPIĶØŠÅOLEDĘĮ (main)

BASE        START       END         USED      MEMORY CLASS
==========================================================
000000H     000000H     000FFFH     000354H   EDATA
000000H     000000H     000FFFH               HDATA
000000H     FF0000H     FFFFFFH     000212H   HCONST
FF0000H     FF0000H     FFFFFFH     003B25H   CODE
000020H.0   000020H.0   00002FH.7   000000H.3 BIT
010000H     010000H     01FFFFH     000417H   XDATA
FF0000H     FF0000H     FFFFFFH     000004H   CONST
000000H     000000H     00007FH     000008H   DATA


MEMORY MAP OF MODULE:  .\Objects\STC32G_Test_06_SPIĶØŠÅOLEDĘĮ (main)


START     STOP      LENGTH    ALIGN  RELOC    MEMORY CLASS   SEGMENT NAME
=========================================================================
000000H   000007H   000008H   ---    AT..     DATA           "REG BANK 0"
000008H   000013H   00000CH   BYTE   UNIT     EDATA          ?ED?OLED_BUFFSHOWCIRCLE?OLED
000014H   000018H   000005H   BYTE   UNIT     EDATA          ?ED?OLED_DRAWBMP?OLED
000019H   00001CH   000004H   BYTE   UNIT     EDATA          ?ED?OLED_BUFFSHOWNUM02F?OLED
00001DH   00001EH   000002H   BYTE   UNIT     EDATA          ?ED?OLED_BUFFSHOWLINE?OLED
00001FH.0 00001FH.7 000001H.0 ---    ---      **GAP**
000020H.0 000020H.1 000000H.2 BIT    UNIT     BIT            ?BI?MAIN
000020H.2 000020H.2 000000H.1 BIT    UNIT     BIT            ?BI?UART
000020H.3 000020H   000000H.5 ---    ---      **GAP**
000021H   0000C6H   0000A6H   BYTE   UNIT     EDATA          ?ED?RS485
0000C7H   00015EH   000098H   BYTE   UNIT     EDATA          _EDATA_GROUP_
00015FH   0001E2H   000084H   BYTE   UNIT     EDATA          ?ED?UART
0001E3H   00022DH   00004BH   BYTE   UNIT     EDATA          ?ED?MAIN
00022EH   00025DH   000030H   BYTE   UNIT     EDATA          ?ED?KEY
00025EH   00035DH   000100H   BYTE   UNIT     EDATA          ?STACK
00035EH   00FFFFH   00FCA2H   ---    ---      **GAP**
010000H   0103FFH   000400H   BYTE   INSEG    XDATA          ?XD?OLED
010400H   010409H   00000AH   BYTE   UNIT     XDATA          ?XD?OLED_BUFFSHOWNUM02F?OLED
01040AH   010413H   00000AH   BYTE   UNIT     XDATA          _XDATA_GROUP_
010414H   010416H   000003H   BYTE   UNIT     XDATA          ?XD?OLED_DRAWBMP?OLED
010417H   FEFFFFH   FDFBE9H   ---    ---      **GAP**
FF0000H   FF0002H   000003H   ---    OFFS..   CODE           ?CO?start251?4
FF0003H   FF0003H   000001H   BYTE   INSEG    CODE           ?PR?SPI_DMA_WAIT?SPI
FF0004H   FF0007H   000004H   BYTE   UNIT     CONST          ?CO?PRINTF
FF0008H   FF000AH   000003H   ---    ---      **GAP**
FF000BH   FF000DH   000003H   ---    OFFS..   CODE           ?PR?IV?1
FF000EH   FF0022H   000015H   BYTE   INSEG    CODE           ?PR?UART1_ISR?MAIN
FF0023H   FF0025H   000003H   ---    OFFS..   CODE           ?PR?IV?4
FF0026H   FF0042H   00001DH   BYTE   INSEG    CODE           ?PR?OLED_WR_BYTE?OLED
FF0043H   FF0045H   000003H   ---    OFFS..   CODE           ?PR?IV?8
FF0046H   FF0148H   000103H   BYTE   INSEG    CODE           ?PR?OLED_BUFFSHOWCIRCLE?OLED
FF0149H   FF0188H   000040H   BYTE   INSEG    CODE           ?PR?SYS_INIT?MAIN
FF0189H   FF018AH   000002H   ---    ---      **GAP**
FF018BH   FF018DH   000003H   ---    OFFS..   CODE           ?CO?isr?1
FF018EH   FF0E35H   000CA8H   BYTE   UNIT     CODE           ?CO?OLED
FF0E36H   FF1A35H   000C00H   BYTE   UNIT     CODE           ?CO?MAIN
FF1A36H   FF2262H   00082DH   BYTE   UNIT     CODE           ?C?LIB_CODE
FF2263H   FF2502H   0002A0H   BYTE   INSEG    CODE           ?PR?PROCESSFRAME?RS485
FF2503H   FF269EH   00019CH   BYTE   INSEG    CODE           ?PR?MOTOR_CONTROLUPDATE?MAIN
FF269FH   FF2804H   000166H   BYTE   INSEG    CODE           ?PR?_M?MAIN
FF2805H   FF295FH   00015BH   BYTE   INSEG    CODE           ?PR?KEY_SCANSINGLE?KEY
FF2960H   FF2AB7H   000158H   BYTE   INSEG    CODE           ?PR?KEY_HANDLEEVENT?KEY
FF2AB8H   FF2BB7H   000100H   BYTE   INSEG    CODE           ?PR?PID_CALC?PID
FF2BB8H   FF2C99H   0000E2H   BYTE   INSEG    CODE           ?PR?OLED_INIT?OLED
L251 LINKER/LOCATER V4.66.93.0                                                        03/15/2026  15:45:09  PAGE 3


FF2C9AH   FF2D65H   0000CCH   BYTE   INSEG    CODE           ?PR?TIMER0_ISR?MAIN
FF2D66H   FF2E28H   0000C3H   BYTE   INSEG    CODE           ?PR?OLED_BUFFSHOWLINE?OLED
FF2E29H   FF2EE6H   0000BEH   BYTE   INSEG    CODE           ?PR?OLED_BUFFSHOWGBK?OLED
FF2EE7H   FF2F87H   0000A1H   BYTE   INSEG    CODE           ?PR?PWM_INIT?TIMER
FF2F88H   FF3019H   000092H   BYTE   INSEG    CODE           ?PR?BUZZER_UPDATE?KEY
FF301AH   FF30A4H   00008BH   BYTE   INSEG    CODE           ?PR?OLED_BUFFSHOWCHAR?OLED
FF30A5H   FF312CH   000088H   BYTE   INSEG    CODE           ?PR?OLED_BUFFSHOWSTRING?OLED
FF312DH   FF31B3H   000087H   BYTE   INSEG    CODE           ?PR?PWMB_ENCODER_INIT?TIMER
FF31B4H   FF3237H   000084H   BYTE   INSEG    CODE           ?PR?OLED_DRAWBMP?OLED
FF3238H   FF32B8H   000081H   BYTE   INSEG    CODE           ?PR?OLED_BUFFSHOWCHAR32?OLED
FF32B9H   FF332EH   000076H   BYTE   INSEG    CODE           ?PR?KEY_INIT?KEY
FF332FH   FF339EH   000070H   BYTE   INSEG    CODE           ?PR?MODBUS_SYNCREGS?MAIN
FF339FH   FF3403H   000065H   BYTE   INSEG    CODE           ?PR?UART2_ISR?MAIN
FF3404H   FF345AH   000057H   BYTE   INSEG    CODE           ?PR?OLED_BUFFSHOWBMP?OLED
FF345BH   FF34A9H   00004FH   BYTE   INSEG    CODE           ?PR?OLED_BUFFSHOWNUM02F?OLED
FF34AAH   FF34F8H   00004FH   BYTE   INSEG    CODE           ?PR?OLED_BUFFSHOWNUM?OLED
FF34F9H   FF3543H   00004BH   BYTE   INSEG    CODE           ?PR?OLED_BUFFSHOW?OLED
FF3544H   FF358CH   000049H   BYTE   INSEG    CODE           ?PR?OLED_BUFFSHOWPOINT?OLED
FF358DH   FF359FH   000013H   BYTE   UNIT     CODE           ?C_C51STARTUP
FF35A0H   FF35A3H   000004H   BYTE   UNIT     CODE           ?C_C51STARTUP?1
FF35A4H   FF35CCH   000029H   BYTE   UNIT     CODE           ?C_C51STARTUP?2
FF35CDH   FF35CFH   000003H   BYTE   UNIT     CODE           ?C_C51STARTUP?3
FF35D0H   FF360FH   000040H   BYTE   INSEG    CODE           ?PR?UART2_SENDBYTE?UART
FF3610H   FF364FH   000040H   BYTE   INSEG    CODE           ?PR?BUZZER_PLAYTONE?KEY
FF3650H   FF368EH   00003FH   BYTE   INSEG    CODE           ?PR?ENCODER_READ?TIMER
FF368FH   FF36C8H   00003AH   BYTE   INSEG    CODE           ?PR?CRC16?RS485
FF36C9H   FF36FFH   000037H   BYTE   INSEG    CODE           ?PR?SENDRESPONSE?RS485
FF3700H   FF3733H   000034H   BYTE   INSEG    CODE           ?PR?KEY_ISPRESSED?KEY
FF3734H   FF3767H   000034H   BYTE   INSEG    CODE           ?PR?PID_INIT?PID
FF3768H   FF379AH   000033H   BYTE   INSEG    CODE           ?PR?OLED_BUFFSHOWRECTANGLE?OLED
FF379BH   FF37CCH   000032H   BYTE   INSEG    CODE           ?PR?CLK_INIT?MAIN
FF37CDH   FF37FDH   000031H   BYTE   INSEG    CODE           ?PR?MODBUS_TIMERTICK?RS485
FF37FEH   FF382AH   00002DH   BYTE   INSEG    CODE           ?PR?SPI_INIT?SPI
FF382BH   FF3854H   00002AH   BYTE   INSEG    CODE           ?PR?UART2_READBYTE?UART
FF3855H   FF387EH   00002AH   BYTE   INSEG    CODE           ?PR?UART2_INIT?UART
FF387FH   FF38A7H   000029H   BYTE   INSEG    CODE           ?PR?OLED_SET_POS?OLED
FF38A8H   FF38CFH   000028H   BYTE   INSEG    CODE           ?PR?MODBUS_RXBYTE?RS485
FF38D0H   FF38F4H   000025H   BYTE   INSEG    CODE           ?PR?UART1_INIT?UART
FF38F5H   FF3919H   000025H   BYTE   INSEG    CODE           ?PR?PWM_SETDUTY?TIMER
FF391AH   FF393CH   000023H   BYTE   INSEG    CODE           ?PR?SPI_TRANSMIT?SPI
FF393DH   FF395EH   000022H   BYTE   INSEG    CODE           ?PR?PRINTF?UART
FF395FH   FF397FH   000021H   BYTE   INSEG    CODE           ?PR?KEY_SCAN?KEY
FF3980H   FF399FH   000020H   BYTE   INSEG    CODE           ?PR?KEY_CLEAREVENT?KEY
FF39A0H   FF39BEH   00001FH   BYTE   INSEG    CODE           ?PR?KEY_GETEVENT?KEY
FF39BFH   FF39D9H   00001BH   BYTE   INSEG    CODE           ?PR?MAIN?MAIN
FF39DAH   FF39F4H   00001BH   BYTE   INSEG    CODE           ?PR?OLED_BUFFCLEAR?OLED
FF39F5H   FF3A0FH   00001BH   BYTE   INSEG    CODE           ?PR?SENDEXCEPTION?RS485
FF3A10H   FF3A2AH   00001BH   BYTE   INSEG    CODE           ?PR?PID_RESET?PID
FF3A2BH   FF3A44H   00001AH   BYTE   INSEG    CODE           ?PR?MEMSET?_?MEMSET
FF3A45H   FF3A5BH   000017H   BYTE   INSEG    CODE           ?PR?DELAY_MS?OLED
FF3A5CH   FF3A71H   000016H   BYTE   INSEG    CODE           ?PR?UART1_SENDSTR?UART
FF3A72H   FF3A87H   000016H   BYTE   INSEG    CODE           ?PR?UART2_SENDSTRING?UART
FF3A88H   FF3A9CH   000015H   BYTE   INSEG    CODE           ?PR?OLED_DISPLAYON?OLED
FF3A9DH   FF3AB1H   000015H   BYTE   INSEG    CODE           ?PR?OLED_DISPLAYOFF?OLED
FF3AB2H   FF3AC6H   000015H   BYTE   INSEG    CODE           ?PR?TIMER0_INIT?TIMER
FF3AC7H   FF3ADAH   000014H   BYTE   INSEG    CODE           ?PR?SPI_WRITEBYTE?SPI
FF3ADBH   FF3AEEH   000014H   BYTE   INSEG    CODE           ?PR?MODBUS_POLL?RS485
FF3AEFH   FF3B00H   000012H   BYTE   INSEG    CODE           ?PR?MODBUS_INIT?RS485
FF3B01H   FF3B0EH   00000EH   BYTE   INSEG    CODE           ?PR?STRLEN?_?STRLEN
FF3B0FH   FF3B19H   00000BH   BYTE   INSEG    CODE           ?PR?DELAY?OLED
FF3B1AH   FF3B24H   00000BH   BYTE   INSEG    CODE           ?PR?BUZZER_ISBUSY?KEY
FF3B25H   FF3B2DH   000009H   BYTE   INSEG    CODE           ?PR?UART1_SENDBYTE?UART
FF3B2EH   FF3C6FH   000142H   BYTE   UNIT     HCONST         ?HC?KEY
FF3C70H   FF3CFFH   000090H   BYTE   UNIT     HCONST         ?C_INITEDATA
FF3D00H   FF3D36H   000037H   BYTE   UNIT     HCONST         ?HC?MAIN
L251 LINKER/LOCATER V4.66.93.0                                                        03/15/2026  15:45:09  PAGE 4


FF3D37H   FF3D3FH   000009H   BYTE   UNIT     HCONST         ?HC?OLED



OVERLAY MAP OF MODULE:   .\Objects\STC32G_Test_06_SPIĶØŠÅOLEDĘĮ (main)


FUNCTION/MODULE                  EDATA_GROUP  XDATA_GROUP
--> CALLED FUNCTION/MODULE       START  STOP  START  STOP
=========================================================
Timer0_ISR/main                  ----- -----  ----- -----
  +--> Modbus_TimerTick/rs485
  +--> Key_Scan/key
  +--> Encoder_Read/timer
  +--> ?C?SLDIV/?C?SLDIV
  +--> Motor_ControlUpdate/main

Modbus_TimerTick/rs485           ----- -----  ----- -----

Key_Scan/key                     ----- -----  ----- -----
  +--> Key_ScanSingle/key

Key_ScanSingle/key               ----- -----  ----- -----

Encoder_Read/timer               ----- -----  ----- -----

?C?SLDIV/?C?SLDIV                ----- -----  ----- -----
  +--> ?C?ULIDIV/?C?ULDIV

?C?ULIDIV/?C?ULDIV               ----- -----  ----- -----

Motor_ControlUpdate/main         00C7H 00CAH  ----- -----
  +--> PWM_SetDuty/timer
  +--> PID_Reset/pid
  +--> PID_Calc/pid

PWM_SetDuty/timer                ----- -----  ----- -----

PID_Reset/pid                    ----- -----  ----- -----

PID_Calc/pid                     ----- -----  ----- -----
  +--> ?C?SLDIV/?C?SLDIV

*** NEW ROOT *******************

UART1_ISR/main                   ----- -----  ----- -----

*** NEW ROOT *******************

UART2_ISR/main                   ----- -----  ----- -----
  +--> Modbus_RxByte/rs485

Modbus_RxByte/rs485              ----- -----  ----- -----

*** NEW ROOT *******************

?C_C51STARTUP?1                  ----- -----  ----- -----

*** NEW ROOT *******************

?C_C51STARTUP                    ----- -----  ----- -----

*** NEW ROOT *******************

?C_C51STARTUP?3                  ----- -----  ----- -----
L251 LINKER/LOCATER V4.66.93.0                                                        03/15/2026  15:45:09  PAGE 5


  +--> main/main

main/main                        ----- -----  ----- -----
  +--> _m/main
  +--> SPRINTF/SPRINTF
  +--> strlen?_/STRLEN

_m/main                          ----- -----  ----- -----
  +--> Sys_init/main
  +--> CLK_Init/main
  +--> SPI_Init/spi
  +--> UART1_Init/uart
  +--> UART2_Init/uart
  +--> Timer0_Init/timer
  +--> PWM_Init/timer
  +--> PWMB_Encoder_Init/timer
  +--> Modbus_Init/rs485
  +--> PWM_SetDuty/timer
  +--> Key_Init/key
  +--> Buzzer_PlayTone/key
  +--> PID_Init/pid
  +--> OLED_Init/oled
  +--> OLED_BuffClear/oled
  +--> OLED_BuffShow/oled
  +--> OLED_BuffShowString/oled
  +--> Modbus_SyncRegs/main
  +--> Modbus_Poll/rs485
  +--> Key_HandleEvent/key
  +--> OLED_BuffShowNum/oled
  +--> Printf/uart

Sys_init/main                    ----- -----  ----- -----

CLK_Init/main                    ----- -----  ----- -----

SPI_Init/spi                     ----- -----  ----- -----

UART1_Init/uart                  ----- -----  ----- -----

UART2_Init/uart                  ----- -----  ----- -----

Timer0_Init/timer                ----- -----  ----- -----

PWM_Init/timer                   ----- -----  ----- -----

PWMB_Encoder_Init/timer          ----- -----  ----- -----

Modbus_Init/rs485                ----- -----  ----- -----

Key_Init/key                     ----- -----  ----- -----
  +--> Printf/uart

Printf/uart                      00CBH 015AH  ----- -----
  +--> VSPRINTF/VSPRINTF
  +--> UART1_SendStr/uart

VSPRINTF/VSPRINTF                015BH 015EH  ----- -----
  +--> OUT/VSPRINTF

OUT/VSPRINTF                     ----- -----  ----- -----
  +--> PUTCH/VSPRINTF

PUTCH/VSPRINTF                   ----- -----  ----- -----

UART1_SendStr/uart               ----- -----  ----- -----
L251 LINKER/LOCATER V4.66.93.0                                                        03/15/2026  15:45:09  PAGE 6


  +--> UART1_SendByte/uart

UART1_SendByte/uart              ----- -----  ----- -----

Buzzer_PlayTone/key              ----- -----  ----- -----

PID_Init/pid                     00CBH 00D6H  ----- -----
  +--> PID_Reset/pid

OLED_Init/oled                   ----- -----  ----- -----
  +--> SPI_Init/spi
  +--> delay_ms/oled
  +--> OLED_WR_Byte/oled
  +--> OLED_DisplayOn/oled

delay_ms/oled                    ----- -----  ----- -----

OLED_WR_Byte/oled                ----- -----  ----- -----
  +--> SPI_WriteByte/spi
  +--> delay/oled

SPI_WriteByte/spi                ----- -----  ----- -----

delay/oled                       ----- -----  ----- -----

OLED_DisplayOn/oled              ----- -----  ----- -----
  +--> OLED_WR_Byte/oled

OLED_BuffClear/oled              ----- -----  ----- -----

OLED_BuffShow/oled               ----- -----  ----- -----
  +--> SPI_WriteByte/spi
  +--> SPI_Transmit/spi
  +--> SPI_DMA_Wait/spi

SPI_Transmit/spi                 ----- -----  ----- -----

SPI_DMA_Wait/spi                 ----- -----  ----- -----

OLED_BuffShowString/oled         00CFH 00D3H  ----- -----
  +--> OLED_BuffShowChar/oled
  +--> OLED_BuffShowGBK/oled

OLED_BuffShowChar/oled           ----- -----  ----- -----

OLED_BuffShowGBK/oled            ----- -----  ----- -----

Modbus_SyncRegs/main             ----- -----  ----- -----

Modbus_Poll/rs485                ----- -----  ----- -----
  +--> ProcessFrame/rs485

ProcessFrame/rs485               00CBH 00CCH  ----- -----
  +--> CRC16/rs485
  +--> SendResponse/rs485
  +--> SendException/rs485

CRC16/rs485                      ----- -----  ----- -----

SendResponse/rs485               ----- -----  ----- -----
  +--> CRC16/rs485
  +--> UART2_SendByte/uart

UART2_SendByte/uart              ----- -----  ----- -----

L251 LINKER/LOCATER V4.66.93.0                                                        03/15/2026  15:45:09  PAGE 7


SendException/rs485              ----- -----  ----- -----
  +--> SendResponse/rs485

Key_HandleEvent/key              ----- -----  ----- -----
  +--> Key_GetEvent/key
  +--> Printf/uart
  +--> Key_ClearEvent/key

Key_GetEvent/key                 ----- -----  ----- -----

Key_ClearEvent/key               ----- -----  ----- -----

OLED_BuffShowNum/oled            00CBH 00CEH  040AH 0413H
  +--> memset?_/memset
  +--> SPRINTF/SPRINTF
  +--> OLED_BuffShowString/oled

memset?_/memset                  ----- -----  ----- -----

SPRINTF/SPRINTF                  00CFH 00F6H  ----- -----
  +--> OUT/SPRINTF

OUT/SPRINTF                      ----- -----  ----- -----
  +--> PUTCH/SPRINTF

PUTCH/SPRINTF                    ----- -----  ----- -----

strlen?_/STRLEN                  ----- -----  ----- -----

*** NEW ROOT *******************

?C_C51STARTUP?2                  ----- -----  ----- -----



PUBLIC SYMBOLS OF MODULE:  .\Objects\STC32G_Test_06_SPIĶØŠÅOLEDĘĮ (main)


      VALUE       CLASS    TYPE      PUBLIC SYMBOL NAME
      =================================================
      000000FFH   NUMBER   ---       ?C?CODESEG
      00FF1EBCH   CODE     ---       ?C?FPCONVERT
      00FF2057H   CODE     ---       ?C?FPDIV
      00FF213FH   CODE     ---       ?C?FPGETOPN2
      00FF1FB7H   CODE     ---       ?C?FPMUL
      00FF217CH   CODE     ---       ?C?FPNANRESULT
      00FF2184H   CODE     ---       ?C?FPOVERFLOW
      00FF2158H   CODE     ---       ?C?FPRESULT
      00FF216EH   CODE     ---       ?C?FPRESULT2
      00FF1F74H   CODE     ---       ?C?FPROUND
      00FF2181H   CODE     ---       ?C?FPUNDERFLOW
      00FF2108H   CODE     ---       ?C?FTNPWR
      00FF35A4H   CODE     ---       ?C?INITEDATA
      00FF3CFEH   HCONST   WORD      ?C?INITEDATA_END
      00FF21D3H   CODE     ---       ?C?LIMUL
      00FF21C2H   CODE     ---       ?C?LMUL
      00FF1A9FH   CODE     ---       ?C?PRNFMT
      00FF2190H   CODE     ---       ?C?SIDIV
      00FF21DCH   CODE     NEAR LAB  ?C?SLDIV
      00FF0000H   CODE     ---       ?C?STARTUP
      00FF2212H   CODE     NEAR LAB  ?C?ULDIV
      00FF2210H   CODE     NEAR LAB  ?C?ULIDIV
      00000001H   NUMBER   ---       ?C?XDATASEG
      00FF0000H   CODE     ---       ?C_STARTUP
      000000C3H   EDATA    ---       ?PID_Init?BYTE
L251 LINKER/LOCATER V4.66.93.0                                                        03/15/2026  15:45:09  PAGE 8


      000000F3H   EDATA    BYTE      ?Printf?BYTE
      000000F7H   EDATA    ---       ?sprintf?BYTE
      00000153H   EDATA    ---       ?vsprintf?BYTE
      00FF269FH   CODE     ---       _m
*SFR* 000000E0H   DATA     BYTE      ACC
*SFR* 000000BCH   DATA     BYTE      ADC_CONTR
*SFR* 000000DEH   DATA     BYTE      ADCCFG
      00FF048EH   CODE     ---       Ascll_16
*SFR* 000000EFH   DATA     BYTE      AUXINTIF
*SFR* 0000008EH   DATA     BYTE      AUXR
*SFR* 00000097H   DATA     BYTE      AUXR2
*SFR* 000000F0H   DATA     BYTE      B
      00000020H.1 BIT      BIT       B_Change
*SFR* 00000090H.3 DATA     BIT       BUZZER
      00FF3B1AH   CODE     ---       Buzzer_IsBusy
      00FF3610H   CODE     ---       Buzzer_PlayTone
*SFR* 000000F1H   DATA     BYTE      CANICR
*SFR* 000000EAH   DATA     BYTE      CKCON
      00FF379BH   CODE     ---       CLK_Init
*SFR* 000000E6H   DATA     BYTE      CMPCR1
*SFR* 000000E7H   DATA     BYTE      CMPCR2
*SFR* 000000CEH.2 DATA     BIT       CPHA
*SFR* 000000CEH.3 DATA     BIT       CPOL
      00FF3A45H   CODE     ---       delay_ms
      00000020H.0 BIT      BIT       disp_flag
*SFR* 000000CEH.5 DATA     BIT       DORD
*SFR* 000000A8H.7 DATA     BIT       EA
*SFR* 000000BAH.7 DATA     BIT       EAXFR
      00FF3650H   CODE     ---       Encoder_Read
*SFR* 000000A8H.4 DATA     BIT       ES
*SFR* 000000A8H.1 DATA     BIT       ET0
      000001E5H   EDATA    BYTE      g_ctrl_mode
      000001EEH   EDATA    INT       g_enc_cnt
      000001E6H   EDATA    LONG      g_enc_total
      000001F4H   EDATA    INT       g_motor_angle
      00000212H   EDATA    INT       g_motor_speed
      000001E3H   EDATA    INT       g_set_angle
      000001EAH   EDATA    INT       g_set_speed
      000001F2H   EDATA    WORD      g_status_flags
      00FF0A7EH   CODE     ---       GBK16
*SFR* 000000C7H   DATA     BYTE      IAP_CONTR
*SFR* 000000A8H   DATA     BYTE      IE
*SFR* 000000AFH   DATA     BYTE      IE2
*SFR* 0000008FH   DATA     BYTE      INTCLKO
*SFR* 000000B8H   DATA     BYTE      IP
*SFR* 000000B5H   DATA     BYTE      IP2
*SFR* 000000B6H   DATA     BYTE      IP2H
*SFR* 000000DFH   DATA     BYTE      IP3
*SFR* 000000EEH   DATA     BYTE      IP3H
*SFR* 000000B7H   DATA     BYTE      IPH
*SFR* 0000009DH   DATA     BYTE      IRCBAND
      00000237H   EDATA    ---       key1
*SFR* 000000C0H.4 DATA     BIT       KEY1_PIN
      00000244H   EDATA    ---       key2
*SFR* 000000C0H.3 DATA     BIT       KEY2_PIN
      00000251H   EDATA    ---       key3
*SFR* 000000C0H.2 DATA     BIT       KEY3_PIN
      00FF3980H   CODE     ---       Key_ClearEvent
      00FF39A0H   CODE     ---       Key_GetEvent
      00FF2960H   CODE     ---       Key_HandleEvent
      00FF32B9H   CODE     ---       Key_Init
      00FF3700H   CODE     ---       Key_IsPressed
      00FF395FH   CODE     ---       Key_Scan
      00FF0E36H   CODE     ---       LCD12864_IMG
      00FF018EH   CODE     ---       lib_num1632
L251 LINKER/LOCATER V4.66.93.0                                                        03/15/2026  15:45:09  PAGE 9


*SFR* 000000F9H   DATA     BYTE      LINICR
      00FF39BFH   CODE     ---       main
      00FF3A2BH   CODE     ---       memset?_
      000000A2H   EDATA    BYTE      modbus_coils
      00FF3AEFH   CODE     ---       Modbus_Init
      00FF3ADBH   CODE     ---       Modbus_Poll
      000000A4H   EDATA    ---       modbus_regs
      00FF38A8H   CODE     ---       Modbus_RxByte
      00FF37CDH   CODE     ---       Modbus_TimerTick
      000001F6H   EDATA    WORD      ms_tick
*SFR* 000000CEH.4 DATA     BIT       MSTR
      00FF1636H   CODE     ---       OLED12864_IMG
      00FF1236H   CODE     ---       OLED12864_ZWU_LOGO
      00FF39DAH   CODE     ---       OLED_BuffClear
      00FF34F9H   CODE     ---       OLED_BuffShow
      00FF3404H   CODE     ---       OLED_BuffShowBMP
      00FF301AH   CODE     ---       OLED_BuffShowChar
      00FF3238H   CODE     ---       OLED_BuffShowChar32
      00FF0046H   CODE     ---       OLED_BuffShowCircle
      00FF2E29H   CODE     ---       OLED_BuffShowGBK
      00FF2D66H   CODE     ---       OLED_BuffShowLine
      00FF34AAH   CODE     ---       OLED_BuffShowNum
      00FF345BH   CODE     ---       OLED_BuffShowNum02F
      00FF3544H   CODE     ---       OLED_BuffShowPoint
      00FF3768H   CODE     ---       OLED_BuffShowRectangle
      00FF30A5H   CODE     ---       OLED_BuffShowString
*SFR* 000000C0H.5 DATA     BIT       OLED_CS
*SFR* 000000A0H.7 DATA     BIT       OLED_DC
      00FF3A9DH   CODE     ---       OLED_DisplayOff
      00FF3A88H   CODE     ---       OLED_DisplayOn
      00FF31B4H   CODE     ---       OLED_DrawBMP
      00FF2BB8H   CODE     ---       OLED_Init
*SFR* 000000A0H.6 DATA     BIT       OLED_REST
      00FF387FH   CODE     ---       OLED_Set_Pos
      00FF0026H   CODE     ---       OLED_WR_Byte
*SFR* 00000080H   DATA     BYTE      P0
*SFR* 00000094H   DATA     BYTE      P0M0
*SFR* 00000093H   DATA     BYTE      P0M1
*SFR* 00000090H   DATA     BYTE      P1
*SFR* 00000092H   DATA     BYTE      P1M0
*SFR* 00000091H   DATA     BYTE      P1M1
*SFR* 000000A0H   DATA     BYTE      P2
*SFR* 00000096H   DATA     BYTE      P2M0
*SFR* 00000095H   DATA     BYTE      P2M1
*SFR* 000000B0H   DATA     BYTE      P3
*SFR* 000000B2H   DATA     BYTE      P3M0
*SFR* 000000B1H   DATA     BYTE      P3M1
*SFR* 000000C0H   DATA     BYTE      P4
*SFR* 000000B4H   DATA     BYTE      P4M0
*SFR* 000000B3H   DATA     BYTE      P4M1
*SFR* 000000C8H   DATA     BYTE      P5
*SFR* 000000CAH   DATA     BYTE      P5M0
*SFR* 000000C9H   DATA     BYTE      P5M1
*SFR* 000000E8H   DATA     BYTE      P6
*SFR* 000000CCH   DATA     BYTE      P6M0
*SFR* 000000CBH   DATA     BYTE      P6M1
*SFR* 000000F8H   DATA     BYTE      P7
*SFR* 000000E2H   DATA     BYTE      P7M0
*SFR* 000000E1H   DATA     BYTE      P7M1
*SFR* 000000A2H   DATA     BYTE      P_SW1
*SFR* 000000BAH   DATA     BYTE      P_SW2
*SFR* 000000BBH   DATA     BYTE      P_SW3
*SFR* 00000087H   DATA     BYTE      PCON
      00FF2AB8H   CODE     ---       PID_Calc
      00FF3734H   CODE     ---       PID_Init
L251 LINKER/LOCATER V4.66.93.0                                                        03/15/2026  15:45:09  PAGE 10


      00FF3A10H   CODE     ---       PID_Reset
      00FF393DH   CODE     ---       Printf
*SFR* 000000D0H   DATA     BYTE      PSW
      00FF2EE7H   CODE     ---       PWM_Init
      00FF38F5H   CODE     ---       PWM_SetDuty
      00FF312DH   CODE     ---       PWMB_Encoder_Init
*SFR* 00000098H.0 DATA     BIT       RI
*SFR* 000000FFH   DATA     BYTE      RSTCFG
*SFR* 000000BAH.0 DATA     BIT       S2_S
*SFR* 0000009BH   DATA     BYTE      S2BUF
*SFR* 0000009AH   DATA     BYTE      S2CON
*SFR* 000000ACH   DATA     BYTE      S3CON
*SFR* 000000FDH   DATA     BYTE      S4CON
*SFR* 00000099H   DATA     BYTE      SBUF
*SFR* 00000098H   DATA     BYTE      SCON
      00010000H   XDATA    ---       ShowBUFF
*SFR* 000000CEH   DATA     BYTE      SPCTL
*SFR* 000000CFH   DATA     BYTE      SPDAT
*SFR* 000000CEH.6 DATA     BIT       SPEN
      00FF0003H   CODE     ---       SPI_DMA_Wait
      00FF37FEH   CODE     ---       SPI_Init
*SFR* 000000A0H.3 DATA     BIT       SPI_MOSI
*SFR* 000000A0H.5 DATA     BIT       SPI_SCK
      00FF391AH   CODE     ---       SPI_Transmit
      00FF3AC7H   CODE     ---       SPI_WriteByte
*SFR* 000000CDH.7 DATA     BIT       SPIF
      00FF1A36H   CODE     NEAR LAB  sprintf
*SFR* 000000CDH   DATA     BYTE      SPSTAT
*SFR* 000000CEH.7 DATA     BIT       SSIG
      00FF3B01H   CODE     ---       strlen?_
      00FF0149H   CODE     ---       Sys_init
*SFR* 000000D6H   DATA     BYTE      T2H
*SFR* 000000D7H   DATA     BYTE      T2L
*SFR* 000000DDH   DATA     BYTE      T4T3M
*SFR* 00000088H   DATA     BYTE      TCON
      000001F0H   EDATA    WORD      test_pwmb
*SFR* 00000088H.5 DATA     BIT       TF0
*SFR* 0000008CH   DATA     BYTE      TH0
*SFR* 0000008DH   DATA     BYTE      TH1
*SFR* 00000098H.1 DATA     BIT       TI
      00FF3AB2H   CODE     ---       Timer0_Init
      00FF2C9AH   CODE     ---       Timer0_ISR
*SFR* 0000008AH   DATA     BYTE      TL0
*SFR* 0000008BH   DATA     BYTE      TL1
*SFR* 00000089H   DATA     BYTE      TMOD
*SFR* 00000088H.4 DATA     BIT       TR0
*SFR* 00000088H.6 DATA     BIT       TR1
      00FF38D0H   CODE     ---       UART1_Init
      00FF000EH   CODE     ---       UART1_ISR
      00FF3B25H   CODE     ---       UART1_SendByte
      00FF3A5CH   CODE     ---       UART1_SendStr
      00FF3855H   CODE     ---       UART2_Init
      00FF339FH   CODE     ---       UART2_ISR
      00FF382BH   CODE     ---       UART2_ReadByte
      00000163H   EDATA    ---       uart2_rx_buf
      0000015FH   EDATA    BYTE      uart2_rx_head
      00000161H   EDATA    BYTE      uart2_rx_tail
      00FF35D0H   CODE     ---       UART2_SendByte
      00FF3A72H   CODE     ---       UART2_SendString
      000001A3H   EDATA    ---       uart2_tx_buf
      00000020H.2 BIT      BIT       uart2_tx_busy
      00000160H   EDATA    BYTE      uart2_tx_head
      00000162H   EDATA    BYTE      uart2_tx_tail
*SFR* 000000F4H   DATA     BYTE      USBCON
      00FF1A56H   CODE     NEAR LAB  vsprintf
L251 LINKER/LOCATER V4.66.93.0                                                        03/15/2026  15:45:09  PAGE 11


*SFR* 000000CDH.6 DATA     BIT       WCOL
*SFR* 000000C1H   DATA     BYTE      WDT_CONTR
*SFR* 000000E9H   DATA     BYTE      WTST



SYMBOL TABLE OF MODULE:  .\Objects\STC32G_Test_06_SPIĶØŠÅOLEDĘĮ (main)

      VALUE       REP       CLASS    TYPE      SYMBOL NAME
      ====================================================
      ---         MODULE    ---      ---       main
      00FF2C9AH   PUBLIC    CODE     ---       Timer0_ISR
      00FF39BFH   PUBLIC    CODE     ---       main
      00FF000EH   PUBLIC    CODE     ---       UART1_ISR
      00FF339FH   PUBLIC    CODE     ---       UART2_ISR
      00FF269FH   PUBLIC    CODE     ---       _m
      00FF379BH   PUBLIC    CODE     ---       CLK_Init
      00FF0149H   PUBLIC    CODE     ---       Sys_init
      000001E3H   PUBLIC    EDATA    INT       g_set_angle
      000001E5H   PUBLIC    EDATA    BYTE      g_ctrl_mode
      000001E6H   PUBLIC    EDATA    LONG      g_enc_total
      000001EAH   PUBLIC    EDATA    INT       g_set_speed
      000001EEH   PUBLIC    EDATA    INT       g_enc_cnt
      000001F0H   PUBLIC    EDATA    WORD      test_pwmb
      000001F2H   PUBLIC    EDATA    WORD      g_status_flags
      000001F4H   PUBLIC    EDATA    INT       g_motor_angle
      000001F6H   PUBLIC    EDATA    WORD      ms_tick
      00000212H   PUBLIC    EDATA    INT       g_motor_speed
      00FF0E36H   PUBLIC    CODE     ---       LCD12864_IMG
      00FF1236H   PUBLIC    CODE     ---       OLED12864_ZWU_LOGO
      00FF1636H   PUBLIC    CODE     ---       OLED12864_IMG
      00000020H.0 PUBLIC    BIT      BIT       disp_flag
      00000020H.1 PUBLIC    BIT      BIT       B_Change
      00000094H   SFRSYM    DATA     BYTE      P0M0
      000000D0H   SFRSYM    DATA     BYTE      PSW
      000000BAH.7 SFRSYM    DATA     BIT       EAXFR
      0000009DH   SFRSYM    DATA     BYTE      IRCBAND
      00000097H   SFRSYM    DATA     BYTE      AUXR2
      000000EAH   SFRSYM    DATA     BYTE      CKCON
      000000EFH   SFRSYM    DATA     BYTE      AUXINTIF
      000000FDH   SFRSYM    DATA     BYTE      S4CON
      000000ACH   SFRSYM    DATA     BYTE      S3CON
      0000009AH   SFRSYM    DATA     BYTE      S2CON
      0000009BH   SFRSYM    DATA     BYTE      S2BUF
      000000B7H   SFRSYM    DATA     BYTE      IPH
      000000CDH   SFRSYM    DATA     BYTE      SPSTAT
      000000DDH   SFRSYM    DATA     BYTE      T4T3M
      000000C1H   SFRSYM    DATA     BYTE      WDT_CONTR
      000000E9H   SFRSYM    DATA     BYTE      WTST
      000000DFH   SFRSYM    DATA     BYTE      IP3
      000000F4H   SFRSYM    DATA     BYTE      USBCON
      000000B5H   SFRSYM    DATA     BYTE      IP2
      000000FFH   SFRSYM    DATA     BYTE      RSTCFG
      000000E0H   SFRSYM    DATA     BYTE      ACC
      000000C7H   SFRSYM    DATA     BYTE      IAP_CONTR
      000000F9H   SFRSYM    DATA     BYTE      LINICR
      0000008EH   SFRSYM    DATA     BYTE      AUXR
      000000F0H   SFRSYM    DATA     BYTE      B
      000000AFH   SFRSYM    DATA     BYTE      IE2
      00000088H   SFRSYM    DATA     BYTE      TCON
      00000089H   SFRSYM    DATA     BYTE      TMOD
      00000098H   SFRSYM    DATA     BYTE      SCON
      000000F1H   SFRSYM    DATA     BYTE      CANICR
      00000087H   SFRSYM    DATA     BYTE      PCON
      00000099H   SFRSYM    DATA     BYTE      SBUF
L251 LINKER/LOCATER V4.66.93.0                                                        03/15/2026  15:45:09  PAGE 12


      000000BCH   SFRSYM    DATA     BYTE      ADC_CONTR
      000000E7H   SFRSYM    DATA     BYTE      CMPCR2
      000000E6H   SFRSYM    DATA     BYTE      CMPCR1
      00000098H.1 SFRSYM    DATA     BIT       TI
      00000098H.0 SFRSYM    DATA     BIT       RI
      000000DEH   SFRSYM    DATA     BYTE      ADCCFG
      000000B8H   SFRSYM    DATA     BYTE      IP
      0000008FH   SFRSYM    DATA     BYTE      INTCLKO
      000000EEH   SFRSYM    DATA     BYTE      IP3H
      000000B6H   SFRSYM    DATA     BYTE      IP2H
      000000A8H   SFRSYM    DATA     BYTE      IE
      000000BBH   SFRSYM    DATA     BYTE      P_SW3
      000000BAH   SFRSYM    DATA     BYTE      P_SW2
      000000A2H   SFRSYM    DATA     BYTE      P_SW1
      000000CEH   SFRSYM    DATA     BYTE      SPCTL
      000000F8H   SFRSYM    DATA     BYTE      P7
      000000E1H   SFRSYM    DATA     BYTE      P7M1
      000000E8H   SFRSYM    DATA     BYTE      P6
      000000C8H   SFRSYM    DATA     BYTE      P5
      000000CBH   SFRSYM    DATA     BYTE      P6M1
      000000E2H   SFRSYM    DATA     BYTE      P7M0
      000000C0H   SFRSYM    DATA     BYTE      P4
      000000C9H   SFRSYM    DATA     BYTE      P5M1
      000000CCH   SFRSYM    DATA     BYTE      P6M0
      000000B0H   SFRSYM    DATA     BYTE      P3
      000000B3H   SFRSYM    DATA     BYTE      P4M1
      000000CAH   SFRSYM    DATA     BYTE      P5M0
      000000A0H   SFRSYM    DATA     BYTE      P2
      000000B1H   SFRSYM    DATA     BYTE      P3M1
      000000B4H   SFRSYM    DATA     BYTE      P4M0
      00000090H   SFRSYM    DATA     BYTE      P1
      00000095H   SFRSYM    DATA     BYTE      P2M1
      000000B2H   SFRSYM    DATA     BYTE      P3M0
      00000080H   SFRSYM    DATA     BYTE      P0
      00000091H   SFRSYM    DATA     BYTE      P1M1
      00000096H   SFRSYM    DATA     BYTE      P2M0
      00000092H   SFRSYM    DATA     BYTE      P1M0
      00000093H   SFRSYM    DATA     BYTE      P0M1
      00FF332FH   SYMBOL    CODE     ---       Modbus_SyncRegs
      00FF2503H   SYMBOL    CODE     ---       Motor_ControlUpdate
      000001ECH   SYMBOL    EDATA    INT       g_enc_last
      000001F8H   SYMBOL    EDATA    ---       g_pid_angle
      00000214H   SYMBOL    EDATA    ---       g_pid_speed

      00FF332FH   BLOCK     CODE     ---       LVL=0
      R7          REGSYM    ---      BYTE      k
      00FF332FH   LINE      CODE     ---       #137
      00FF332FH   LINE      CODE     ---       #138
      00FF332FH   LINE      CODE     ---       #142
      00FF3337H   LINE      CODE     ---       #143
      00FF333FH   LINE      CODE     ---       #144
      00FF3349H   LINE      CODE     ---       #145
      00FF334DH   LINE      CODE     ---       #146
      00FF3355H   LINE      CODE     ---       #147
      00FF335DH   LINE      CODE     ---       #150
      00FF3360H   LINE      CODE     ---       #151
      00FF3370H   LINE      CODE     ---       #154
      00FF3378H   LINE      CODE     ---       #155
      00FF3380H   LINE      CODE     ---       #156
      00FF3388H   LINE      CODE     ---       #159
      00FF3394H   LINE      CODE     ---       #161
      00FF3398H   LINE      CODE     ---       #162
      00FF339EH   LINE      CODE     ---       #163
      ---         BLOCKEND  ---      ---       LVL=0

L251 LINKER/LOCATER V4.66.93.0                                                        03/15/2026  15:45:09  PAGE 13


      00FF2503H   BLOCK     CODE     ---       LVL=0
      00FF2507H   BLOCK     CODE     NEAR LAB  LVL=1
      000000C7H   SYMBOL    EDATA    LONG      pwm_out
      WR6         REGSYM    ---      INT       speed_setpoint
      WR14        REGSYM    ---      WORD      pwm_duty
      00FF25B7H   BLOCK     CODE     NEAR LAB  LVL=2
      WR4         REGSYM    ---      INT       angle_err
      ---         BLOCKEND  ---      ---       LVL=2
      ---         BLOCKEND  ---      ---       LVL=1
      00FF2503H   LINE      CODE     ---       #178
      00FF2507H   LINE      CODE     ---       #179
      00FF2507H   LINE      CODE     ---       #185
      00FF2513H   LINE      CODE     ---       #187
      00FF2518H   LINE      CODE     ---       #188
      00FF251FH   LINE      CODE     ---       #189
      00FF2526H   LINE      CODE     ---       #190
      00FF2529H   LINE      CODE     ---       #191
      00FF2529H   LINE      CODE     ---       #193
      00FF253DH   LINE      CODE     ---       #196
      00FF253DH   LINE      CODE     ---       #205
      00FF2547H   LINE      CODE     ---       #207
      00FF254FH   LINE      CODE     ---       #208
      00FF2557H   LINE      CODE     ---       #211
      00FF2559H   LINE      CODE     ---       #214
      00FF2561H   LINE      CODE     ---       #215
      00FF2588H   LINE      CODE     ---       #218
      00FF2588H   LINE      CODE     ---       #221
      00FF2590H   LINE      CODE     ---       #223
      00FF2590H   LINE      CODE     ---       #224
      00FF2590H   LINE      CODE     ---       #225
      00FF2592H   LINE      CODE     ---       #226
      00FF2592H   LINE      CODE     ---       #228
      00FF2598H   LINE      CODE     ---       #229
      00FF25A5H   LINE      CODE     ---       #230
      00FF25A5H   LINE      CODE     ---       #231
      00FF25A8H   LINE      CODE     ---       #234
      00FF25A8H   LINE      CODE     ---       #246
      00FF25B7H   LINE      CODE     ---       #251
      00FF25B7H   LINE      CODE     ---       #252
      00FF25BFH   LINE      CODE     ---       #253
      00FF25CBH   LINE      CODE     ---       #254
      00FF25D1H   LINE      CODE     ---       #256
      00FF25DCH   LINE      CODE     ---       #257
      00FF25E1H   LINE      CODE     ---       #258
      00FF25E5H   LINE      CODE     ---       #260
      00FF25E8H   LINE      CODE     ---       #261
      00FF25E8H   LINE      CODE     ---       #264
      00FF25F3H   LINE      CODE     ---       #265
      00FF25F3H   LINE      CODE     ---       #269
      00FF25F9H   LINE      CODE     ---       #270
      00FF2605H   LINE      CODE     ---       #273
      00FF260FH   LINE      CODE     ---       #274
      00FF2615H   LINE      CODE     ---       #275
      00FF2615H   LINE      CODE     ---       #278
      00FF2636H   LINE      CODE     ---       #282
      00FF2638H   LINE      CODE     ---       #283
      00FF2642H   LINE      CODE     ---       #284
      00FF2642H   LINE      CODE     ---       #285
      00FF2644H   LINE      CODE     ---       #288
      00FF2644H   LINE      CODE     ---       #289
      00FF264BH   LINE      CODE     ---       #290
      00FF2652H   LINE      CODE     ---       #291
      00FF2656H   LINE      CODE     ---       #292
      00FF2660H   LINE      CODE     ---       #293
      00FF2665H   LINE      CODE     ---       #294
L251 LINKER/LOCATER V4.66.93.0                                                        03/15/2026  15:45:09  PAGE 14


      00FF2667H   LINE      CODE     ---       #296
      00FF2667H   LINE      CODE     ---       #297
      00FF266CH   LINE      CODE     ---       #298
      00FF2673H   LINE      CODE     ---       #299
      00FF267AH   LINE      CODE     ---       #300
      00FF267AH   LINE      CODE     ---       #301
      00FF267AH   LINE      CODE     ---       #304
      00FF2686H   LINE      CODE     ---       #305
      00FF268FH   LINE      CODE     ---       #307
      00FF269AH   LINE      CODE     ---       #308
      ---         BLOCKEND  ---      ---       LVL=0

      00FF379BH   BLOCK     CODE     ---       LVL=0
      00FF379BH   LINE      CODE     ---       #313
      00FF379BH   LINE      CODE     ---       #315
      00FF379EH   LINE      CODE     ---       #316
      00FF37ABH   LINE      CODE     ---       #317
      00FF37B9H   LINE      CODE     ---       #318
      00FF37C5H   LINE      CODE     ---       #319
      00FF37CCH   LINE      CODE     ---       #320
      ---         BLOCKEND  ---      ---       LVL=0

      00FF0149H   BLOCK     CODE     ---       LVL=0
      00FF0149H   LINE      CODE     ---       #322
      00FF0149H   LINE      CODE     ---       #324
      00FF014CH   LINE      CODE     ---       #325
      00FF014FH   LINE      CODE     ---       #326
      00FF0152H   LINE      CODE     ---       #328
      00FF0158H   LINE      CODE     ---       #329
      00FF015EH   LINE      CODE     ---       #330
      00FF0164H   LINE      CODE     ---       #331
      00FF016AH   LINE      CODE     ---       #332
      00FF0170H   LINE      CODE     ---       #333
      00FF0176H   LINE      CODE     ---       #334
      00FF017CH   LINE      CODE     ---       #335
      00FF0182H   LINE      CODE     ---       #337
      00FF0185H   LINE      CODE     ---       #338
      00FF0188H   LINE      CODE     ---       #339
      ---         BLOCKEND  ---      ---       LVL=0

      00FF39BFH   BLOCK     CODE     ---       LVL=0
      00FF39BFH   LINE      CODE     ---       #344
      ---         BLOCKEND  ---      ---       LVL=0

      00FF269FH   BLOCK     CODE     ---       LVL=0
      00FF269FH   LINE      CODE     ---       #344
      00FF269FH   LINE      CODE     ---       #345
      00FF269FH   LINE      CODE     ---       #348
      00FF26A2H   LINE      CODE     ---       #349
      00FF26A5H   LINE      CODE     ---       #350
      00FF26A8H   LINE      CODE     ---       #351
      00FF26ABH   LINE      CODE     ---       #352
      00FF26AEH   LINE      CODE     ---       #353
      00FF26B1H   LINE      CODE     ---       #354
      00FF26B4H   LINE      CODE     ---       #355
      00FF26B7H   LINE      CODE     ---       #356
      00FF26BAH   LINE      CODE     ---       #357
      00FF26BFH   LINE      CODE     ---       #359
      00FF26C2H   LINE      CODE     ---       #360
      00FF26C7H   LINE      CODE     ---       #362
      00FF26F2H   LINE      CODE     ---       #368
      00FF2721H   LINE      CODE     ---       #375
      00FF2727H   LINE      CODE     ---       #376
      00FF272BH   LINE      CODE     ---       #377
      00FF272FH   LINE      CODE     ---       #378
L251 LINKER/LOCATER V4.66.93.0                                                        03/15/2026  15:45:09  PAGE 15


      00FF2733H   LINE      CODE     ---       #381
      00FF2738H   LINE      CODE     ---       #384
      00FF273BH   LINE      CODE     ---       #385
      00FF273EH   LINE      CODE     ---       #386
      00FF2741H   LINE      CODE     ---       #387
      00FF2751H   LINE      CODE     ---       #388
      00FF2762H   LINE      CODE     ---       #389
      00FF2765H   LINE      CODE     ---       #391
      00FF2765H   LINE      CODE     ---       #394
      00FF2768H   LINE      CODE     ---       #397
      00FF276BH   LINE      CODE     ---       #400
      00FF276EH   LINE      CODE     ---       #403
      00FF2771H   LINE      CODE     ---       #405
      00FF2773H   LINE      CODE     ---       #407
      00FF2784H   LINE      CODE     ---       #409
      00FF27A7H   LINE      CODE     ---       #411
      00FF27AAH   LINE      CODE     ---       #414
      00FF2802H   LINE      CODE     ---       #420
      ---         BLOCKEND  ---      ---       LVL=0

      00FF000EH   BLOCK     CODE     ---       LVL=0
      00FF0012H   BLOCK     CODE     NEAR LAB  LVL=1
      ---         BLOCKEND  ---      ---       LVL=1
      00FF000EH   LINE      CODE     ---       #427
      00FF0012H   LINE      CODE     ---       #428
      00FF0012H   LINE      CODE     ---       #430
      00FF0015H   LINE      CODE     ---       #432
      00FF0017H   LINE      CODE     ---       #433
      00FF0019H   LINE      CODE     ---       #434
      00FF0019H   LINE      CODE     ---       #435
      00FF001CH   LINE      CODE     ---       #437
      00FF001EH   LINE      CODE     ---       #438
      ---         BLOCKEND  ---      ---       LVL=0

      00FF339FH   BLOCK     CODE     ---       LVL=0
      00FF339FH   LINE      CODE     ---       #444
      00FF33B5H   LINE      CODE     ---       #446
      00FF33BAH   LINE      CODE     ---       #448
      00FF33BDH   LINE      CODE     ---       #449
      00FF33C2H   LINE      CODE     ---       #450
      00FF33C2H   LINE      CODE     ---       #452
      00FF33C7H   LINE      CODE     ---       #454
      00FF33CAH   LINE      CODE     ---       #455
      00FF33D4H   LINE      CODE     ---       #457
      00FF33DCH   LINE      CODE     ---       #458
      00FF33E9H   LINE      CODE     ---       #459
      00FF33EBH   LINE      CODE     ---       #462
      00FF33EDH   LINE      CODE     ---       #463
      00FF33EDH   LINE      CODE     ---       #464
      ---         BLOCKEND  ---      ---       LVL=0

      00FF2C9AH   BLOCK     CODE     ---       LVL=0
      00FF2CB0H   BLOCK     CODE     NEAR LAB  LVL=1
      WR4         REGSYM    ---      INT       enc_now
      WR6         REGSYM    ---      INT       enc_delta
      00FF2D07H   BLOCK     CODE     NEAR LAB  LVL=2
      DR4         REGSYM    ---      LONG      rem
      ---         BLOCKEND  ---      ---       LVL=2
      ---         BLOCKEND  ---      ---       LVL=1
      00FF2C9AH   LINE      CODE     ---       #470
      00FF2CB0H   LINE      CODE     ---       #471
      00FF2CB0H   LINE      CODE     ---       #475
      00FF2CBAH   LINE      CODE     ---       #478
      00FF2CBDH   LINE      CODE     ---       #481
      00FF2CC0H   LINE      CODE     ---       #484
L251 LINKER/LOCATER V4.66.93.0                                                        03/15/2026  15:45:09  PAGE 16


      00FF2CCEH   LINE      CODE     ---       #486
      00FF2CD3H   LINE      CODE     ---       #487
      00FF2CD7H   LINE      CODE     ---       #488
      00FF2CDBH   LINE      CODE     ---       #489
      00FF2CDFH   LINE      CODE     ---       #492
      00FF2CEFH   LINE      CODE     ---       #501
      00FF2D07H   LINE      CODE     ---       #510
      00FF2D07H   LINE      CODE     ---       #511
      00FF2D12H   LINE      CODE     ---       #512
      00FF2D1CH   LINE      CODE     ---       #513
      00FF2D2CH   LINE      CODE     ---       #517
      00FF2D2FH   LINE      CODE     ---       #518
      00FF2D2FH   LINE      CODE     ---       #521
      00FF2D3DH   LINE      CODE     ---       #523
      00FF2D3FH   LINE      CODE     ---       #524
      00FF2D3FH   LINE      CODE     ---       #526
      00FF2D4FH   LINE      CODE     ---       #527
      ---         BLOCKEND  ---      ---       LVL=0

      ---         MODULE    ---      ---       oled
      00FF2E29H   PUBLIC    CODE     ---       OLED_BuffShowGBK
      00FF0046H   PUBLIC    CODE     ---       OLED_BuffShowCircle
      00FF345BH   PUBLIC    CODE     ---       OLED_BuffShowNum02F
      00FF3404H   PUBLIC    CODE     ---       OLED_BuffShowBMP
      00FF3238H   PUBLIC    CODE     ---       OLED_BuffShowChar32
      00FF2BB8H   PUBLIC    CODE     ---       OLED_Init
      00FF3A88H   PUBLIC    CODE     ---       OLED_DisplayOn
      00FF0026H   PUBLIC    CODE     ---       OLED_WR_Byte
      00FF30A5H   PUBLIC    CODE     ---       OLED_BuffShowString
      00FF34F9H   PUBLIC    CODE     ---       OLED_BuffShow
      00FF301AH   PUBLIC    CODE     ---       OLED_BuffShowChar
      00FF2D66H   PUBLIC    CODE     ---       OLED_BuffShowLine
      00FF3544H   PUBLIC    CODE     ---       OLED_BuffShowPoint
      00FF387FH   PUBLIC    CODE     ---       OLED_Set_Pos
      00FF3768H   PUBLIC    CODE     ---       OLED_BuffShowRectangle
      00FF3A45H   PUBLIC    CODE     ---       delay_ms
      00FF34AAH   PUBLIC    CODE     ---       OLED_BuffShowNum
      00FF39DAH   PUBLIC    CODE     ---       OLED_BuffClear
      00FF31B4H   PUBLIC    CODE     ---       OLED_DrawBMP
      00FF3A9DH   PUBLIC    CODE     ---       OLED_DisplayOff
      00FF018EH   PUBLIC    CODE     ---       lib_num1632
      00FF048EH   PUBLIC    CODE     ---       Ascll_16
      00FF0A7EH   PUBLIC    CODE     ---       GBK16
      00010000H   PUBLIC    XDATA    ---       ShowBUFF
      000000D0H   SFRSYM    DATA     BYTE      PSW
      0000009DH   SFRSYM    DATA     BYTE      IRCBAND
      00000097H   SFRSYM    DATA     BYTE      AUXR2
      000000EFH   SFRSYM    DATA     BYTE      AUXINTIF
      000000FDH   SFRSYM    DATA     BYTE      S4CON
      000000ACH   SFRSYM    DATA     BYTE      S3CON
      0000009AH   SFRSYM    DATA     BYTE      S2CON
      000000B7H   SFRSYM    DATA     BYTE      IPH
      000000CDH   SFRSYM    DATA     BYTE      SPSTAT
      000000DDH   SFRSYM    DATA     BYTE      T4T3M
      000000C1H   SFRSYM    DATA     BYTE      WDT_CONTR
      000000DFH   SFRSYM    DATA     BYTE      IP3
      000000F4H   SFRSYM    DATA     BYTE      USBCON
      000000B5H   SFRSYM    DATA     BYTE      IP2
      000000FFH   SFRSYM    DATA     BYTE      RSTCFG
      000000E0H   SFRSYM    DATA     BYTE      ACC
      000000A0H.6 SFRSYM    DATA     BIT       OLED_REST
      000000C7H   SFRSYM    DATA     BYTE      IAP_CONTR
      000000F9H   SFRSYM    DATA     BYTE      LINICR
      0000008EH   SFRSYM    DATA     BYTE      AUXR
      000000F0H   SFRSYM    DATA     BYTE      B
L251 LINKER/LOCATER V4.66.93.0                                                        03/15/2026  15:45:09  PAGE 17


      000000AFH   SFRSYM    DATA     BYTE      IE2
      00000088H   SFRSYM    DATA     BYTE      TCON
      00000089H   SFRSYM    DATA     BYTE      TMOD
      00000098H   SFRSYM    DATA     BYTE      SCON
      000000F1H   SFRSYM    DATA     BYTE      CANICR
      00000087H   SFRSYM    DATA     BYTE      PCON
      000000BCH   SFRSYM    DATA     BYTE      ADC_CONTR
      000000E7H   SFRSYM    DATA     BYTE      CMPCR2
      000000E6H   SFRSYM    DATA     BYTE      CMPCR1
      000000C0H.5 SFRSYM    DATA     BIT       OLED_CS
      000000DEH   SFRSYM    DATA     BYTE      ADCCFG
      000000B8H   SFRSYM    DATA     BYTE      IP
      0000008FH   SFRSYM    DATA     BYTE      INTCLKO
      000000EEH   SFRSYM    DATA     BYTE      IP3H
      000000B6H   SFRSYM    DATA     BYTE      IP2H
      000000A8H   SFRSYM    DATA     BYTE      IE
      000000BBH   SFRSYM    DATA     BYTE      P_SW3
      000000BAH   SFRSYM    DATA     BYTE      P_SW2
      000000A0H.7 SFRSYM    DATA     BIT       OLED_DC
      000000A2H   SFRSYM    DATA     BYTE      P_SW1
      000000CEH   SFRSYM    DATA     BYTE      SPCTL
      000000F8H   SFRSYM    DATA     BYTE      P7
      000000E8H   SFRSYM    DATA     BYTE      P6
      000000C8H   SFRSYM    DATA     BYTE      P5
      000000C0H   SFRSYM    DATA     BYTE      P4
      000000B0H   SFRSYM    DATA     BYTE      P3
      000000A0H   SFRSYM    DATA     BYTE      P2
      00000090H   SFRSYM    DATA     BYTE      P1
      00000080H   SFRSYM    DATA     BYTE      P0
      00FF3B0FH   SYMBOL    CODE     ---       delay

      00FF3B0FH   BLOCK     CODE     ---       LVL=0
      WR6         REGSYM    ---      INT       i
      00FF3B0FH   LINE      CODE     ---       #28
      00FF3B0FH   LINE      CODE     ---       #29
      00FF3B0FH   LINE      CODE     ---       #31
      00FF3B19H   LINE      CODE     ---       #32
      ---         BLOCKEND  ---      ---       LVL=0

      00FF3A45H   BLOCK     CODE     ---       LVL=0
      WR4         REGSYM    ---      WORD      ms
      00FF3A47H   BLOCK     CODE     NEAR LAB  LVL=1
      WR6         REGSYM    ---      WORD      i
      ---         BLOCKEND  ---      ---       LVL=1
      00FF3A45H   LINE      CODE     ---       #34
      00FF3A47H   LINE      CODE     ---       #35
      00FF3A47H   LINE      CODE     ---       #37
      00FF3A47H   LINE      CODE     ---       #38
      00FF3A4BH   LINE      CODE     ---       #39
      00FF3A53H   LINE      CODE     ---       #40
      00FF3A5BH   LINE      CODE     ---       #41
      ---         BLOCKEND  ---      ---       LVL=0

      00FF0026H   BLOCK     CODE     ---       LVL=0
      R7          REGSYM    ---      BYTE      dat
      R10         REGSYM    ---      BYTE      cmd
      00FF0026H   LINE      CODE     ---       #48
      00FF002AH   LINE      CODE     ---       #50
      00FF002EH   LINE      CODE     ---       #51
      00FF0032H   LINE      CODE     ---       #53
      00FF0034H   LINE      CODE     ---       #55
      00FF0036H   LINE      CODE     ---       #56
      00FF003BH   LINE      CODE     ---       #57
      00FF003EH   LINE      CODE     ---       #58
      00FF0040H   LINE      CODE     ---       #59
L251 LINKER/LOCATER V4.66.93.0                                                        03/15/2026  15:45:09  PAGE 18


      00FF0042H   LINE      CODE     ---       #60
      ---         BLOCKEND  ---      ---       LVL=0

      00FF2BB8H   BLOCK     CODE     ---       LVL=0
      00FF2BB8H   LINE      CODE     ---       #65
      00FF2BB8H   LINE      CODE     ---       #67
      00FF2BBBH   LINE      CODE     ---       #68
      00FF2BC2H   LINE      CODE     ---       #69
      00FF2BC4H   LINE      CODE     ---       #70
      00FF2BCBH   LINE      CODE     ---       #71
      00FF2BCDH   LINE      CODE     ---       #72
      00FF2BD4H   LINE      CODE     ---       #73
      00FF2BD6H   LINE      CODE     ---       #75
      00FF2BDDH   LINE      CODE     ---       #76
      00FF2BE3H   LINE      CODE     ---       #77
      00FF2BEAH   LINE      CODE     ---       #78
      00FF2BF1H   LINE      CODE     ---       #79
      00FF2BF8H   LINE      CODE     ---       #80
      00FF2BFFH   LINE      CODE     ---       #81
      00FF2C06H   LINE      CODE     ---       #82
      00FF2C0DH   LINE      CODE     ---       #83
      00FF2C14H   LINE      CODE     ---       #84
      00FF2C1BH   LINE      CODE     ---       #85
      00FF2C22H   LINE      CODE     ---       #86
      00FF2C29H   LINE      CODE     ---       #87
      00FF2C2FH   LINE      CODE     ---       #88
      00FF2C36H   LINE      CODE     ---       #89
      00FF2C3DH   LINE      CODE     ---       #90
      00FF2C44H   LINE      CODE     ---       #91
      00FF2C4BH   LINE      CODE     ---       #92
      00FF2C52H   LINE      CODE     ---       #93
      00FF2C59H   LINE      CODE     ---       #94
      00FF2C60H   LINE      CODE     ---       #95
      00FF2C67H   LINE      CODE     ---       #96
      00FF2C6EH   LINE      CODE     ---       #97
      00FF2C74H   LINE      CODE     ---       #98
      00FF2C7BH   LINE      CODE     ---       #99
      00FF2C82H   LINE      CODE     ---       #100
      00FF2C89H   LINE      CODE     ---       #101
      00FF2C90H   LINE      CODE     ---       #102
      00FF2C97H   LINE      CODE     ---       #104
      ---         BLOCKEND  ---      ---       LVL=0

      00FF387FH   BLOCK     CODE     ---       LVL=0
      R15         REGSYM    ---      BYTE      x
      R10         REGSYM    ---      BYTE      y
      00FF387FH   LINE      CODE     ---       #110
      00FF3883H   LINE      CODE     ---       #112
      00FF388CH   LINE      CODE     ---       #113
      00FF389AH   LINE      CODE     ---       #114
      00FF38A5H   LINE      CODE     ---       #115
      ---         BLOCKEND  ---      ---       LVL=0

      00FF34F9H   BLOCK     CODE     ---       LVL=0
      00FF34FDH   BLOCK     CODE     NEAR LAB  LVL=1
      R15         REGSYM    ---      BYTE      i
      REG=6       REGSYM    ---      ---       row
      ---         BLOCKEND  ---      ---       LVL=1
      00FF34F9H   LINE      CODE     ---       #133
      00FF34FDH   LINE      CODE     ---       #134
      00FF34FDH   LINE      CODE     ---       #138
      00FF34FFH   LINE      CODE     ---       #140
      00FF3508H   LINE      CODE     ---       #142
      00FF350AH   LINE      CODE     ---       #143
      00FF350CH   LINE      CODE     ---       #144
L251 LINKER/LOCATER V4.66.93.0                                                        03/15/2026  15:45:09  PAGE 19


      00FF3515H   LINE      CODE     ---       #145
      00FF3519H   LINE      CODE     ---       #146
      00FF351EH   LINE      CODE     ---       #147
      00FF3520H   LINE      CODE     ---       #149
      00FF3522H   LINE      CODE     ---       #150
      00FF3524H   LINE      CODE     ---       #151
      00FF3526H   LINE      CODE     ---       #153
      00FF3533H   LINE      CODE     ---       #154
      00FF3536H   LINE      CODE     ---       #156
      00FF3538H   LINE      CODE     ---       #157
      00FF353FH   LINE      CODE     ---       #158
      ---         BLOCKEND  ---      ---       LVL=0

      00FF39DAH   BLOCK     CODE     ---       LVL=0
      REG=3       REGSYM    ---      ---       p
      WR4         REGSYM    ---      WORD      n
      00FF39DAH   LINE      CODE     ---       #164
      00FF39DAH   LINE      CODE     ---       #165
      00FF39DAH   LINE      CODE     ---       #166
      00FF39DEH   LINE      CODE     ---       #168
      00FF39E0H   LINE      CODE     ---       #169
      00FF39F4H   LINE      CODE     ---       #170
      ---         BLOCKEND  ---      ---       LVL=0

      00FF3A88H   BLOCK     CODE     ---       LVL=0
      00FF3A88H   LINE      CODE     ---       #172
      00FF3A88H   LINE      CODE     ---       #174
      00FF3A8FH   LINE      CODE     ---       #175
      00FF3A96H   LINE      CODE     ---       #176
      ---         BLOCKEND  ---      ---       LVL=0

      00FF3A9DH   BLOCK     CODE     ---       LVL=0
      00FF3A9DH   LINE      CODE     ---       #179
      00FF3A9DH   LINE      CODE     ---       #181
      00FF3AA4H   LINE      CODE     ---       #182
      00FF3AABH   LINE      CODE     ---       #183
      ---         BLOCKEND  ---      ---       LVL=0

      00FF31B4H   BLOCK     CODE     ---       LVL=0
      00000014H   SYMBOL    EDATA    BYTE      x0
      00000015H   SYMBOL    EDATA    BYTE      y0
      00000016H   SYMBOL    EDATA    BYTE      x1
      00000017H   SYMBOL    EDATA    BYTE      y1
      REG=3       REGSYM    ---      ---       BMP
      00FF31C8H   BLOCK     CODE     NEAR LAB  LVL=1
      00010414H   SYMBOL    XDATA    WORD      j
      00010416H   SYMBOL    XDATA    BYTE      x
      00000018H   SYMBOL    EDATA    BYTE      y
      ---         BLOCKEND  ---      ---       LVL=1
      00FF31B4H   LINE      CODE     ---       #186
      00FF31C8H   LINE      CODE     ---       #188
      00FF31C8H   LINE      CODE     ---       #189
      00FF31D0H   LINE      CODE     ---       #191
      00FF31DAH   LINE      CODE     ---       #193
      00FF31E5H   LINE      CODE     ---       #194
      00FF31ECH   LINE      CODE     ---       #195
      00FF3216H   LINE      CODE     ---       #196
      00FF3235H   LINE      CODE     ---       #197
      ---         BLOCKEND  ---      ---       LVL=0

      00FF3544H   BLOCK     CODE     ---       LVL=0
      R2          REGSYM    ---      BYTE      x
      R3          REGSYM    ---      BYTE      y
      00FF3544H   LINE      CODE     ---       #199
      00FF3548H   LINE      CODE     ---       #201
L251 LINKER/LOCATER V4.66.93.0                                                        03/15/2026  15:45:09  PAGE 20


      00FF358CH   LINE      CODE     ---       #202
      ---         BLOCKEND  ---      ---       LVL=0

      00FF2D66H   BLOCK     CODE     ---       LVL=0
      R14         REGSYM    ---      BYTE      x1
      R15         REGSYM    ---      BYTE      y1
      R12         REGSYM    ---      BYTE      x2
      R13         REGSYM    ---      BYTE      y2
      00FF2D70H   BLOCK     CODE     NEAR LAB  LVL=1
      0000001DH   SYMBOL    EDATA    BYTE      x
      0000001EH   SYMBOL    EDATA    BYTE      y
      ---         BLOCKEND  ---      ---       LVL=1
      00FF2D66H   LINE      CODE     ---       #204
      00FF2D70H   LINE      CODE     ---       #206
      00FF2D70H   LINE      CODE     ---       #208
      00FF2D88H   LINE      CODE     ---       #209
      00FF2D8CH   LINE      CODE     ---       #211
      00FF2D92H   LINE      CODE     ---       #213
      00FF2D96H   LINE      CODE     ---       #214
      00FF2DB4H   LINE      CODE     ---       #216
      00FF2DD3H   LINE      CODE     ---       #217
      00FF2DE2H   LINE      CODE     ---       #218
      00FF2DE4H   LINE      CODE     ---       #221
      00FF2E08H   LINE      CODE     ---       #222
      00FF2E26H   LINE      CODE     ---       #223
      00FF2E26H   LINE      CODE     ---       #224
      ---         BLOCKEND  ---      ---       LVL=0

      00FF3768H   BLOCK     CODE     ---       LVL=0
      R12         REGSYM    ---      BYTE      x1
      R13         REGSYM    ---      BYTE      y1
      R14         REGSYM    ---      BYTE      x2
      R15         REGSYM    ---      BYTE      y2
      00FF3768H   LINE      CODE     ---       #226
      00FF3772H   LINE      CODE     ---       #229
      00FF3777H   LINE      CODE     ---       #230
      00FF3782H   LINE      CODE     ---       #231
      00FF378DH   LINE      CODE     ---       #232
      00FF3798H   LINE      CODE     ---       #233
      ---         BLOCKEND  ---      ---       LVL=0

      00FF0046H   BLOCK     CODE     ---       LVL=0
      R14         REGSYM    ---      BYTE      x
      R15         REGSYM    ---      BYTE      y
      R10         REGSYM    ---      BYTE      r
      00FF004EH   BLOCK     CODE     NEAR LAB  LVL=1
      WR12        REGSYM    ---      INT       a
      00000008H   SYMBOL    EDATA    INT       b
      0000000AH   SYMBOL    EDATA    INT       di
      0000000CH   SYMBOL    EDATA    BYTE      x_add_a
      0000000DH   SYMBOL    EDATA    BYTE      x_add_b
      0000000EH   SYMBOL    EDATA    BYTE      x_sub_a
      0000000FH   SYMBOL    EDATA    BYTE      x_sub_b
      00000010H   SYMBOL    EDATA    BYTE      y_add_a
      00000011H   SYMBOL    EDATA    BYTE      y_add_b
      00000012H   SYMBOL    EDATA    BYTE      y_sub_a
      00000013H   SYMBOL    EDATA    BYTE      y_sub_b
      ---         BLOCKEND  ---      ---       LVL=1
      00FF0046H   LINE      CODE     ---       #235
      00FF004EH   LINE      CODE     ---       #236
      00FF004EH   LINE      CODE     ---       #240
      00FF0060H   LINE      CODE     ---       #241
      00FF0063H   LINE      CODE     ---       #243
      00FF0087H   LINE      CODE     ---       #244
      00FF00ABH   LINE      CODE     ---       #245
L251 LINKER/LOCATER V4.66.93.0                                                        03/15/2026  15:45:09  PAGE 21


      00FF00AEH   LINE      CODE     ---       #246
      00FF00B9H   LINE      CODE     ---       #247
      00FF00C4H   LINE      CODE     ---       #248
      00FF00CFH   LINE      CODE     ---       #249
      00FF00DAH   LINE      CODE     ---       #250
      00FF00E5H   LINE      CODE     ---       #251
      00FF00F0H   LINE      CODE     ---       #252
      00FF00FBH   LINE      CODE     ---       #253
      00FF00FDH   LINE      CODE     ---       #254
      00FF011BH   LINE      CODE     ---       #255
      00FF013BH   LINE      CODE     ---       #256
      00FF0146H   LINE      CODE     ---       #257
      ---         BLOCKEND  ---      ---       LVL=0

      00FF301AH   BLOCK     CODE     ---       LVL=0
      R9          REGSYM    ---      BYTE      x
      R0          REGSYM    ---      BYTE      y
      R1          REGSYM    ---      CHAR      asc
      R8          REGSYM    ---      BYTE      mode
      00FF3022H   BLOCK     CODE     NEAR LAB  LVL=1
      R7          REGSYM    ---      BYTE      j
      R6          REGSYM    ---      BYTE      k
      ---         BLOCKEND  ---      ---       LVL=1
      00FF301AH   LINE      CODE     ---       #259
      00FF3022H   LINE      CODE     ---       #261
      00FF3022H   LINE      CODE     ---       #263
      00FF3024H   LINE      CODE     ---       #264
      00FF3026H   LINE      CODE     ---       #266
      00FF302AH   LINE      CODE     ---       #267
      00FF304DH   LINE      CODE     ---       #269
      00FF3097H   LINE      CODE     ---       #270
      00FF30A4H   LINE      CODE     ---       #271
      ---         BLOCKEND  ---      ---       LVL=0

      00FF2E29H   BLOCK     CODE     ---       LVL=0
      R0          REGSYM    ---      BYTE      x
      R1          REGSYM    ---      BYTE      y
      REG=7       REGSYM    ---      ---       gbk
      R9          REGSYM    ---      BYTE      mode
      00FF2E31H   BLOCK     CODE     NEAR LAB  LVL=1
      R8          REGSYM    ---      BYTE      i
      R7          REGSYM    ---      BYTE      j
      R6          REGSYM    ---      BYTE      k
      ---         BLOCKEND  ---      ---       LVL=1
      00FF2E29H   LINE      CODE     ---       #273
      00FF2E31H   LINE      CODE     ---       #275
      00FF2E31H   LINE      CODE     ---       #277
      00FF2E33H   LINE      CODE     ---       #279
      00FF2E64H   LINE      CODE     ---       #281
      00FF2E66H   LINE      CODE     ---       #282
      00FF2E68H   LINE      CODE     ---       #284
      00FF2E6CH   LINE      CODE     ---       #285
      00FF2E8AH   LINE      CODE     ---       #287
      00FF2ECFH   LINE      CODE     ---       #288
      00FF2EDBH   LINE      CODE     ---       #289
      00FF2EDCH   LINE      CODE     ---       #290
      00FF2EE6H   LINE      CODE     ---       #292
      ---         BLOCKEND  ---      ---       LVL=0

      00FF30A5H   BLOCK     CODE     ---       LVL=0
      000000CFH   SYMBOL    EDATA    BYTE      x
      000000D0H   SYMBOL    EDATA    BYTE      y
      REG=3       REGSYM    ---      ---       s
      000000D1H   SYMBOL    EDATA    BYTE      mode
      00FF30B5H   BLOCK     CODE     NEAR LAB  LVL=1
L251 LINKER/LOCATER V4.66.93.0                                                        03/15/2026  15:45:09  PAGE 22


      000000D2H   SYMBOL    EDATA    ---       s_num
      ---         BLOCKEND  ---      ---       LVL=1
      00FF30A5H   LINE      CODE     ---       #294
      00FF30B5H   LINE      CODE     ---       #296
      00FF30B5H   LINE      CODE     ---       #298
      00FF30B7H   LINE      CODE     ---       #300
      00FF30BFH   LINE      CODE     ---       #302
      00FF30D1H   LINE      CODE     ---       #303
      00FF30DDH   LINE      CODE     ---       #304
      00FF30DFH   LINE      CODE     ---       #307
      00FF30EEH   LINE      CODE     ---       #308
      00FF3101H   LINE      CODE     ---       #309
      00FF310DH   LINE      CODE     ---       #310
      00FF310DH   LINE      CODE     ---       #311
      00FF312AH   LINE      CODE     ---       #313
      ---         BLOCKEND  ---      ---       LVL=0

      00FF34AAH   BLOCK     CODE     ---       LVL=0
      R13         REGSYM    ---      BYTE      x
      R14         REGSYM    ---      BYTE      y
      000000CBH   SYMBOL    EDATA    LONG      num
      R15         REGSYM    ---      BYTE      mode
      00FF34B8H   BLOCK     CODE     NEAR LAB  LVL=1
      0001040AH   SYMBOL    XDATA    ---       str
      ---         BLOCKEND  ---      ---       LVL=1
      00FF34AAH   LINE      CODE     ---       #315
      00FF34B8H   LINE      CODE     ---       #317
      00FF34B8H   LINE      CODE     ---       #319
      00FF34C8H   LINE      CODE     ---       #320
      00FF34E3H   LINE      CODE     ---       #321
      00FF34F4H   LINE      CODE     ---       #322
      ---         BLOCKEND  ---      ---       LVL=0

      00FF345BH   BLOCK     CODE     ---       LVL=0
      R13         REGSYM    ---      BYTE      x
      R14         REGSYM    ---      BYTE      y
      00000019H   SYMBOL    EDATA    FLOAT     num
      R15         REGSYM    ---      BYTE      mode
      00FF3469H   BLOCK     CODE     NEAR LAB  LVL=1
      00010400H   SYMBOL    XDATA    ---       str
      ---         BLOCKEND  ---      ---       LVL=1
      00FF345BH   LINE      CODE     ---       #324
      00FF3469H   LINE      CODE     ---       #326
      00FF3469H   LINE      CODE     ---       #328
      00FF3479H   LINE      CODE     ---       #329
      00FF3494H   LINE      CODE     ---       #330
      00FF34A5H   LINE      CODE     ---       #331
      ---         BLOCKEND  ---      ---       LVL=0

      00FF3238H   BLOCK     CODE     ---       LVL=0
      R9          REGSYM    ---      BYTE      x
      R0          REGSYM    ---      BYTE      y
      R1          REGSYM    ---      BYTE      num
      R8          REGSYM    ---      BYTE      mode
      00FF3240H   BLOCK     CODE     NEAR LAB  LVL=1
      R7          REGSYM    ---      BYTE      j
      R6          REGSYM    ---      BYTE      k
      ---         BLOCKEND  ---      ---       LVL=1
      00FF3238H   LINE      CODE     ---       #333
      00FF3240H   LINE      CODE     ---       #335
      00FF3240H   LINE      CODE     ---       #337
      00FF3242H   LINE      CODE     ---       #338
      00FF3244H   LINE      CODE     ---       #340
      00FF3248H   LINE      CODE     ---       #341
      00FF3266H   LINE      CODE     ---       #343
L251 LINKER/LOCATER V4.66.93.0                                                        03/15/2026  15:45:09  PAGE 23


      00FF32ABH   LINE      CODE     ---       #344
      00FF32B8H   LINE      CODE     ---       #345
      ---         BLOCKEND  ---      ---       LVL=0

      00FF3404H   BLOCK     CODE     ---       LVL=0
      R15         REGSYM    ---      BYTE      x0
      R8          REGSYM    ---      BYTE      y0
      R9          REGSYM    ---      BYTE      x1
      R14         REGSYM    ---      BYTE      y1
      REG=7       REGSYM    ---      ---       BMP
      00FF3410H   BLOCK     CODE     NEAR LAB  LVL=1
      WR6         REGSYM    ---      WORD      num
      R5          REGSYM    ---      BYTE      k
      R10         REGSYM    ---      BYTE      j
      ---         BLOCKEND  ---      ---       LVL=1
      00FF3404H   LINE      CODE     ---       #347
      00FF3410H   LINE      CODE     ---       #349
      00FF3410H   LINE      CODE     ---       #350
      00FF3412H   LINE      CODE     ---       #352
      00FF3416H   LINE      CODE     ---       #353
      00FF341AH   LINE      CODE     ---       #354
      00FF3458H   LINE      CODE     ---       #355
      ---         BLOCKEND  ---      ---       LVL=0

      ---         MODULE    ---      ---       spi
      00FF0003H   PUBLIC    CODE     ---       SPI_DMA_Wait
      00FF391AH   PUBLIC    CODE     ---       SPI_Transmit
      00FF37FEH   PUBLIC    CODE     ---       SPI_Init
      00FF3AC7H   PUBLIC    CODE     ---       SPI_WriteByte
      000000CFH   SFRSYM    DATA     BYTE      SPDAT
      000000D0H   SFRSYM    DATA     BYTE      PSW
      0000009DH   SFRSYM    DATA     BYTE      IRCBAND
      00000097H   SFRSYM    DATA     BYTE      AUXR2
      000000EFH   SFRSYM    DATA     BYTE      AUXINTIF
      000000FDH   SFRSYM    DATA     BYTE      S4CON
      000000ACH   SFRSYM    DATA     BYTE      S3CON
      0000009AH   SFRSYM    DATA     BYTE      S2CON
      000000B7H   SFRSYM    DATA     BYTE      IPH
      000000CDH   SFRSYM    DATA     BYTE      SPSTAT
      000000DDH   SFRSYM    DATA     BYTE      T4T3M
      000000C1H   SFRSYM    DATA     BYTE      WDT_CONTR
      000000DFH   SFRSYM    DATA     BYTE      IP3
      000000F4H   SFRSYM    DATA     BYTE      USBCON
      000000B5H   SFRSYM    DATA     BYTE      IP2
      000000FFH   SFRSYM    DATA     BYTE      RSTCFG
      000000CEH.4 SFRSYM    DATA     BIT       MSTR
      000000E0H   SFRSYM    DATA     BYTE      ACC
      000000C7H   SFRSYM    DATA     BYTE      IAP_CONTR
      000000F9H   SFRSYM    DATA     BYTE      LINICR
      0000008EH   SFRSYM    DATA     BYTE      AUXR
      000000F0H   SFRSYM    DATA     BYTE      B
      000000AFH   SFRSYM    DATA     BYTE      IE2
      000000CEH.7 SFRSYM    DATA     BIT       SSIG
      000000CEH.6 SFRSYM    DATA     BIT       SPEN
      000000CDH.6 SFRSYM    DATA     BIT       WCOL
      00000088H   SFRSYM    DATA     BYTE      TCON
      00000089H   SFRSYM    DATA     BYTE      TMOD
      00000098H   SFRSYM    DATA     BYTE      SCON
      000000CDH.7 SFRSYM    DATA     BIT       SPIF
      000000F1H   SFRSYM    DATA     BYTE      CANICR
      00000087H   SFRSYM    DATA     BYTE      PCON
      000000BCH   SFRSYM    DATA     BYTE      ADC_CONTR
      000000CEH.3 SFRSYM    DATA     BIT       CPOL
      000000A0H.5 SFRSYM    DATA     BIT       SPI_SCK
      000000CEH.5 SFRSYM    DATA     BIT       DORD
L251 LINKER/LOCATER V4.66.93.0                                                        03/15/2026  15:45:09  PAGE 24


      000000E7H   SFRSYM    DATA     BYTE      CMPCR2
      000000E6H   SFRSYM    DATA     BYTE      CMPCR1
      000000CEH.2 SFRSYM    DATA     BIT       CPHA
      000000DEH   SFRSYM    DATA     BYTE      ADCCFG
      000000B8H   SFRSYM    DATA     BYTE      IP
      0000008FH   SFRSYM    DATA     BYTE      INTCLKO
      000000EEH   SFRSYM    DATA     BYTE      IP3H
      000000B6H   SFRSYM    DATA     BYTE      IP2H
      000000A8H   SFRSYM    DATA     BYTE      IE
      000000BBH   SFRSYM    DATA     BYTE      P_SW3
      000000BAH   SFRSYM    DATA     BYTE      P_SW2
      000000A2H   SFRSYM    DATA     BYTE      P_SW1
      000000CEH   SFRSYM    DATA     BYTE      SPCTL
      000000F8H   SFRSYM    DATA     BYTE      P7
      000000A0H.3 SFRSYM    DATA     BIT       SPI_MOSI
      000000E8H   SFRSYM    DATA     BYTE      P6
      000000C8H   SFRSYM    DATA     BYTE      P5
      000000C0H   SFRSYM    DATA     BYTE      P4
      000000B0H   SFRSYM    DATA     BYTE      P3
      000000A0H   SFRSYM    DATA     BYTE      P2
      00000090H   SFRSYM    DATA     BYTE      P1
      00000080H   SFRSYM    DATA     BYTE      P0

      00FF37FEH   BLOCK     CODE     ---       LVL=0
      00FF37FEH   LINE      CODE     ---       #26
      00FF37FEH   LINE      CODE     ---       #29
      00FF3806H   LINE      CODE     ---       #30
      00FF3809H   LINE      CODE     ---       #31
      00FF380CH   LINE      CODE     ---       #32
      00FF380FH   LINE      CODE     ---       #33
      00FF3812H   LINE      CODE     ---       #34
      00FF3815H   LINE      CODE     ---       #35
      00FF3818H   LINE      CODE     ---       #36
      00FF3820H   LINE      CODE     ---       #37
      00FF3822H   LINE      CODE     ---       #38
      00FF3824H   LINE      CODE     ---       #39
      00FF3827H   LINE      CODE     ---       #40
      00FF382AH   LINE      CODE     ---       #62
      ---         BLOCKEND  ---      ---       LVL=0

      00FF3AC7H   BLOCK     CODE     ---       LVL=0
      R11         REGSYM    ---      BYTE      dat
      00FF3AC7H   LINE      CODE     ---       #67
      00FF3AC7H   LINE      CODE     ---       #69
      00FF3ACAH   LINE      CODE     ---       #70
      00FF3AD1H   LINE      CODE     ---       #71
      00FF3AD4H   LINE      CODE     ---       #72
      00FF3AD7H   LINE      CODE     ---       #73
      00FF3ADAH   LINE      CODE     ---       #74
      ---         BLOCKEND  ---      ---       LVL=0

      00FF391AH   BLOCK     CODE     ---       LVL=0
      REG=0       REGSYM    ---      ---       buf
      WR8         REGSYM    ---      WORD      len
      00FF391CH   BLOCK     CODE     NEAR LAB  LVL=1
      WR6         REGSYM    ---      WORD      i
      ---         BLOCKEND  ---      ---       LVL=1
      00FF391AH   LINE      CODE     ---       #79
      00FF391CH   LINE      CODE     ---       #80
      00FF391CH   LINE      CODE     ---       #96
      00FF3920H   LINE      CODE     ---       #98
      00FF3929H   LINE      CODE     ---       #99
      00FF3930H   LINE      CODE     ---       #100
      00FF3933H   LINE      CODE     ---       #101
      00FF3936H   LINE      CODE     ---       #102
L251 LINKER/LOCATER V4.66.93.0                                                        03/15/2026  15:45:09  PAGE 25


      00FF393CH   LINE      CODE     ---       #104
      ---         BLOCKEND  ---      ---       LVL=0

      00FF0003H   BLOCK     CODE     ---       LVL=0
      00FF0003H   LINE      CODE     ---       #109
      00FF0003H   LINE      CODE     ---       #114
      ---         BLOCKEND  ---      ---       LVL=0

      ---         MODULE    ---      ---       uart
      00FF3A5CH   PUBLIC    CODE     ---       UART1_SendStr
      00FF3A72H   PUBLIC    CODE     ---       UART2_SendString
      00FF382BH   PUBLIC    CODE     ---       UART2_ReadByte
      00FF38D0H   PUBLIC    CODE     ---       UART1_Init
      00FF3855H   PUBLIC    CODE     ---       UART2_Init
      00FF3B25H   PUBLIC    CODE     ---       UART1_SendByte
      00FF35D0H   PUBLIC    CODE     ---       UART2_SendByte
      00FF393DH   PUBLIC    CODE     ---       Printf
      0000015FH   PUBLIC    EDATA    BYTE      uart2_rx_head
      00000160H   PUBLIC    EDATA    BYTE      uart2_tx_head
      00000161H   PUBLIC    EDATA    BYTE      uart2_rx_tail
      00000162H   PUBLIC    EDATA    BYTE      uart2_tx_tail
      00000163H   PUBLIC    EDATA    ---       uart2_rx_buf
      000001A3H   PUBLIC    EDATA    ---       uart2_tx_buf
      00000020H.2 PUBLIC    BIT      BIT       uart2_tx_busy
      000000F3H   PUBLIC    EDATA    BYTE      ?Printf?BYTE
      000000D0H   SFRSYM    DATA     BYTE      PSW
      0000009DH   SFRSYM    DATA     BYTE      IRCBAND
      00000097H   SFRSYM    DATA     BYTE      AUXR2
      000000EFH   SFRSYM    DATA     BYTE      AUXINTIF
      000000FDH   SFRSYM    DATA     BYTE      S4CON
      000000ACH   SFRSYM    DATA     BYTE      S3CON
      0000009AH   SFRSYM    DATA     BYTE      S2CON
      0000009BH   SFRSYM    DATA     BYTE      S2BUF
      000000B7H   SFRSYM    DATA     BYTE      IPH
      000000CDH   SFRSYM    DATA     BYTE      SPSTAT
      000000DDH   SFRSYM    DATA     BYTE      T4T3M
      000000C1H   SFRSYM    DATA     BYTE      WDT_CONTR
      00000088H.6 SFRSYM    DATA     BIT       TR1
      000000D7H   SFRSYM    DATA     BYTE      T2L
      0000008BH   SFRSYM    DATA     BYTE      TL1
      000000D6H   SFRSYM    DATA     BYTE      T2H
      0000008DH   SFRSYM    DATA     BYTE      TH1
      000000DFH   SFRSYM    DATA     BYTE      IP3
      000000F4H   SFRSYM    DATA     BYTE      USBCON
      000000B5H   SFRSYM    DATA     BYTE      IP2
      000000FFH   SFRSYM    DATA     BYTE      RSTCFG
      000000E0H   SFRSYM    DATA     BYTE      ACC
      000000C7H   SFRSYM    DATA     BYTE      IAP_CONTR
      000000F9H   SFRSYM    DATA     BYTE      LINICR
      0000008EH   SFRSYM    DATA     BYTE      AUXR
      000000F0H   SFRSYM    DATA     BYTE      B
      000000AFH   SFRSYM    DATA     BYTE      IE2
      000000BAH.0 SFRSYM    DATA     BIT       S2_S
      00000088H   SFRSYM    DATA     BYTE      TCON
      00000089H   SFRSYM    DATA     BYTE      TMOD
      00000098H   SFRSYM    DATA     BYTE      SCON
      000000F1H   SFRSYM    DATA     BYTE      CANICR
      00000087H   SFRSYM    DATA     BYTE      PCON
      00000099H   SFRSYM    DATA     BYTE      SBUF
      000000BCH   SFRSYM    DATA     BYTE      ADC_CONTR
      000000E7H   SFRSYM    DATA     BYTE      CMPCR2
      000000E6H   SFRSYM    DATA     BYTE      CMPCR1
      00000098H.1 SFRSYM    DATA     BIT       TI
      000000DEH   SFRSYM    DATA     BYTE      ADCCFG
      000000B8H   SFRSYM    DATA     BYTE      IP
L251 LINKER/LOCATER V4.66.93.0                                                        03/15/2026  15:45:09  PAGE 26


      000000A8H.4 SFRSYM    DATA     BIT       ES
      0000008FH   SFRSYM    DATA     BYTE      INTCLKO
      000000EEH   SFRSYM    DATA     BYTE      IP3H
      000000B6H   SFRSYM    DATA     BYTE      IP2H
      000000A8H   SFRSYM    DATA     BYTE      IE
      000000BBH   SFRSYM    DATA     BYTE      P_SW3
      000000BAH   SFRSYM    DATA     BYTE      P_SW2
      000000A2H   SFRSYM    DATA     BYTE      P_SW1
      000000CEH   SFRSYM    DATA     BYTE      SPCTL
      000000F8H   SFRSYM    DATA     BYTE      P7
      000000A8H.7 SFRSYM    DATA     BIT       EA
      000000E8H   SFRSYM    DATA     BYTE      P6
      000000C8H   SFRSYM    DATA     BYTE      P5
      000000C0H   SFRSYM    DATA     BYTE      P4
      000000B0H   SFRSYM    DATA     BYTE      P3
      000000B3H   SFRSYM    DATA     BYTE      P4M1
      000000A0H   SFRSYM    DATA     BYTE      P2
      000000B1H   SFRSYM    DATA     BYTE      P3M1
      000000B4H   SFRSYM    DATA     BYTE      P4M0
      00000090H   SFRSYM    DATA     BYTE      P1
      000000B2H   SFRSYM    DATA     BYTE      P3M0
      00000080H   SFRSYM    DATA     BYTE      P0

      00FF38D0H   BLOCK     CODE     ---       LVL=0
      00FF38D0H   LINE      CODE     ---       #20
      00FF38D0H   LINE      CODE     ---       #23
      00FF38D3H   LINE      CODE     ---       #24
      00FF38D6H   LINE      CODE     ---       #29
      00FF38D9H   LINE      CODE     ---       #30
      00FF38DCH   LINE      CODE     ---       #33
      00FF38DFH   LINE      CODE     ---       #38
      00FF38E2H   LINE      CODE     ---       #39
      00FF38E5H   LINE      CODE     ---       #41
      00FF38E8H   LINE      CODE     ---       #45
      00FF38EBH   LINE      CODE     ---       #46
      00FF38EEH   LINE      CODE     ---       #49
      00FF38F0H   LINE      CODE     ---       #52
      00FF38F2H   LINE      CODE     ---       #53
      00FF38F4H   LINE      CODE     ---       #54
      ---         BLOCKEND  ---      ---       LVL=0

      00FF3855H   BLOCK     CODE     ---       LVL=0
      00FF3855H   LINE      CODE     ---       #58
      00FF3855H   LINE      CODE     ---       #62
      00FF3858H   LINE      CODE     ---       #63
      00FF385BH   LINE      CODE     ---       #64
      00FF385EH   LINE      CODE     ---       #65
      00FF3861H   LINE      CODE     ---       #70
      00FF3864H   LINE      CODE     ---       #73
      00FF3867H   LINE      CODE     ---       #76
      00FF386AH   LINE      CODE     ---       #77
      00FF386DH   LINE      CODE     ---       #80
      00FF3870H   LINE      CODE     ---       #81
      00FF3873H   LINE      CODE     ---       #85
      00FF3876H   LINE      CODE     ---       #87
      00FF3879H   LINE      CODE     ---       #90
      00FF387CH   LINE      CODE     ---       #91
      00FF387EH   LINE      CODE     ---       #92
      ---         BLOCKEND  ---      ---       LVL=0

      00FF3B25H   BLOCK     CODE     ---       LVL=0
      R11         REGSYM    ---      BYTE      dat
      00FF3B25H   LINE      CODE     ---       #95
      00FF3B25H   LINE      CODE     ---       #97
      00FF3B28H   LINE      CODE     ---       #98
L251 LINKER/LOCATER V4.66.93.0                                                        03/15/2026  15:45:09  PAGE 27


      00FF3B2BH   LINE      CODE     ---       #99
      00FF3B2DH   LINE      CODE     ---       #100
      ---         BLOCKEND  ---      ---       LVL=0

      00FF3A5CH   BLOCK     CODE     ---       LVL=0
      REG=3       REGSYM    ---      ---       str
      00FF3A5CH   LINE      CODE     ---       #102
      00FF3A60H   LINE      CODE     ---       #104
      00FF3A6FH   LINE      CODE     ---       #106
      ---         BLOCKEND  ---      ---       LVL=0

      00FF35D0H   BLOCK     CODE     ---       LVL=0
      R10         REGSYM    ---      BYTE      dat
      00FF35D2H   BLOCK     CODE     NEAR LAB  LVL=1
      R7          REGSYM    ---      BYTE      next
      ---         BLOCKEND  ---      ---       LVL=1
      00FF35D0H   LINE      CODE     ---       #108
      00FF35D2H   LINE      CODE     ---       #109
      00FF35D2H   LINE      CODE     ---       #110
      00FF35E7H   LINE      CODE     ---       #113
      00FF35EFH   LINE      CODE     ---       #114
      00FF35EFH   LINE      CODE     ---       #116
      00FF35F3H   LINE      CODE     ---       #117
      00FF35F7H   LINE      CODE     ---       #120
      00FF35FAH   LINE      CODE     ---       #122
      00FF35FCH   LINE      CODE     ---       #123
      00FF3604H   LINE      CODE     ---       #124
      00FF360FH   LINE      CODE     ---       #125
      ---         BLOCKEND  ---      ---       LVL=0

      00FF3A72H   BLOCK     CODE     ---       LVL=0
      REG=3       REGSYM    ---      ---       str
      00FF3A72H   LINE      CODE     ---       #128
      00FF3A76H   LINE      CODE     ---       #130
      00FF3A85H   LINE      CODE     ---       #132
      ---         BLOCKEND  ---      ---       LVL=0

      00FF382BH   BLOCK     CODE     ---       LVL=0
      REG=2       REGSYM    ---      ---       dat
      00FF382BH   LINE      CODE     ---       #137
      00FF382DH   LINE      CODE     ---       #139
      00FF3837H   LINE      CODE     ---       #140
      00FF3839H   LINE      CODE     ---       #142
      00FF3842H   LINE      CODE     ---       #143
      00FF3853H   LINE      CODE     ---       #144
      00FF3854H   LINE      CODE     ---       #145
      ---         BLOCKEND  ---      ---       LVL=0

      00FF393DH   BLOCK     CODE     ---       LVL=0
      000000F3H   SYMBOL    EDATA    ---       fmt
      00FF3941H   BLOCK     CODE     NEAR LAB  LVL=1
      000000F7H   SYMBOL    EDATA    ---       buf
      REG=1       REGSYM    ---      ---       args
      ---         BLOCKEND  ---      ---       LVL=1
      00FF393DH   LINE      CODE     ---       #148
      00FF3941H   LINE      CODE     ---       #149
      00FF3941H   LINE      CODE     ---       #154
      00FF3949H   LINE      CODE     ---       #155
      00FF3958H   LINE      CODE     ---       #158
      ---         BLOCKEND  ---      ---       LVL=0

      ---         MODULE    ---      ---       timer
      00FF3650H   PUBLIC    CODE     ---       Encoder_Read
      00FF3AB2H   PUBLIC    CODE     ---       Timer0_Init
      00FF38F5H   PUBLIC    CODE     ---       PWM_SetDuty
L251 LINKER/LOCATER V4.66.93.0                                                        03/15/2026  15:45:09  PAGE 28


      00FF312DH   PUBLIC    CODE     ---       PWMB_Encoder_Init
      00FF2EE7H   PUBLIC    CODE     ---       PWM_Init
      000000D0H   SFRSYM    DATA     BYTE      PSW
      000000BAH.7 SFRSYM    DATA     BIT       EAXFR
      0000009DH   SFRSYM    DATA     BYTE      IRCBAND
      00000097H   SFRSYM    DATA     BYTE      AUXR2
      000000EFH   SFRSYM    DATA     BYTE      AUXINTIF
      000000FDH   SFRSYM    DATA     BYTE      S4CON
      000000ACH   SFRSYM    DATA     BYTE      S3CON
      0000009AH   SFRSYM    DATA     BYTE      S2CON
      000000B7H   SFRSYM    DATA     BYTE      IPH
      000000CDH   SFRSYM    DATA     BYTE      SPSTAT
      000000DDH   SFRSYM    DATA     BYTE      T4T3M
      000000C1H   SFRSYM    DATA     BYTE      WDT_CONTR
      00000088H.4 SFRSYM    DATA     BIT       TR0
      0000008AH   SFRSYM    DATA     BYTE      TL0
      0000008CH   SFRSYM    DATA     BYTE      TH0
      000000DFH   SFRSYM    DATA     BYTE      IP3
      000000F4H   SFRSYM    DATA     BYTE      USBCON
      000000B5H   SFRSYM    DATA     BYTE      IP2
      000000FFH   SFRSYM    DATA     BYTE      RSTCFG
      00000088H.5 SFRSYM    DATA     BIT       TF0
      000000A8H.1 SFRSYM    DATA     BIT       ET0
      000000E0H   SFRSYM    DATA     BYTE      ACC
      000000C7H   SFRSYM    DATA     BYTE      IAP_CONTR
      000000F9H   SFRSYM    DATA     BYTE      LINICR
      0000008EH   SFRSYM    DATA     BYTE      AUXR
      000000F0H   SFRSYM    DATA     BYTE      B
      000000AFH   SFRSYM    DATA     BYTE      IE2
      00000088H   SFRSYM    DATA     BYTE      TCON
      00000089H   SFRSYM    DATA     BYTE      TMOD
      00000098H   SFRSYM    DATA     BYTE      SCON
      000000F1H   SFRSYM    DATA     BYTE      CANICR
      00000087H   SFRSYM    DATA     BYTE      PCON
      000000BCH   SFRSYM    DATA     BYTE      ADC_CONTR
      000000E7H   SFRSYM    DATA     BYTE      CMPCR2
      000000E6H   SFRSYM    DATA     BYTE      CMPCR1
      000000DEH   SFRSYM    DATA     BYTE      ADCCFG
      000000B8H   SFRSYM    DATA     BYTE      IP
      0000008FH   SFRSYM    DATA     BYTE      INTCLKO
      000000EEH   SFRSYM    DATA     BYTE      IP3H
      000000B6H   SFRSYM    DATA     BYTE      IP2H
      000000A8H   SFRSYM    DATA     BYTE      IE
      000000BBH   SFRSYM    DATA     BYTE      P_SW3
      000000BAH   SFRSYM    DATA     BYTE      P_SW2
      000000A2H   SFRSYM    DATA     BYTE      P_SW1
      000000CEH   SFRSYM    DATA     BYTE      SPCTL
      000000F8H   SFRSYM    DATA     BYTE      P7
      000000A8H.7 SFRSYM    DATA     BIT       EA
      000000E8H   SFRSYM    DATA     BYTE      P6
      000000C8H   SFRSYM    DATA     BYTE      P5
      000000C0H   SFRSYM    DATA     BYTE      P4
      000000B0H   SFRSYM    DATA     BYTE      P3
      000000A0H   SFRSYM    DATA     BYTE      P2
      00000090H   SFRSYM    DATA     BYTE      P1
      00000080H   SFRSYM    DATA     BYTE      P0
      00000091H   SFRSYM    DATA     BYTE      P1M1
      00000092H   SFRSYM    DATA     BYTE      P1M0

      00FF3AB2H   BLOCK     CODE     ---       LVL=0
      00FF3AB2H   LINE      CODE     ---       #4
      00FF3AB2H   LINE      CODE     ---       #8
      00FF3AB5H   LINE      CODE     ---       #11
      00FF3AB8H   LINE      CODE     ---       #14
      00FF3ABBH   LINE      CODE     ---       #15
L251 LINKER/LOCATER V4.66.93.0                                                        03/15/2026  15:45:09  PAGE 29


      00FF3ABEH   LINE      CODE     ---       #18
      00FF3AC0H   LINE      CODE     ---       #19
      00FF3AC2H   LINE      CODE     ---       #20
      00FF3AC4H   LINE      CODE     ---       #23
      00FF3AC6H   LINE      CODE     ---       #24
      ---         BLOCKEND  ---      ---       LVL=0

      00FF2EE7H   BLOCK     CODE     ---       LVL=0
      00FF2EE7H   LINE      CODE     ---       #27
      00FF2EE7H   LINE      CODE     ---       #29
      00FF2EEAH   LINE      CODE     ---       #32
      00FF2EEDH   LINE      CODE     ---       #33
      00FF2EF0H   LINE      CODE     ---       #37
      00FF2F00H   LINE      CODE     ---       #46
      00FF2F09H   LINE      CODE     ---       #50
      00FF2F15H   LINE      CODE     ---       #53
      00FF2F1CH   LINE      CODE     ---       #54
      00FF2F23H   LINE      CODE     ---       #63
      00FF2F2CH   LINE      CODE     ---       #64
      00FF2F35H   LINE      CODE     ---       #71
      00FF2F3EH   LINE      CODE     ---       #74
      00FF2F47H   LINE      CODE     ---       #75
      00FF2F50H   LINE      CODE     ---       #82
      00FF2F59H   LINE      CODE     ---       #89
      00FF2F62H   LINE      CODE     ---       #94
      00FF2F6BH   LINE      CODE     ---       #99
      00FF2F73H   LINE      CODE     ---       #103
      00FF2F7BH   LINE      CODE     ---       #106
      00FF2F84H   LINE      CODE     ---       #108
      00FF2F87H   LINE      CODE     ---       #109
      ---         BLOCKEND  ---      ---       LVL=0

      00FF38F5H   BLOCK     CODE     ---       LVL=0
      WR0         REGSYM    ---      WORD      duty
      00FF38F5H   LINE      CODE     ---       #115
      00FF38F7H   LINE      CODE     ---       #117
      00FF3901H   LINE      CODE     ---       #118
      00FF3904H   LINE      CODE     ---       #119
      00FF390FH   LINE      CODE     ---       #120
      00FF3916H   LINE      CODE     ---       #121
      00FF3919H   LINE      CODE     ---       #122
      ---         BLOCKEND  ---      ---       LVL=0

      00FF312DH   BLOCK     CODE     ---       LVL=0
      00FF312DH   LINE      CODE     ---       #124
      00FF312DH   LINE      CODE     ---       #126
      00FF3130H   LINE      CODE     ---       #127
      00FF3133H   LINE      CODE     ---       #129
      00FF313FH   LINE      CODE     ---       #130
      00FF3146H   LINE      CODE     ---       #133
      00FF314DH   LINE      CODE     ---       #134
      00FF3154H   LINE      CODE     ---       #137
      00FF315DH   LINE      CODE     ---       #138
      00FF3164H   LINE      CODE     ---       #141
      00FF316CH   LINE      CODE     ---       #142
      00FF3173H   LINE      CODE     ---       #147
      00FF317CH   LINE      CODE     ---       #151
      00FF3183H   LINE      CODE     ---       #155
      00FF318CH   LINE      CODE     ---       #162
      00FF3195H   LINE      CODE     ---       #163
      00FF319CH   LINE      CODE     ---       #166
      00FF31A4H   LINE      CODE     ---       #169
      00FF31ADH   LINE      CODE     ---       #171
      00FF31B0H   LINE      CODE     ---       #172
      00FF31B3H   LINE      CODE     ---       #173
L251 LINKER/LOCATER V4.66.93.0                                                        03/15/2026  15:45:09  PAGE 30


      ---         BLOCKEND  ---      ---       LVL=0

      00FF3650H   BLOCK     CODE     ---       LVL=0
      WR10        REGSYM    ---      INT       cnt
      WR8         REGSYM    ---      WORD      raw
      00FF3650H   LINE      CODE     ---       #175
      00FF3650H   LINE      CODE     ---       #176
      00FF3650H   LINE      CODE     ---       #180
      00FF3653H   LINE      CODE     ---       #181
      00FF3662H   LINE      CODE     ---       #182
      00FF366DH   LINE      CODE     ---       #183
      00FF3670H   LINE      CODE     ---       #187
      00FF3678H   LINE      CODE     ---       #188
      00FF3688H   LINE      CODE     ---       #189
      00FF368AH   LINE      CODE     ---       #190
      00FF368CH   LINE      CODE     ---       #191
      00FF368CH   LINE      CODE     ---       #193
      00FF368EH   LINE      CODE     ---       #194
      ---         BLOCKEND  ---      ---       LVL=0

      ---         MODULE    ---      ---       rs485
      00FF38A8H   PUBLIC    CODE     ---       Modbus_RxByte
      00FF37CDH   PUBLIC    CODE     ---       Modbus_TimerTick
      00FF3AEFH   PUBLIC    CODE     ---       Modbus_Init
      00FF3ADBH   PUBLIC    CODE     ---       Modbus_Poll
      000000A2H   PUBLIC    EDATA    BYTE      modbus_coils
      000000A4H   PUBLIC    EDATA    ---       modbus_regs
      000000D0H   SFRSYM    DATA     BYTE      PSW
      0000009DH   SFRSYM    DATA     BYTE      IRCBAND
      00000097H   SFRSYM    DATA     BYTE      AUXR2
      000000EFH   SFRSYM    DATA     BYTE      AUXINTIF
      000000FDH   SFRSYM    DATA     BYTE      S4CON
      000000ACH   SFRSYM    DATA     BYTE      S3CON
      0000009AH   SFRSYM    DATA     BYTE      S2CON
      000000B7H   SFRSYM    DATA     BYTE      IPH
      000000CDH   SFRSYM    DATA     BYTE      SPSTAT
      000000DDH   SFRSYM    DATA     BYTE      T4T3M
      000000C1H   SFRSYM    DATA     BYTE      WDT_CONTR
      000000DFH   SFRSYM    DATA     BYTE      IP3
      000000F4H   SFRSYM    DATA     BYTE      USBCON
      000000B5H   SFRSYM    DATA     BYTE      IP2
      000000FFH   SFRSYM    DATA     BYTE      RSTCFG
      000000E0H   SFRSYM    DATA     BYTE      ACC
      000000C7H   SFRSYM    DATA     BYTE      IAP_CONTR
      000000F9H   SFRSYM    DATA     BYTE      LINICR
      0000008EH   SFRSYM    DATA     BYTE      AUXR
      000000F0H   SFRSYM    DATA     BYTE      B
      000000AFH   SFRSYM    DATA     BYTE      IE2
      00000088H   SFRSYM    DATA     BYTE      TCON
      00000089H   SFRSYM    DATA     BYTE      TMOD
      00000098H   SFRSYM    DATA     BYTE      SCON
      000000F1H   SFRSYM    DATA     BYTE      CANICR
      00000087H   SFRSYM    DATA     BYTE      PCON
      000000BCH   SFRSYM    DATA     BYTE      ADC_CONTR
      000000E7H   SFRSYM    DATA     BYTE      CMPCR2
      000000E6H   SFRSYM    DATA     BYTE      CMPCR1
      000000DEH   SFRSYM    DATA     BYTE      ADCCFG
      000000B8H   SFRSYM    DATA     BYTE      IP
      0000008FH   SFRSYM    DATA     BYTE      INTCLKO
      000000EEH   SFRSYM    DATA     BYTE      IP3H
      000000B6H   SFRSYM    DATA     BYTE      IP2H
      000000A8H   SFRSYM    DATA     BYTE      IE
      000000BBH   SFRSYM    DATA     BYTE      P_SW3
      000000BAH   SFRSYM    DATA     BYTE      P_SW2
      000000A2H   SFRSYM    DATA     BYTE      P_SW1
L251 LINKER/LOCATER V4.66.93.0                                                        03/15/2026  15:45:09  PAGE 31


      000000CEH   SFRSYM    DATA     BYTE      SPCTL
      000000F8H   SFRSYM    DATA     BYTE      P7
      000000E8H   SFRSYM    DATA     BYTE      P6
      000000C8H   SFRSYM    DATA     BYTE      P5
      000000C0H   SFRSYM    DATA     BYTE      P4
      000000B0H   SFRSYM    DATA     BYTE      P3
      000000A0H   SFRSYM    DATA     BYTE      P2
      00000090H   SFRSYM    DATA     BYTE      P1
      00000080H   SFRSYM    DATA     BYTE      P0
      00FF368FH   SYMBOL    CODE     ---       CRC16
      00FF39F5H   SYMBOL    CODE     ---       SendException
      00FF2263H   SYMBOL    CODE     ---       ProcessFrame
      00FF36C9H   SYMBOL    CODE     ---       SendResponse
      00000021H   SYMBOL    EDATA    ---       rx_buf
      00000061H   SYMBOL    EDATA    ---       tx_buf
      000000A1H   SYMBOL    EDATA    BYTE      rx_len
      000000A3H   SYMBOL    EDATA    BYTE      tx_len
      000000C4H   SYMBOL    EDATA    BYTE      timeout_cnt
      000000C5H   SYMBOL    EDATA    BYTE      rx_active
      000000C6H   SYMBOL    EDATA    BYTE      rx_done

      00FF368FH   BLOCK     CODE     ---       LVL=0
      REG=7       REGSYM    ---      ---       buf
      R10         REGSYM    ---      BYTE      len
      00FF3693H   BLOCK     CODE     NEAR LAB  LVL=1
      WR6         REGSYM    ---      WORD      crc
      R5          REGSYM    ---      BYTE      i
      R4          REGSYM    ---      BYTE      j
      ---         BLOCKEND  ---      ---       LVL=1
      00FF368FH   LINE      CODE     ---       #40
      00FF3693H   LINE      CODE     ---       #41
      00FF3693H   LINE      CODE     ---       #42
      00FF3697H   LINE      CODE     ---       #45
      00FF369BH   LINE      CODE     ---       #47
      00FF36A8H   LINE      CODE     ---       #48
      00FF36AAH   LINE      CODE     ---       #50
      00FF36B2H   LINE      CODE     ---       #51
      00FF36BAH   LINE      CODE     ---       #53
      00FF36BCH   LINE      CODE     ---       #54
      00FF36C2H   LINE      CODE     ---       #55
      00FF36C8H   LINE      CODE     ---       #56
      00FF36C8H   LINE      CODE     ---       #57
      ---         BLOCKEND  ---      ---       LVL=0

      00FF36C9H   BLOCK     CODE     ---       LVL=0
      R15         REGSYM    ---      BYTE      len
      00FF36CBH   BLOCK     CODE     NEAR LAB  LVL=1
      WR6         REGSYM    ---      WORD      crc
      R15         REGSYM    ---      BYTE      i
      ---         BLOCKEND  ---      ---       LVL=1
      00FF36C9H   LINE      CODE     ---       #62
      00FF36CBH   LINE      CODE     ---       #63
      00FF36CBH   LINE      CODE     ---       #67
      00FF36D2H   LINE      CODE     ---       #68
      00FF36D8H   LINE      CODE     ---       #69
      00FF36DEH   LINE      CODE     ---       #70
      00FF36E6H   LINE      CODE     ---       #73
      00FF36EAH   LINE      CODE     ---       #74
      00FF36FDH   LINE      CODE     ---       #75
      00FF36FDH   LINE      CODE     ---       #76
      ---         BLOCKEND  ---      ---       LVL=0

      00FF39F5H   BLOCK     CODE     ---       LVL=0
      R7          REGSYM    ---      BYTE      func
      R10         REGSYM    ---      BYTE      ex_code
L251 LINKER/LOCATER V4.66.93.0                                                        03/15/2026  15:45:09  PAGE 32


      00FF39F5H   LINE      CODE     ---       #81
      00FF39F9H   LINE      CODE     ---       #83
      00FF39FFH   LINE      CODE     ---       #84
      00FF3A07H   LINE      CODE     ---       #85
      00FF3A0BH   LINE      CODE     ---       #86
      ---         BLOCKEND  ---      ---       LVL=0

      00FF2263H   BLOCK     CODE     ---       LVL=0
      00FF2265H   BLOCK     CODE     NEAR LAB  LVL=1
      000000CBH   SYMBOL    EDATA    WORD      crc_recv
      WR6         REGSYM    ---      WORD      crc_calc
      R10         REGSYM    ---      BYTE      func
      WR8         REGSYM    ---      WORD      start_addr
      WR6         REGSYM    ---      WORD      quantity
      R13         REGSYM    ---      BYTE      byte_cnt
      WR14        REGSYM    ---      WORD      i
      R11         REGSYM    ---      BYTE      coil_val
      ---         BLOCKEND  ---      ---       LVL=1
      00FF2263H   LINE      CODE     ---       #92
      00FF2265H   LINE      CODE     ---       #93
      00FF2265H   LINE      CODE     ---       #102
      00FF2271H   LINE      CODE     ---       #103
      00FF2271H   LINE      CODE     ---       #106
      00FF227DH   LINE      CODE     ---       #107
      00FF227DH   LINE      CODE     ---       #110
      00FF228DH   LINE      CODE     ---       #111
      00FF229CH   LINE      CODE     ---       #112
      00FF22A5H   LINE      CODE     ---       #113
      00FF22A5H   LINE      CODE     ---       #115
      00FF22A9H   LINE      CODE     ---       #116
      00FF22B9H   LINE      CODE     ---       #117
      00FF22C9H   LINE      CODE     ---       #120
      00FF22EDH   LINE      CODE     ---       #127
      00FF22EDH   LINE      CODE     ---       #128
      00FF22FCH   LINE      CODE     ---       #130
      00FF22FCH   LINE      CODE     ---       #131
      00FF22FFH   LINE      CODE     ---       #132
      00FF22FFH   LINE      CODE     ---       #133
      00FF2309H   LINE      CODE     ---       #135
      00FF2309H   LINE      CODE     ---       #136
      00FF230CH   LINE      CODE     ---       #137
      00FF230CH   LINE      CODE     ---       #138
      00FF2318H   LINE      CODE     ---       #139
      00FF231EH   LINE      CODE     ---       #140
      00FF2322H   LINE      CODE     ---       #141
      00FF2326H   LINE      CODE     ---       #143
      00FF232AH   LINE      CODE     ---       #144
      00FF234DH   LINE      CODE     ---       #145
      00FF234FH   LINE      CODE     ---       #146
      00FF2351H   LINE      CODE     ---       #151
      00FF2351H   LINE      CODE     ---       #152
      00FF2360H   LINE      CODE     ---       #154
      00FF2360H   LINE      CODE     ---       #155
      00FF2363H   LINE      CODE     ---       #156
      00FF2363H   LINE      CODE     ---       #157
      00FF236DH   LINE      CODE     ---       #159
      00FF236DH   LINE      CODE     ---       #160
      00FF2370H   LINE      CODE     ---       #161
      00FF2370H   LINE      CODE     ---       #162
      00FF2374H   LINE      CODE     ---       #163
      00FF237AH   LINE      CODE     ---       #164
      00FF2380H   LINE      CODE     ---       #165
      00FF2384H   LINE      CODE     ---       #166
      00FF2388H   LINE      CODE     ---       #168
      00FF239AH   LINE      CODE     ---       #169
L251 LINKER/LOCATER V4.66.93.0                                                        03/15/2026  15:45:09  PAGE 33


      00FF239EH   LINE      CODE     ---       #170
      00FF23A4H   LINE      CODE     ---       #171
      00FF23AAH   LINE      CODE     ---       #172
      00FF23ADH   LINE      CODE     ---       #178
      00FF23ADH   LINE      CODE     ---       #179
      00FF23B3H   LINE      CODE     ---       #181
      00FF23B3H   LINE      CODE     ---       #182
      00FF23B6H   LINE      CODE     ---       #183
      00FF23B6H   LINE      CODE     ---       #184
      00FF23C2H   LINE      CODE     ---       #185
      00FF23C4H   LINE      CODE     ---       #186
      00FF23D7H   LINE      CODE     ---       #188
      00FF23EFH   LINE      CODE     ---       #191
      00FF23F7H   LINE      CODE     ---       #192
      00FF23FFH   LINE      CODE     ---       #193
      00FF2407H   LINE      CODE     ---       #194
      00FF240FH   LINE      CODE     ---       #195
      00FF2417H   LINE      CODE     ---       #196
      00FF241FH   LINE      CODE     ---       #197
      00FF2421H   LINE      CODE     ---       #198
      00FF2424H   LINE      CODE     ---       #203
      00FF2424H   LINE      CODE     ---       #204
      00FF242AH   LINE      CODE     ---       #206
      00FF242AH   LINE      CODE     ---       #207
      00FF242CH   LINE      CODE     ---       #208
      00FF242CH   LINE      CODE     ---       #209
      00FF2434H   LINE      CODE     ---       #210
      00FF243CH   LINE      CODE     ---       #211
      00FF2444H   LINE      CODE     ---       #212
      00FF244CH   LINE      CODE     ---       #213
      00FF2454H   LINE      CODE     ---       #214
      00FF245CH   LINE      CODE     ---       #215
      00FF2464H   LINE      CODE     ---       #216
      00FF2466H   LINE      CODE     ---       #217
      00FF2469H   LINE      CODE     ---       #223
      00FF2469H   LINE      CODE     ---       #224
      00FF2475H   LINE      CODE     ---       #226
      00FF2475H   LINE      CODE     ---       #227
      00FF2477H   LINE      CODE     ---       #228
      00FF2477H   LINE      CODE     ---       #229
      00FF2481H   LINE      CODE     ---       #231
      00FF2486H   LINE      CODE     ---       #232
      00FF2488H   LINE      CODE     ---       #233
      00FF2488H   LINE      CODE     ---       #234
      00FF248CH   LINE      CODE     ---       #235
      00FF2496H   LINE      CODE     ---       #237
      00FF249BH   LINE      CODE     ---       #238
      00FF249DH   LINE      CODE     ---       #239
      00FF249DH   LINE      CODE     ---       #240
      00FF24A1H   LINE      CODE     ---       #243
      00FF24BFH   LINE      CODE     ---       #244
      00FF24C5H   LINE      CODE     ---       #245
      00FF24CBH   LINE      CODE     ---       #246
      00FF24D1H   LINE      CODE     ---       #247
      00FF24D9H   LINE      CODE     ---       #248
      00FF24E1H   LINE      CODE     ---       #249
      00FF24E9H   LINE      CODE     ---       #250
      00FF24F1H   LINE      CODE     ---       #251
      00FF24F6H   LINE      CODE     ---       #252
      00FF24F8H   LINE      CODE     ---       #257
      00FF24F8H   LINE      CODE     ---       #258
      00FF2500H   LINE      CODE     ---       #259
      00FF2500H   LINE      CODE     ---       #260
      00FF2500H   LINE      CODE     ---       #261
      ---         BLOCKEND  ---      ---       LVL=0
L251 LINKER/LOCATER V4.66.93.0                                                        03/15/2026  15:45:09  PAGE 34



      00FF3AEFH   BLOCK     CODE     ---       LVL=0
      00FF3AEFH   LINE      CODE     ---       #267
      00FF3AEFH   LINE      CODE     ---       #270
      00FF3AF4H   LINE      CODE     ---       #271
      00FF3AF8H   LINE      CODE     ---       #272
      00FF3AFCH   LINE      CODE     ---       #273
      00FF3B00H   LINE      CODE     ---       #274
      ---         BLOCKEND  ---      ---       LVL=0

      00FF37CDH   BLOCK     CODE     ---       LVL=0
      00FF37CDH   LINE      CODE     ---       #279
      00FF37CDH   LINE      CODE     ---       #281
      00FF37D3H   LINE      CODE     ---       #283
      00FF37DCH   LINE      CODE     ---       #284
      00FF37E5H   LINE      CODE     ---       #287
      00FF37EAH   LINE      CODE     ---       #288
      00FF37EEH   LINE      CODE     ---       #289
      00FF37F7H   LINE      CODE     ---       #290
      00FF37FDH   LINE      CODE     ---       #291
      00FF37FDH   LINE      CODE     ---       #292
      00FF37FDH   LINE      CODE     ---       #293
      ---         BLOCKEND  ---      ---       LVL=0

      00FF38A8H   BLOCK     CODE     ---       LVL=0
      R10         REGSYM    ---      BYTE      dat
      00FF38A8H   LINE      CODE     ---       #298
      00FF38AAH   LINE      CODE     ---       #301
      00FF38AFH   LINE      CODE     ---       #302
      00FF38B5H   LINE      CODE     ---       #304
      00FF38BEH   LINE      CODE     ---       #305
      00FF38CFH   LINE      CODE     ---       #309
      ---         BLOCKEND  ---      ---       LVL=0

      00FF3ADBH   BLOCK     CODE     ---       LVL=0
      00FF3ADBH   LINE      CODE     ---       #314
      00FF3ADBH   LINE      CODE     ---       #316
      00FF3AE1H   LINE      CODE     ---       #317
      00FF3AE1H   LINE      CODE     ---       #319
      00FF3AE6H   LINE      CODE     ---       #320
      00FF3AE9H   LINE      CODE     ---       #321
      00FF3AEEH   LINE      CODE     ---       #322
      ---         BLOCKEND  ---      ---       LVL=0

      ---         MODULE    ---      ---       isr

      00FF018BH   BLOCK     CODE     NEAR LAB  LVL=0
      00FF018BH   LINE      CODE     ---       #7
      ---         BLOCKEND  ---      ---       LVL=0

      ---         MODULE    ---      ---       key
      00FF395FH   PUBLIC    CODE     ---       Key_Scan
      00FF3610H   PUBLIC    CODE     ---       Buzzer_PlayTone
      00FF32B9H   PUBLIC    CODE     ---       Key_Init
      00FF3700H   PUBLIC    CODE     ---       Key_IsPressed
      00FF39A0H   PUBLIC    CODE     ---       Key_GetEvent
      00FF3B1AH   PUBLIC    CODE     ---       Buzzer_IsBusy
      00FF2960H   PUBLIC    CODE     ---       Key_HandleEvent
      00FF3980H   PUBLIC    CODE     ---       Key_ClearEvent
      00000237H   PUBLIC    EDATA    ---       key1
      00000244H   PUBLIC    EDATA    ---       key2
      00000251H   PUBLIC    EDATA    ---       key3
      000000D0H   SFRSYM    DATA     BYTE      PSW
      0000009DH   SFRSYM    DATA     BYTE      IRCBAND
      00000097H   SFRSYM    DATA     BYTE      AUXR2
L251 LINKER/LOCATER V4.66.93.0                                                        03/15/2026  15:45:09  PAGE 35


      000000EFH   SFRSYM    DATA     BYTE      AUXINTIF
      000000FDH   SFRSYM    DATA     BYTE      S4CON
      000000ACH   SFRSYM    DATA     BYTE      S3CON
      0000009AH   SFRSYM    DATA     BYTE      S2CON
      000000C0H.2 SFRSYM    DATA     BIT       KEY3_PIN
      000000C0H.3 SFRSYM    DATA     BIT       KEY2_PIN
      00000090H.3 SFRSYM    DATA     BIT       BUZZER
      000000C0H.4 SFRSYM    DATA     BIT       KEY1_PIN
      000000B7H   SFRSYM    DATA     BYTE      IPH
      000000CDH   SFRSYM    DATA     BYTE      SPSTAT
      000000DDH   SFRSYM    DATA     BYTE      T4T3M
      000000C1H   SFRSYM    DATA     BYTE      WDT_CONTR
      000000DFH   SFRSYM    DATA     BYTE      IP3
      000000F4H   SFRSYM    DATA     BYTE      USBCON
      000000B5H   SFRSYM    DATA     BYTE      IP2
      000000FFH   SFRSYM    DATA     BYTE      RSTCFG
      000000E0H   SFRSYM    DATA     BYTE      ACC
      000000C7H   SFRSYM    DATA     BYTE      IAP_CONTR
      000000F9H   SFRSYM    DATA     BYTE      LINICR
      0000008EH   SFRSYM    DATA     BYTE      AUXR
      000000F0H   SFRSYM    DATA     BYTE      B
      000000AFH   SFRSYM    DATA     BYTE      IE2
      00000088H   SFRSYM    DATA     BYTE      TCON
      00000089H   SFRSYM    DATA     BYTE      TMOD
      00000098H   SFRSYM    DATA     BYTE      SCON
      000000F1H   SFRSYM    DATA     BYTE      CANICR
      00000087H   SFRSYM    DATA     BYTE      PCON
      000000BCH   SFRSYM    DATA     BYTE      ADC_CONTR
      000000E7H   SFRSYM    DATA     BYTE      CMPCR2
      000000E6H   SFRSYM    DATA     BYTE      CMPCR1
      000000DEH   SFRSYM    DATA     BYTE      ADCCFG
      000000B8H   SFRSYM    DATA     BYTE      IP
      0000008FH   SFRSYM    DATA     BYTE      INTCLKO
      000000EEH   SFRSYM    DATA     BYTE      IP3H
      000000B6H   SFRSYM    DATA     BYTE      IP2H
      000000A8H   SFRSYM    DATA     BYTE      IE
      000000BBH   SFRSYM    DATA     BYTE      P_SW3
      000000BAH   SFRSYM    DATA     BYTE      P_SW2
      000000A2H   SFRSYM    DATA     BYTE      P_SW1
      000000CEH   SFRSYM    DATA     BYTE      SPCTL
      000000F8H   SFRSYM    DATA     BYTE      P7
      000000E8H   SFRSYM    DATA     BYTE      P6
      000000C8H   SFRSYM    DATA     BYTE      P5
      000000C0H   SFRSYM    DATA     BYTE      P4
      000000B0H   SFRSYM    DATA     BYTE      P3
      000000A0H   SFRSYM    DATA     BYTE      P2
      00000090H   SFRSYM    DATA     BYTE      P1
      00000080H   SFRSYM    DATA     BYTE      P0
      00FF3C10H   SYMBOL    HCONST   ---       g_tone_segments
      00FF2F88H   SYMBOL    CODE     ---       Buzzer_Update
      00FF2805H   SYMBOL    CODE     ---       Key_ScanSingle
      0000022EH   SYMBOL    EDATA    BYTE      last_event1
      0000022FH   SYMBOL    EDATA    ---       g_buzzer
      00000235H   SYMBOL    EDATA    BYTE      last_event2
      00000236H   SYMBOL    EDATA    BYTE      last_event3

      00FF2F88H   BLOCK     CODE     ---       LVL=0
      WR26        REGSYM    ---      WORD      elapsed_ms
      00FF2F88H   LINE      CODE     ---       #58
      00FF2F88H   LINE      CODE     ---       #59
      00FF2F88H   LINE      CODE     ---       #63
      00FF2F91H   LINE      CODE     ---       #64
      00FF2F91H   LINE      CODE     ---       #67
      00FF2F99H   LINE      CODE     ---       #70
      00FF2FCEH   LINE      CODE     ---       #72
L251 LINKER/LOCATER V4.66.93.0                                                        03/15/2026  15:45:09  PAGE 36


      00FF2FD3H   LINE      CODE     ---       #73
      00FF2FDBH   LINE      CODE     ---       #76
      00FF2FFBH   LINE      CODE     ---       #78
      00FF2FFDH   LINE      CODE     ---       #79
      00FF3002H   LINE      CODE     ---       #80
      00FF3006H   LINE      CODE     ---       #81
      00FF3007H   LINE      CODE     ---       #82
      00FF3007H   LINE      CODE     ---       #85
      00FF3014H   LINE      CODE     ---       #86
      00FF3017H   LINE      CODE     ---       #88
      00FF3019H   LINE      CODE     ---       #89
      ---         BLOCKEND  ---      ---       LVL=0

      00FF3610H   BLOCK     CODE     ---       LVL=0
      R10         REGSYM    ---      BYTE      tone_type
      00FF3610H   LINE      CODE     ---       #93
      00FF3612H   LINE      CODE     ---       #95
      00FF361BH   LINE      CODE     ---       #96
      00FF361BH   LINE      CODE     ---       #98
      00FF3621H   LINE      CODE     ---       #99
      00FF3625H   LINE      CODE     ---       #100
      00FF362AH   LINE      CODE     ---       #101
      00FF3632H   LINE      CODE     ---       #104
      00FF364AH   LINE      CODE     ---       #105
      00FF364DH   LINE      CODE     ---       #107
      00FF364FH   LINE      CODE     ---       #108
      ---         BLOCKEND  ---      ---       LVL=0

      00FF3B1AH   BLOCK     CODE     ---       LVL=0
      00FF3B1AH   LINE      CODE     ---       #113
      00FF3B1AH   LINE      CODE     ---       #115
      00FF3B24H   LINE      CODE     ---       #116
      ---         BLOCKEND  ---      ---       LVL=0

      00FF32B9H   BLOCK     CODE     ---       LVL=0
      00FF32B9H   LINE      CODE     ---       #118
      00FF32B9H   LINE      CODE     ---       #125
      00FF32BFH   LINE      CODE     ---       #126
      00FF32C4H   LINE      CODE     ---       #127
      00FF32C8H   LINE      CODE     ---       #128
      00FF32CEH   LINE      CODE     ---       #129
      00FF32D2H   LINE      CODE     ---       #130
      00FF32D6H   LINE      CODE     ---       #131
      00FF32DAH   LINE      CODE     ---       #132
      00FF32DEH   LINE      CODE     ---       #135
      00FF32E4H   LINE      CODE     ---       #136
      00FF32E9H   LINE      CODE     ---       #137
      00FF32EDH   LINE      CODE     ---       #138
      00FF32F1H   LINE      CODE     ---       #139
      00FF32F5H   LINE      CODE     ---       #140
      00FF32F9H   LINE      CODE     ---       #141
      00FF32FDH   LINE      CODE     ---       #142
      00FF3301H   LINE      CODE     ---       #145
      00FF3307H   LINE      CODE     ---       #146
      00FF330CH   LINE      CODE     ---       #147
      00FF3310H   LINE      CODE     ---       #148
      00FF3314H   LINE      CODE     ---       #149
      00FF3318H   LINE      CODE     ---       #150
      00FF331CH   LINE      CODE     ---       #151
      00FF3320H   LINE      CODE     ---       #152
      00FF3324H   LINE      CODE     ---       #154
      ---         BLOCKEND  ---      ---       LVL=0

      00FF2805H   BLOCK     CODE     ---       LVL=0
      REG=7       REGSYM    ---      ---       pkey
L251 LINKER/LOCATER V4.66.93.0                                                        03/15/2026  15:45:09  PAGE 37


      R11         REGSYM    ---      BYTE      pin
      00FF2805H   LINE      CODE     ---       #167
      00FF2807H   LINE      CODE     ---       #169
      00FF280AH   LINE      CODE     ---       #172
      00FF2812H   LINE      CODE     ---       #174
      00FF281AH   LINE      CODE     ---       #176
      00FF2828H   LINE      CODE     ---       #177
      00FF2835H   LINE      CODE     ---       #179
      00FF283BH   LINE      CODE     ---       #180
      00FF2841H   LINE      CODE     ---       #181
      00FF2841H   LINE      CODE     ---       #182
      00FF2844H   LINE      CODE     ---       #184
      00FF284CH   LINE      CODE     ---       #186
      00FF285AH   LINE      CODE     ---       #189
      00FF2864H   LINE      CODE     ---       #191
      00FF286AH   LINE      CODE     ---       #192
      00FF286FH   LINE      CODE     ---       #193
      00FF2875H   LINE      CODE     ---       #194
      00FF2878H   LINE      CODE     ---       #196
      00FF288EH   LINE      CODE     ---       #199
      00FF2894H   LINE      CODE     ---       #200
      00FF2894H   LINE      CODE     ---       #202
      00FF2897H   LINE      CODE     ---       #207
      00FF289EH   LINE      CODE     ---       #209
      00FF28ACH   LINE      CODE     ---       #210
      00FF28B6H   LINE      CODE     ---       #212
      00FF28BBH   LINE      CODE     ---       #213
      00FF28C1H   LINE      CODE     ---       #216
      00FF28CBH   LINE      CODE     ---       #219
      00FF28D8H   LINE      CODE     ---       #221
      00FF28E1H   LINE      CODE     ---       #224
      00FF28E7H   LINE      CODE     ---       #225
      00FF28EBH   LINE      CODE     ---       #226
      00FF28EDH   LINE      CODE     ---       #227
      00FF28F2H   LINE      CODE     ---       #230
      00FF28F8H   LINE      CODE     ---       #231
      00FF28FEH   LINE      CODE     ---       #232
      00FF2903H   LINE      CODE     ---       #233
      00FF2905H   LINE      CODE     ---       #238
      00FF290BH   LINE      CODE     ---       #239
      00FF2910H   LINE      CODE     ---       #240
      00FF2916H   LINE      CODE     ---       #241
      00FF2916H   LINE      CODE     ---       #242
      00FF2918H   LINE      CODE     ---       #246
      00FF291EH   LINE      CODE     ---       #247
      00FF291EH   LINE      CODE     ---       #248
      00FF291EH   LINE      CODE     ---       #251
      00FF2928H   LINE      CODE     ---       #253
      00FF2933H   LINE      CODE     ---       #256
      00FF293BH   LINE      CODE     ---       #259
      00FF2944H   LINE      CODE     ---       #263
      00FF294DH   LINE      CODE     ---       #265
      00FF2953H   LINE      CODE     ---       #266
      00FF2953H   LINE      CODE     ---       #267
      00FF2953H   LINE      CODE     ---       #268
      00FF2955H   LINE      CODE     ---       #269
      00FF295AH   LINE      CODE     ---       #272
      00FF295FH   LINE      CODE     ---       #273
      00FF295FH   LINE      CODE     ---       #275
      00FF295FH   LINE      CODE     ---       #276
      ---         BLOCKEND  ---      ---       LVL=0

      00FF395FH   BLOCK     CODE     ---       LVL=0
      00FF395FH   LINE      CODE     ---       #281
      00FF395FH   LINE      CODE     ---       #283
L251 LINKER/LOCATER V4.66.93.0                                                        03/15/2026  15:45:09  PAGE 38


      00FF396AH   LINE      CODE     ---       #284
      00FF3975H   LINE      CODE     ---       #285
      ---         BLOCKEND  ---      ---       LVL=0

      00FF39A0H   BLOCK     CODE     ---       LVL=0
      R7          REGSYM    ---      BYTE      key_id
      00FF39A0H   LINE      CODE     ---       #291
      00FF39A2H   LINE      CODE     ---       #293
      00FF39AEH   LINE      CODE     ---       #295
      00FF39AEH   LINE      CODE     ---       #296
      00FF39B3H   LINE      CODE     ---       #297
      00FF39B3H   LINE      CODE     ---       #298
      00FF39B8H   LINE      CODE     ---       #299
      00FF39B8H   LINE      CODE     ---       #300
      00FF39BDH   LINE      CODE     ---       #301
      00FF39BDH   LINE      CODE     ---       #302
      00FF39BEH   LINE      CODE     ---       #303
      00FF39BEH   LINE      CODE     ---       #304
      ---         BLOCKEND  ---      ---       LVL=0

      00FF3980H   BLOCK     CODE     ---       LVL=0
      R7          REGSYM    ---      BYTE      key_id
      00FF3980H   LINE      CODE     ---       #309
      00FF3982H   LINE      CODE     ---       #311
      00FF398EH   LINE      CODE     ---       #313
      00FF398EH   LINE      CODE     ---       #314
      00FF3993H   LINE      CODE     ---       #315
      00FF3994H   LINE      CODE     ---       #316
      00FF3994H   LINE      CODE     ---       #317
      00FF3999H   LINE      CODE     ---       #318
      00FF399AH   LINE      CODE     ---       #319
      00FF399AH   LINE      CODE     ---       #320
      00FF399FH   LINE      CODE     ---       #321
      00FF399FH   LINE      CODE     ---       #322
      00FF399FH   LINE      CODE     ---       #323
      ---         BLOCKEND  ---      ---       LVL=0

      00FF3700H   BLOCK     CODE     ---       LVL=0
      R7          REGSYM    ---      BYTE      key_id
      00FF3700H   LINE      CODE     ---       #328
      00FF3702H   LINE      CODE     ---       #330
      00FF370EH   LINE      CODE     ---       #332
      00FF370EH   LINE      CODE     ---       #333
      00FF371AH   LINE      CODE     ---       #334
      00FF371AH   LINE      CODE     ---       #335
      00FF3726H   LINE      CODE     ---       #336
      00FF3726H   LINE      CODE     ---       #337
      00FF3732H   LINE      CODE     ---       #338
      00FF3732H   LINE      CODE     ---       #339
      00FF3733H   LINE      CODE     ---       #340
      00FF3733H   LINE      CODE     ---       #341
      ---         BLOCKEND  ---      ---       LVL=0

      00FF2960H   BLOCK     CODE     ---       LVL=0
      R10         REGSYM    ---      BYTE      event
      00FF2960H   LINE      CODE     ---       #351
      00FF2960H   LINE      CODE     ---       #352
      00FF2960H   LINE      CODE     ---       #356
      00FF2967H   LINE      CODE     ---       #359
      00FF2973H   LINE      CODE     ---       #362
      00FF2973H   LINE      CODE     ---       #364
      00FF2973H   LINE      CODE     ---       #365
      00FF2973H   LINE      CODE     ---       #366
      00FF2975H   LINE      CODE     ---       #367
      00FF2975H   LINE      CODE     ---       #370
L251 LINKER/LOCATER V4.66.93.0                                                        03/15/2026  15:45:09  PAGE 39


      00FF297AH   LINE      CODE     ---       #372
      00FF2985H   LINE      CODE     ---       #374
      00FF298AH   LINE      CODE     ---       #375
      00FF298CH   LINE      CODE     ---       #376
      00FF298EH   LINE      CODE     ---       #377
      00FF298EH   LINE      CODE     ---       #378
      00FF2993H   LINE      CODE     ---       #380
      00FF299EH   LINE      CODE     ---       #382
      00FF29A3H   LINE      CODE     ---       #383
      00FF29A5H   LINE      CODE     ---       #384
      00FF29A7H   LINE      CODE     ---       #385
      00FF29A7H   LINE      CODE     ---       #386
      00FF29ACH   LINE      CODE     ---       #388
      00FF29B7H   LINE      CODE     ---       #389
      00FF29BCH   LINE      CODE     ---       #390
      00FF29BEH   LINE      CODE     ---       #391
      00FF29C0H   LINE      CODE     ---       #392
      00FF29C0H   LINE      CODE     ---       #393
      00FF29C5H   LINE      CODE     ---       #395
      00FF29D0H   LINE      CODE     ---       #396
      00FF29D5H   LINE      CODE     ---       #397
      00FF29DBH   LINE      CODE     ---       #398
      00FF29DEH   LINE      CODE     ---       #399
      00FF29DEH   LINE      CODE     ---       #401
      00FF29E3H   LINE      CODE     ---       #404
      00FF29EAH   LINE      CODE     ---       #406
      00FF29F6H   LINE      CODE     ---       #408
      00FF29F6H   LINE      CODE     ---       #409
      00FF29F6H   LINE      CODE     ---       #410
      00FF29F6H   LINE      CODE     ---       #411
      00FF29F8H   LINE      CODE     ---       #412
      00FF29F8H   LINE      CODE     ---       #414
      00FF29FDH   LINE      CODE     ---       #416
      00FF2A08H   LINE      CODE     ---       #417
      00FF2A0DH   LINE      CODE     ---       #418
      00FF2A0FH   LINE      CODE     ---       #419
      00FF2A11H   LINE      CODE     ---       #420
      00FF2A11H   LINE      CODE     ---       #421
      00FF2A16H   LINE      CODE     ---       #423
      00FF2A21H   LINE      CODE     ---       #424
      00FF2A26H   LINE      CODE     ---       #425
      00FF2A28H   LINE      CODE     ---       #426
      00FF2A2AH   LINE      CODE     ---       #427
      00FF2A2AH   LINE      CODE     ---       #428
      00FF2A2FH   LINE      CODE     ---       #430
      00FF2A3AH   LINE      CODE     ---       #431
      00FF2A3FH   LINE      CODE     ---       #432
      00FF2A45H   LINE      CODE     ---       #433
      00FF2A48H   LINE      CODE     ---       #434
      00FF2A48H   LINE      CODE     ---       #436
      00FF2A4DH   LINE      CODE     ---       #439
      00FF2A54H   LINE      CODE     ---       #441
      00FF2A60H   LINE      CODE     ---       #443
      00FF2A60H   LINE      CODE     ---       #444
      00FF2A60H   LINE      CODE     ---       #445
      00FF2A60H   LINE      CODE     ---       #446
      00FF2A62H   LINE      CODE     ---       #447
      00FF2A62H   LINE      CODE     ---       #449
      00FF2A67H   LINE      CODE     ---       #451
      00FF2A72H   LINE      CODE     ---       #452
      00FF2A77H   LINE      CODE     ---       #453
      00FF2A79H   LINE      CODE     ---       #454
      00FF2A7BH   LINE      CODE     ---       #455
      00FF2A7BH   LINE      CODE     ---       #456
      00FF2A80H   LINE      CODE     ---       #458
L251 LINKER/LOCATER V4.66.93.0                                                        03/15/2026  15:45:09  PAGE 40


      00FF2A8BH   LINE      CODE     ---       #459
      00FF2A90H   LINE      CODE     ---       #460
      00FF2A92H   LINE      CODE     ---       #461
      00FF2A94H   LINE      CODE     ---       #462
      00FF2A94H   LINE      CODE     ---       #463
      00FF2A99H   LINE      CODE     ---       #465
      00FF2AA4H   LINE      CODE     ---       #466
      00FF2AA9H   LINE      CODE     ---       #467
      00FF2AAFH   LINE      CODE     ---       #468
      00FF2AB2H   LINE      CODE     ---       #469
      00FF2AB2H   LINE      CODE     ---       #471
      00FF2AB7H   LINE      CODE     ---       #472
      00FF2AB7H   LINE      CODE     ---       #473
      ---         BLOCKEND  ---      ---       LVL=0

      ---         MODULE    ---      ---       pid
      00FF2AB8H   PUBLIC    CODE     ---       PID_Calc
      00FF3A10H   PUBLIC    CODE     ---       PID_Reset
      00FF3734H   PUBLIC    CODE     ---       PID_Init
      000000C3H   PUBLIC    EDATA    ---       ?PID_Init?BYTE

      00FF3734H   BLOCK     CODE     ---       LVL=0
      REG=2       REGSYM    ---      ---       pid
      WR6         REGSYM    ---      INT       kp
      WR4         REGSYM    ---      INT       ki
      000000CBH   SYMBOL    EDATA    INT       kd
      000000CDH   SYMBOL    EDATA    LONG      out_max
      000000D1H   SYMBOL    EDATA    LONG      out_min
      000000D5H   SYMBOL    EDATA    INT       dead_band
      00FF3734H   LINE      CODE     ---       #18
      00FF3736H   LINE      CODE     ---       #23
      00FF3739H   LINE      CODE     ---       #24
      00FF373DH   LINE      CODE     ---       #25
      00FF3745H   LINE      CODE     ---       #26
      00FF3751H   LINE      CODE     ---       #27
      00FF375DH   LINE      CODE     ---       #28
      00FF3765H   LINE      CODE     ---       #29
      ---         BLOCKEND  ---      ---       LVL=0

      00FF3A10H   BLOCK     CODE     ---       LVL=0
      REG=2       REGSYM    ---      ---       pid
      00FF3A10H   LINE      CODE     ---       #35
      00FF3A12H   LINE      CODE     ---       #37
      00FF3A18H   LINE      CODE     ---       #38
      00FF3A1CH   LINE      CODE     ---       #39
      00FF3A20H   LINE      CODE     ---       #40
      00FF3A2AH   LINE      CODE     ---       #41
      ---         BLOCKEND  ---      ---       LVL=0

      00FF2AB8H   BLOCK     CODE     ---       LVL=0
      REG=6       REGSYM    ---      ---       pid
      WR8         REGSYM    ---      INT       setpoint
      WR10        REGSYM    ---      INT       feedback
      00FF2ABEH   BLOCK     CODE     NEAR LAB  LVL=1
      DR8         REGSYM    ---      LONG      delta_u
      WR6         REGSYM    ---      INT       err
      ---         BLOCKEND  ---      ---       LVL=1
      00FF2AB8H   LINE      CODE     ---       #57
      00FF2ABEH   LINE      CODE     ---       #58
      00FF2ABEH   LINE      CODE     ---       #63
      00FF2AC0H   LINE      CODE     ---       #66
      00FF2ADEH   LINE      CODE     ---       #67
      00FF2AEEH   LINE      CODE     ---       #70
      00FF2AF6H   LINE      CODE     ---       #71
      00FF2AFEH   LINE      CODE     ---       #72
L251 LINKER/LOCATER V4.66.93.0                                                        03/15/2026  15:45:09  PAGE 41


      00FF2B02H   LINE      CODE     ---       #80
      00FF2B56H   LINE      CODE     ---       #81
      00FF2B61H   LINE      CODE     ---       #84
      00FF2B77H   LINE      CODE     ---       #87
      00FF2B93H   LINE      CODE     ---       #88
      00FF2BAFH   LINE      CODE     ---       #90
      00FF2BB7H   LINE      CODE     ---       #91
      ---         BLOCKEND  ---      ---       LVL=0

      ---         MODULE    ---      ---       SPRINTF
      000000F7H   PUBLIC    EDATA    ---       ?SPRINTF?BYTE
      00FF1A36H   PUBLIC    CODE     NEAR LAB  SPRINTF

      ---         MODULE    ---      ---       VSPRINTF
      00000153H   PUBLIC    EDATA    ---       ?VSPRINTF?BYTE
      00FF1A56H   PUBLIC    CODE     NEAR LAB  VSPRINTF

      ---         MODULE    ---      ---       ?C?PRNFMT
      00FF1A9FH   PUBLIC    CODE     ---       ?C?PRNFMT

      ---         MODULE    ---      ---       ?C?FPCONVERT
      00FF1EBCH   PUBLIC    CODE     ---       ?C?FPCONVERT
      00FF1F74H   PUBLIC    CODE     ---       ?C?FPROUND

      ---         MODULE    ---      ---       ?C?FPMUL
      00FF1FB7H   PUBLIC    CODE     ---       ?C?FPMUL

      ---         MODULE    ---      ---       ?C?FPDIV
      00FF2057H   PUBLIC    CODE     ---       ?C?FPDIV

      ---         MODULE    ---      ---       ?C?FTNPWR
      00FF2108H   PUBLIC    CODE     ---       ?C?FTNPWR

      ---         MODULE    ---      ---       ?C?FPGETOPN
      00FF213FH   PUBLIC    CODE     ---       ?C?FPGETOPN2
      00FF217CH   PUBLIC    CODE     ---       ?C?FPNANRESULT
      00FF2184H   PUBLIC    CODE     ---       ?C?FPOVERFLOW
      00FF2158H   PUBLIC    CODE     ---       ?C?FPRESULT
      00FF216EH   PUBLIC    CODE     ---       ?C?FPRESULT2
      00FF2181H   PUBLIC    CODE     ---       ?C?FPUNDERFLOW

      ---         MODULE    ---      ---       ?C_START
      00FF0000H   PUBLIC    CODE     ---       ?C?STARTUP
      00FF0000H   PUBLIC    CODE     ---       ?C_STARTUP

      ---         MODULE    ---      ---       ?C?INITEDATA
      00FF35A4H   PUBLIC    CODE     ---       ?C?INITEDATA

      ---         MODULE    ---      ---       ?C?SIDIV
      00FF2190H   PUBLIC    CODE     ---       ?C?SIDIV

      ---         MODULE    ---      ---       ?C?LMUL
      00FF21C2H   PUBLIC    CODE     ---       ?C?LMUL

      ---         MODULE    ---      ---       ?C?LIMUL
      00FF21D3H   PUBLIC    CODE     ---       ?C?LIMUL

      ---         MODULE    ---      ---       ?C?SLDIV
      00FF21DCH   PUBLIC    CODE     NEAR LAB  ?C?SLDIV

      ---         MODULE    ---      ---       STRLEN
      00FF3B01H   PUBLIC    CODE     ---       strlen?_

      ---         MODULE    ---      ---       memset
      00FF3A2BH   PUBLIC    CODE     ---       memset?_
L251 LINKER/LOCATER V4.66.93.0                                                        03/15/2026  15:45:09  PAGE 42



      ---         MODULE    ---      ---       ?C?INITEDATA_END
      00FF3CFEH   PUBLIC    HCONST   WORD      ?C?INITEDATA_END

      ---         MODULE    ---      ---       ?C?ULDIV
      00FF2212H   PUBLIC    CODE     NEAR LAB  ?C?ULDIV
      00FF2210H   PUBLIC    CODE     NEAR LAB  ?C?ULIDIV



*** WARNING L57: UNCALLED FUNCTION, IGNORED FOR OVERLAY PROCESS
    NAME:    OLED_BuffShowCircle/oled

*** WARNING L57: UNCALLED FUNCTION, IGNORED FOR OVERLAY PROCESS
    NAME:    OLED_BuffShowNum02F/oled

*** WARNING L57: UNCALLED FUNCTION, IGNORED FOR OVERLAY PROCESS
    NAME:    OLED_BuffShowBMP/oled

*** WARNING L57: UNCALLED FUNCTION, IGNORED FOR OVERLAY PROCESS
    NAME:    OLED_BuffShowChar32/oled

*** WARNING L57: UNCALLED FUNCTION, IGNORED FOR OVERLAY PROCESS
    NAME:    OLED_BuffShowRectangle/oled

*** WARNING L57: UNCALLED FUNCTION, IGNORED FOR OVERLAY PROCESS
    NAME:    OLED_DrawBMP/oled

*** WARNING L57: UNCALLED FUNCTION, IGNORED FOR OVERLAY PROCESS
    NAME:    OLED_DisplayOff/oled

*** WARNING L57: UNCALLED FUNCTION, IGNORED FOR OVERLAY PROCESS
    NAME:    UART2_SendString/uart

*** WARNING L57: UNCALLED FUNCTION, IGNORED FOR OVERLAY PROCESS
    NAME:    UART2_ReadByte/uart

*** WARNING L57: UNCALLED FUNCTION, IGNORED FOR OVERLAY PROCESS
    NAME:    Key_IsPressed/key

*** WARNING L57: UNCALLED FUNCTION, IGNORED FOR OVERLAY PROCESS
    NAME:    Buzzer_IsBusy/key

*** WARNING L16: UNCALLED SEGMENT, IGNORED FOR OVERLAY PROCESS
    NAME:    Buzzer_Update/key

Program Size: data=8.3 edata+hdata=852 xdata=1047 const=534 code=15141
L251 RUN COMPLETE.  12 WARNING(S),  0 ERROR(S)
